ARM GAS  C:\Users\PRICHA~1\AppData\Local\Temp\cc26uNke.s 			page 1


   1              		.syntax unified
   2              		.cpu cortex-m0
   3              		.fpu softvfp
   4              		.eabi_attribute 20, 1
   5              		.eabi_attribute 21, 1
   6              		.eabi_attribute 23, 3
   7              		.eabi_attribute 24, 1
   8              		.eabi_attribute 25, 1
   9              		.eabi_attribute 26, 1
  10              		.eabi_attribute 30, 1
  11              		.eabi_attribute 34, 0
  12              		.eabi_attribute 18, 4
  13              		.thumb
  14              		.syntax unified
  15              		.file	"cyfitter_cfg.c"
  16              		.text
  17              	.Ltext0:
  18              		.cfi_sections	.debug_frame
  19              		.section	.text.cfg_write_bytes32,"ax",%progbits
  20              		.align	2
  21              		.code	16
  22              		.thumb_func
  23              		.type	cfg_write_bytes32, %function
  24              	cfg_write_bytes32:
  25              	.LFB3:
  26              		.file 1 "Generated_Source\\PSoC4\\cyfitter_cfg.c"
   1:Generated_Source\PSoC4/cyfitter_cfg.c **** 
   2:Generated_Source\PSoC4/cyfitter_cfg.c **** /*******************************************************************************
   3:Generated_Source\PSoC4/cyfitter_cfg.c **** * File Name: cyfitter_cfg.c
   4:Generated_Source\PSoC4/cyfitter_cfg.c **** * 
   5:Generated_Source\PSoC4/cyfitter_cfg.c **** * PSoC Creator  4.2
   6:Generated_Source\PSoC4/cyfitter_cfg.c **** *
   7:Generated_Source\PSoC4/cyfitter_cfg.c **** * Description:
   8:Generated_Source\PSoC4/cyfitter_cfg.c **** * This file contains device initialization code.
   9:Generated_Source\PSoC4/cyfitter_cfg.c **** * Except for the user defined sections in CyClockStartupError(), this file should not be modified.
  10:Generated_Source\PSoC4/cyfitter_cfg.c **** * This file is automatically generated by PSoC Creator.
  11:Generated_Source\PSoC4/cyfitter_cfg.c **** *
  12:Generated_Source\PSoC4/cyfitter_cfg.c **** ********************************************************************************
  13:Generated_Source\PSoC4/cyfitter_cfg.c **** * Copyright (c) 2007-2018 Cypress Semiconductor.  All rights reserved.
  14:Generated_Source\PSoC4/cyfitter_cfg.c **** * You may use this file only in accordance with the license, terms, conditions, 
  15:Generated_Source\PSoC4/cyfitter_cfg.c **** * disclaimers, and limitations in the end user license agreement accompanying 
  16:Generated_Source\PSoC4/cyfitter_cfg.c **** * the software package with which this file was provided.
  17:Generated_Source\PSoC4/cyfitter_cfg.c **** ********************************************************************************/
  18:Generated_Source\PSoC4/cyfitter_cfg.c **** 
  19:Generated_Source\PSoC4/cyfitter_cfg.c **** #include <string.h>
  20:Generated_Source\PSoC4/cyfitter_cfg.c **** #include "cytypes.h"
  21:Generated_Source\PSoC4/cyfitter_cfg.c **** #include "cydevice_trm.h"
  22:Generated_Source\PSoC4/cyfitter_cfg.c **** #include "cyfitter.h"
  23:Generated_Source\PSoC4/cyfitter_cfg.c **** #include "CyLib.h"
  24:Generated_Source\PSoC4/cyfitter_cfg.c **** #include "cyfitter_cfg.h"
  25:Generated_Source\PSoC4/cyfitter_cfg.c **** 
  26:Generated_Source\PSoC4/cyfitter_cfg.c **** 
  27:Generated_Source\PSoC4/cyfitter_cfg.c **** #if defined(__GNUC__) || defined(__ARMCC_VERSION)
  28:Generated_Source\PSoC4/cyfitter_cfg.c ****     #define CYPACKED 
  29:Generated_Source\PSoC4/cyfitter_cfg.c ****     #define CYPACKED_ATTR __attribute__ ((packed))
  30:Generated_Source\PSoC4/cyfitter_cfg.c ****     #define CYALIGNED __attribute__ ((aligned))
  31:Generated_Source\PSoC4/cyfitter_cfg.c ****     #define CY_CFG_UNUSED __attribute__ ((unused))
ARM GAS  C:\Users\PRICHA~1\AppData\Local\Temp\cc26uNke.s 			page 2


  32:Generated_Source\PSoC4/cyfitter_cfg.c ****     #ifndef CY_CFG_SECTION
  33:Generated_Source\PSoC4/cyfitter_cfg.c ****         #define CY_CFG_SECTION __attribute__ ((section(".psocinit")))
  34:Generated_Source\PSoC4/cyfitter_cfg.c ****     #endif
  35:Generated_Source\PSoC4/cyfitter_cfg.c ****     
  36:Generated_Source\PSoC4/cyfitter_cfg.c ****     #if defined(__ARMCC_VERSION)
  37:Generated_Source\PSoC4/cyfitter_cfg.c ****         #define CY_CFG_MEMORY_BARRIER() __memory_changed()
  38:Generated_Source\PSoC4/cyfitter_cfg.c ****     #else
  39:Generated_Source\PSoC4/cyfitter_cfg.c ****         #define CY_CFG_MEMORY_BARRIER() __sync_synchronize()
  40:Generated_Source\PSoC4/cyfitter_cfg.c ****     #endif
  41:Generated_Source\PSoC4/cyfitter_cfg.c ****     
  42:Generated_Source\PSoC4/cyfitter_cfg.c **** #elif defined(__ICCARM__)
  43:Generated_Source\PSoC4/cyfitter_cfg.c ****     #include <intrinsics.h>
  44:Generated_Source\PSoC4/cyfitter_cfg.c **** 
  45:Generated_Source\PSoC4/cyfitter_cfg.c ****     #define CYPACKED __packed
  46:Generated_Source\PSoC4/cyfitter_cfg.c ****     #define CYPACKED_ATTR 
  47:Generated_Source\PSoC4/cyfitter_cfg.c ****     #define CYALIGNED _Pragma("data_alignment=4")
  48:Generated_Source\PSoC4/cyfitter_cfg.c ****     #define CY_CFG_UNUSED _Pragma("diag_suppress=Pe177")
  49:Generated_Source\PSoC4/cyfitter_cfg.c ****     #define CY_CFG_SECTION _Pragma("location=\".psocinit\"")
  50:Generated_Source\PSoC4/cyfitter_cfg.c ****     
  51:Generated_Source\PSoC4/cyfitter_cfg.c ****     #define CY_CFG_MEMORY_BARRIER() __DMB()
  52:Generated_Source\PSoC4/cyfitter_cfg.c ****     
  53:Generated_Source\PSoC4/cyfitter_cfg.c **** #else
  54:Generated_Source\PSoC4/cyfitter_cfg.c ****     #error Unsupported toolchain
  55:Generated_Source\PSoC4/cyfitter_cfg.c **** #endif
  56:Generated_Source\PSoC4/cyfitter_cfg.c **** 
  57:Generated_Source\PSoC4/cyfitter_cfg.c **** #ifndef CYCODE
  58:Generated_Source\PSoC4/cyfitter_cfg.c ****     #define CYCODE
  59:Generated_Source\PSoC4/cyfitter_cfg.c **** #endif
  60:Generated_Source\PSoC4/cyfitter_cfg.c **** #ifndef CYDATA
  61:Generated_Source\PSoC4/cyfitter_cfg.c ****     #define CYDATA
  62:Generated_Source\PSoC4/cyfitter_cfg.c **** #endif
  63:Generated_Source\PSoC4/cyfitter_cfg.c **** #ifndef CYFAR
  64:Generated_Source\PSoC4/cyfitter_cfg.c ****     #define CYFAR
  65:Generated_Source\PSoC4/cyfitter_cfg.c **** #endif
  66:Generated_Source\PSoC4/cyfitter_cfg.c **** #ifndef CYXDATA
  67:Generated_Source\PSoC4/cyfitter_cfg.c ****     #define CYXDATA
  68:Generated_Source\PSoC4/cyfitter_cfg.c **** #endif
  69:Generated_Source\PSoC4/cyfitter_cfg.c **** 
  70:Generated_Source\PSoC4/cyfitter_cfg.c **** 
  71:Generated_Source\PSoC4/cyfitter_cfg.c **** CY_CFG_UNUSED
  72:Generated_Source\PSoC4/cyfitter_cfg.c **** static void CYMEMZERO(void *s, size_t n);
  73:Generated_Source\PSoC4/cyfitter_cfg.c **** CY_CFG_UNUSED
  74:Generated_Source\PSoC4/cyfitter_cfg.c **** static void CYMEMZERO(void *s, size_t n)
  75:Generated_Source\PSoC4/cyfitter_cfg.c **** {
  76:Generated_Source\PSoC4/cyfitter_cfg.c **** 	(void)memset(s, 0, n);
  77:Generated_Source\PSoC4/cyfitter_cfg.c **** }
  78:Generated_Source\PSoC4/cyfitter_cfg.c **** CY_CFG_UNUSED
  79:Generated_Source\PSoC4/cyfitter_cfg.c **** static void CYCONFIGCPY(void *dest, const void *src, size_t n);
  80:Generated_Source\PSoC4/cyfitter_cfg.c **** CY_CFG_UNUSED
  81:Generated_Source\PSoC4/cyfitter_cfg.c **** static void CYCONFIGCPY(void *dest, const void *src, size_t n)
  82:Generated_Source\PSoC4/cyfitter_cfg.c **** {
  83:Generated_Source\PSoC4/cyfitter_cfg.c **** 	(void)memcpy(dest, src, n);
  84:Generated_Source\PSoC4/cyfitter_cfg.c **** }
  85:Generated_Source\PSoC4/cyfitter_cfg.c **** CY_CFG_UNUSED
  86:Generated_Source\PSoC4/cyfitter_cfg.c **** static void CYCONFIGCPYCODE(void *dest, const void *src, size_t n);
  87:Generated_Source\PSoC4/cyfitter_cfg.c **** CY_CFG_UNUSED
  88:Generated_Source\PSoC4/cyfitter_cfg.c **** static void CYCONFIGCPYCODE(void *dest, const void *src, size_t n)
ARM GAS  C:\Users\PRICHA~1\AppData\Local\Temp\cc26uNke.s 			page 3


  89:Generated_Source\PSoC4/cyfitter_cfg.c **** {
  90:Generated_Source\PSoC4/cyfitter_cfg.c **** 	(void)memcpy(dest, src, n);
  91:Generated_Source\PSoC4/cyfitter_cfg.c **** }
  92:Generated_Source\PSoC4/cyfitter_cfg.c **** 
  93:Generated_Source\PSoC4/cyfitter_cfg.c **** 
  94:Generated_Source\PSoC4/cyfitter_cfg.c **** 
  95:Generated_Source\PSoC4/cyfitter_cfg.c **** 
  96:Generated_Source\PSoC4/cyfitter_cfg.c **** /* Clock startup error codes                                                   */
  97:Generated_Source\PSoC4/cyfitter_cfg.c **** #define CYCLOCKSTART_NO_ERROR    0u
  98:Generated_Source\PSoC4/cyfitter_cfg.c **** #define CYCLOCKSTART_XTAL_ERROR  1u
  99:Generated_Source\PSoC4/cyfitter_cfg.c **** #define CYCLOCKSTART_32KHZ_ERROR 2u
 100:Generated_Source\PSoC4/cyfitter_cfg.c **** #define CYCLOCKSTART_PLL_ERROR   3u
 101:Generated_Source\PSoC4/cyfitter_cfg.c **** #define CYCLOCKSTART_FLL_ERROR   4u
 102:Generated_Source\PSoC4/cyfitter_cfg.c **** #define CYCLOCKSTART_WCO_ERROR   5u
 103:Generated_Source\PSoC4/cyfitter_cfg.c **** 
 104:Generated_Source\PSoC4/cyfitter_cfg.c **** 
 105:Generated_Source\PSoC4/cyfitter_cfg.c **** #ifdef CY_NEED_CYCLOCKSTARTUPERROR
 106:Generated_Source\PSoC4/cyfitter_cfg.c **** /*******************************************************************************
 107:Generated_Source\PSoC4/cyfitter_cfg.c **** * Function Name: CyClockStartupError
 108:Generated_Source\PSoC4/cyfitter_cfg.c **** ********************************************************************************
 109:Generated_Source\PSoC4/cyfitter_cfg.c **** * Summary:
 110:Generated_Source\PSoC4/cyfitter_cfg.c **** *  If an error is encountered during clock configuration (crystal startup error,
 111:Generated_Source\PSoC4/cyfitter_cfg.c **** *  PLL lock error, etc.), the system will end up here.  Unless reimplemented by
 112:Generated_Source\PSoC4/cyfitter_cfg.c **** *  the customer, this function will stop in an infinite loop.
 113:Generated_Source\PSoC4/cyfitter_cfg.c **** *
 114:Generated_Source\PSoC4/cyfitter_cfg.c **** * Parameters:
 115:Generated_Source\PSoC4/cyfitter_cfg.c **** *   void
 116:Generated_Source\PSoC4/cyfitter_cfg.c **** *
 117:Generated_Source\PSoC4/cyfitter_cfg.c **** * Return:
 118:Generated_Source\PSoC4/cyfitter_cfg.c **** *   void
 119:Generated_Source\PSoC4/cyfitter_cfg.c **** *
 120:Generated_Source\PSoC4/cyfitter_cfg.c **** *******************************************************************************/
 121:Generated_Source\PSoC4/cyfitter_cfg.c **** CY_CFG_UNUSED
 122:Generated_Source\PSoC4/cyfitter_cfg.c **** static void CyClockStartupError(uint8 errorCode);
 123:Generated_Source\PSoC4/cyfitter_cfg.c **** CY_CFG_UNUSED
 124:Generated_Source\PSoC4/cyfitter_cfg.c **** static void CyClockStartupError(uint8 errorCode)
 125:Generated_Source\PSoC4/cyfitter_cfg.c **** {
 126:Generated_Source\PSoC4/cyfitter_cfg.c ****     /* To remove the compiler warning if errorCode not used.                */
 127:Generated_Source\PSoC4/cyfitter_cfg.c ****     errorCode = errorCode;
 128:Generated_Source\PSoC4/cyfitter_cfg.c **** 
 129:Generated_Source\PSoC4/cyfitter_cfg.c ****     /* If we have a clock startup error (bad MHz crystal, PLL lock, etc.),  */
 130:Generated_Source\PSoC4/cyfitter_cfg.c ****     /* we will end up here to allow the customer to implement something to  */
 131:Generated_Source\PSoC4/cyfitter_cfg.c ****     /* deal with the clock condition.                                       */
 132:Generated_Source\PSoC4/cyfitter_cfg.c **** 
 133:Generated_Source\PSoC4/cyfitter_cfg.c **** #ifdef CY_CFG_CLOCK_STARTUP_ERROR_CALLBACK
 134:Generated_Source\PSoC4/cyfitter_cfg.c ****     CY_CFG_Clock_Startup_ErrorCallback();
 135:Generated_Source\PSoC4/cyfitter_cfg.c **** #else
 136:Generated_Source\PSoC4/cyfitter_cfg.c ****     /*  If not using CY_CFG_CLOCK_STARTUP_ERROR_CALLBACK, place your clock startup code here. */
 137:Generated_Source\PSoC4/cyfitter_cfg.c ****     /* `#START CyClockStartupError` */
 138:Generated_Source\PSoC4/cyfitter_cfg.c **** 
 139:Generated_Source\PSoC4/cyfitter_cfg.c **** 
 140:Generated_Source\PSoC4/cyfitter_cfg.c **** 
 141:Generated_Source\PSoC4/cyfitter_cfg.c ****     /* `#END` */
 142:Generated_Source\PSoC4/cyfitter_cfg.c **** 
 143:Generated_Source\PSoC4/cyfitter_cfg.c ****     while(1) {}
 144:Generated_Source\PSoC4/cyfitter_cfg.c **** #endif /* CY_CFG_CLOCK_STARTUP_ERROR_CALLBACK */
 145:Generated_Source\PSoC4/cyfitter_cfg.c **** }
ARM GAS  C:\Users\PRICHA~1\AppData\Local\Temp\cc26uNke.s 			page 4


 146:Generated_Source\PSoC4/cyfitter_cfg.c **** #endif
 147:Generated_Source\PSoC4/cyfitter_cfg.c **** 
 148:Generated_Source\PSoC4/cyfitter_cfg.c **** #define CY_CFG_BASE_ADDR_COUNT 10u
 149:Generated_Source\PSoC4/cyfitter_cfg.c **** CYPACKED typedef struct
 150:Generated_Source\PSoC4/cyfitter_cfg.c **** {
 151:Generated_Source\PSoC4/cyfitter_cfg.c **** 	uint8 offset;
 152:Generated_Source\PSoC4/cyfitter_cfg.c **** 	uint8 value;
 153:Generated_Source\PSoC4/cyfitter_cfg.c **** } CYPACKED_ATTR cy_cfg_addrvalue_t;
 154:Generated_Source\PSoC4/cyfitter_cfg.c **** 
 155:Generated_Source\PSoC4/cyfitter_cfg.c **** 
 156:Generated_Source\PSoC4/cyfitter_cfg.c **** 
 157:Generated_Source\PSoC4/cyfitter_cfg.c **** /*******************************************************************************
 158:Generated_Source\PSoC4/cyfitter_cfg.c **** * Function Name: cfg_write_bytes32
 159:Generated_Source\PSoC4/cyfitter_cfg.c **** ********************************************************************************
 160:Generated_Source\PSoC4/cyfitter_cfg.c **** * Summary:
 161:Generated_Source\PSoC4/cyfitter_cfg.c **** *  This function is used for setting up the chip configuration areas that
 162:Generated_Source\PSoC4/cyfitter_cfg.c **** *  contain relatively sparse data.
 163:Generated_Source\PSoC4/cyfitter_cfg.c **** *
 164:Generated_Source\PSoC4/cyfitter_cfg.c **** * Parameters:
 165:Generated_Source\PSoC4/cyfitter_cfg.c **** *   void
 166:Generated_Source\PSoC4/cyfitter_cfg.c **** *
 167:Generated_Source\PSoC4/cyfitter_cfg.c **** * Return:
 168:Generated_Source\PSoC4/cyfitter_cfg.c **** *   void
 169:Generated_Source\PSoC4/cyfitter_cfg.c **** *
 170:Generated_Source\PSoC4/cyfitter_cfg.c **** *******************************************************************************/
 171:Generated_Source\PSoC4/cyfitter_cfg.c **** static void cfg_write_bytes32(const uint32 addr_table[], const cy_cfg_addrvalue_t data_table[]);
 172:Generated_Source\PSoC4/cyfitter_cfg.c **** static void cfg_write_bytes32(const uint32 addr_table[], const cy_cfg_addrvalue_t data_table[])
 173:Generated_Source\PSoC4/cyfitter_cfg.c **** {
  27              		.loc 1 173 0
  28              		.cfi_startproc
  29              		@ args = 0, pretend = 0, frame = 0
  30              		@ frame_needed = 0, uses_anonymous_args = 0
  31              	.LVL0:
  32 0000 F0B5     		push	{r4, r5, r6, r7, lr}
  33              		.cfi_def_cfa_offset 20
  34              		.cfi_offset 4, -20
  35              		.cfi_offset 5, -16
  36              		.cfi_offset 6, -12
  37              		.cfi_offset 7, -8
  38              		.cfi_offset 14, -4
  39              	.LVL1:
 174:Generated_Source\PSoC4/cyfitter_cfg.c **** 	/* For 32-bit little-endian architectures */
 175:Generated_Source\PSoC4/cyfitter_cfg.c **** 	uint32 i, j = 0u;
  40              		.loc 1 175 0
  41 0002 0025     		movs	r5, #0
 176:Generated_Source\PSoC4/cyfitter_cfg.c **** 	for (i = 0u; i < CY_CFG_BASE_ADDR_COUNT; i++)
  42              		.loc 1 176 0
  43 0004 0027     		movs	r7, #0
  44 0006 11E0     		b	.L2
  45              	.LVL2:
  46              	.L5:
  47              	.LBB2:
 177:Generated_Source\PSoC4/cyfitter_cfg.c **** 	{
 178:Generated_Source\PSoC4/cyfitter_cfg.c **** 		uint32 baseAddr = addr_table[i];
  48              		.loc 1 178 0
  49 0008 BB00     		lsls	r3, r7, #2
  50 000a C658     		ldr	r6, [r0, r3]
ARM GAS  C:\Users\PRICHA~1\AppData\Local\Temp\cc26uNke.s 			page 5


  51              	.LVL3:
 179:Generated_Source\PSoC4/cyfitter_cfg.c **** 		uint8 count = (uint8)baseAddr;
  52              		.loc 1 179 0
  53 000c F3B2     		uxtb	r3, r6
  54              	.LVL4:
 180:Generated_Source\PSoC4/cyfitter_cfg.c **** 		baseAddr &= 0xFFFFFF00u;
  55              		.loc 1 180 0
  56 000e FF22     		movs	r2, #255
  57 0010 9643     		bics	r6, r2
  58              	.LVL5:
 181:Generated_Source\PSoC4/cyfitter_cfg.c **** 		while (count != 0u)
  59              		.loc 1 181 0
  60 0012 08E0     		b	.L3
  61              	.L4:
 182:Generated_Source\PSoC4/cyfitter_cfg.c **** 		{
 183:Generated_Source\PSoC4/cyfitter_cfg.c **** 			CY_SET_REG8((void *)(baseAddr + data_table[j].offset), data_table[j].value);
  62              		.loc 1 183 0
  63 0014 6A00     		lsls	r2, r5, #1
  64 0016 8A18     		adds	r2, r1, r2
  65 0018 1478     		ldrb	r4, [r2]
  66 001a A419     		adds	r4, r4, r6
  67 001c 5278     		ldrb	r2, [r2, #1]
  68 001e 2270     		strb	r2, [r4]
 184:Generated_Source\PSoC4/cyfitter_cfg.c **** 			j++;
  69              		.loc 1 184 0
  70 0020 0135     		adds	r5, r5, #1
  71              	.LVL6:
 185:Generated_Source\PSoC4/cyfitter_cfg.c **** 			count--;
  72              		.loc 1 185 0
  73 0022 013B     		subs	r3, r3, #1
  74              	.LVL7:
  75 0024 DBB2     		uxtb	r3, r3
  76              	.LVL8:
  77              	.L3:
 181:Generated_Source\PSoC4/cyfitter_cfg.c **** 		{
  78              		.loc 1 181 0
  79 0026 002B     		cmp	r3, #0
  80 0028 F4D1     		bne	.L4
  81              	.LBE2:
 176:Generated_Source\PSoC4/cyfitter_cfg.c **** 	{
  82              		.loc 1 176 0 discriminator 2
  83 002a 0137     		adds	r7, r7, #1
  84              	.LVL9:
  85              	.L2:
 176:Generated_Source\PSoC4/cyfitter_cfg.c **** 	{
  86              		.loc 1 176 0 is_stmt 0 discriminator 1
  87 002c 092F     		cmp	r7, #9
  88 002e EBD9     		bls	.L5
 186:Generated_Source\PSoC4/cyfitter_cfg.c **** 		}
 187:Generated_Source\PSoC4/cyfitter_cfg.c **** 	}
 188:Generated_Source\PSoC4/cyfitter_cfg.c **** }
  89              		.loc 1 188 0 is_stmt 1
  90              		@ sp needed
  91              	.LVL10:
  92              	.LVL11:
  93 0030 F0BD     		pop	{r4, r5, r6, r7, pc}
  94              		.cfi_endproc
ARM GAS  C:\Users\PRICHA~1\AppData\Local\Temp\cc26uNke.s 			page 6


  95              	.LFE3:
  96              		.size	cfg_write_bytes32, .-cfg_write_bytes32
  97 0032 C046     		.section	.text.CYMEMZERO,"ax",%progbits
  98              		.align	2
  99              		.code	16
 100              		.thumb_func
 101              		.type	CYMEMZERO, %function
 102              	CYMEMZERO:
 103              	.LFB0:
  75:Generated_Source\PSoC4/cyfitter_cfg.c **** 	(void)memset(s, 0, n);
 104              		.loc 1 75 0
 105              		.cfi_startproc
 106              		@ args = 0, pretend = 0, frame = 0
 107              		@ frame_needed = 0, uses_anonymous_args = 0
 108              	.LVL12:
 109 0000 10B5     		push	{r4, lr}
 110              		.cfi_def_cfa_offset 8
 111              		.cfi_offset 4, -8
 112              		.cfi_offset 14, -4
 113 0002 0A00     		movs	r2, r1
  76:Generated_Source\PSoC4/cyfitter_cfg.c **** }
 114              		.loc 1 76 0
 115 0004 0021     		movs	r1, #0
 116              	.LVL13:
 117 0006 FFF7FEFF 		bl	memset
 118              	.LVL14:
  77:Generated_Source\PSoC4/cyfitter_cfg.c **** CY_CFG_UNUSED
 119              		.loc 1 77 0
 120              		@ sp needed
 121 000a 10BD     		pop	{r4, pc}
 122              		.cfi_endproc
 123              	.LFE0:
 124              		.size	CYMEMZERO, .-CYMEMZERO
 125              		.section	.text.CYCONFIGCPYCODE,"ax",%progbits
 126              		.align	2
 127              		.code	16
 128              		.thumb_func
 129              		.type	CYCONFIGCPYCODE, %function
 130              	CYCONFIGCPYCODE:
 131              	.LFB2:
  89:Generated_Source\PSoC4/cyfitter_cfg.c **** 	(void)memcpy(dest, src, n);
 132              		.loc 1 89 0
 133              		.cfi_startproc
 134              		@ args = 0, pretend = 0, frame = 0
 135              		@ frame_needed = 0, uses_anonymous_args = 0
 136              	.LVL15:
 137 0000 10B5     		push	{r4, lr}
 138              		.cfi_def_cfa_offset 8
 139              		.cfi_offset 4, -8
 140              		.cfi_offset 14, -4
  90:Generated_Source\PSoC4/cyfitter_cfg.c **** }
 141              		.loc 1 90 0
 142 0002 FFF7FEFF 		bl	memcpy
 143              	.LVL16:
  91:Generated_Source\PSoC4/cyfitter_cfg.c **** 
 144              		.loc 1 91 0
 145              		@ sp needed
ARM GAS  C:\Users\PRICHA~1\AppData\Local\Temp\cc26uNke.s 			page 7


 146 0006 10BD     		pop	{r4, pc}
 147              		.cfi_endproc
 148              	.LFE2:
 149              		.size	CYCONFIGCPYCODE, .-CYCONFIGCPYCODE
 150              		.section	.psocinit,"ax",%progbits
 151              		.align	2
 152              		.code	16
 153              		.thumb_func
 154              		.type	ClockSetup, %function
 155              	ClockSetup:
 156              	.LFB4:
 189:Generated_Source\PSoC4/cyfitter_cfg.c **** 
 190:Generated_Source\PSoC4/cyfitter_cfg.c **** 
 191:Generated_Source\PSoC4/cyfitter_cfg.c **** /*******************************************************************************
 192:Generated_Source\PSoC4/cyfitter_cfg.c **** * Function Name: ClockSetup
 193:Generated_Source\PSoC4/cyfitter_cfg.c **** ********************************************************************************
 194:Generated_Source\PSoC4/cyfitter_cfg.c **** *
 195:Generated_Source\PSoC4/cyfitter_cfg.c **** * Summary:
 196:Generated_Source\PSoC4/cyfitter_cfg.c **** *   Performs the initialization of all of the clocks in the device based on the
 197:Generated_Source\PSoC4/cyfitter_cfg.c **** *   settings in the Clock tab of the DWR.  This includes enabling the requested
 198:Generated_Source\PSoC4/cyfitter_cfg.c **** *   clocks and setting the necessary dividers to produce the desired frequency. 
 199:Generated_Source\PSoC4/cyfitter_cfg.c **** *
 200:Generated_Source\PSoC4/cyfitter_cfg.c **** * Parameters:
 201:Generated_Source\PSoC4/cyfitter_cfg.c **** *   void
 202:Generated_Source\PSoC4/cyfitter_cfg.c **** *
 203:Generated_Source\PSoC4/cyfitter_cfg.c **** * Return:
 204:Generated_Source\PSoC4/cyfitter_cfg.c **** *   void
 205:Generated_Source\PSoC4/cyfitter_cfg.c **** *
 206:Generated_Source\PSoC4/cyfitter_cfg.c **** *******************************************************************************/
 207:Generated_Source\PSoC4/cyfitter_cfg.c **** static void ClockSetup(void);
 208:Generated_Source\PSoC4/cyfitter_cfg.c **** CY_CFG_SECTION
 209:Generated_Source\PSoC4/cyfitter_cfg.c **** static void ClockSetup(void)
 210:Generated_Source\PSoC4/cyfitter_cfg.c **** {
 157              		.loc 1 210 0
 158              		.cfi_startproc
 159              		@ args = 0, pretend = 0, frame = 0
 160              		@ frame_needed = 0, uses_anonymous_args = 0
 161 0000 70B5     		push	{r4, r5, r6, lr}
 162              		.cfi_def_cfa_offset 16
 163              		.cfi_offset 4, -16
 164              		.cfi_offset 5, -12
 165              		.cfi_offset 6, -8
 166              		.cfi_offset 14, -4
 211:Generated_Source\PSoC4/cyfitter_cfg.c **** 	/* Enable HALF_EN before trimming for the flash accelerator. */
 212:Generated_Source\PSoC4/cyfitter_cfg.c **** 	CY_SET_REG32((void CYXDATA *)(CYREG_CLK_SELECT), (CY_GET_REG32((void *)CYREG_CLK_SELECT) | 0x00040
 167              		.loc 1 212 0
 168 0002 144C     		ldr	r4, .L9
 169 0004 2368     		ldr	r3, [r4]
 170 0006 8025     		movs	r5, #128
 171 0008 ED02     		lsls	r5, r5, #11
 172 000a 2B43     		orrs	r3, r5
 173 000c 2360     		str	r3, [r4]
 213:Generated_Source\PSoC4/cyfitter_cfg.c **** 
 214:Generated_Source\PSoC4/cyfitter_cfg.c **** 	/* Setup and trim IMO based on desired frequency. */
 215:Generated_Source\PSoC4/cyfitter_cfg.c **** 	CySysClkWriteImoFreq(48u);
 174              		.loc 1 215 0
 175 000e 3020     		movs	r0, #48
ARM GAS  C:\Users\PRICHA~1\AppData\Local\Temp\cc26uNke.s 			page 8


 176 0010 FFF7FEFF 		bl	CySysClkWriteImoFreq
 177              	.LVL17:
 216:Generated_Source\PSoC4/cyfitter_cfg.c **** 	/* CYDEV_CLK_ILO_CONFIG Starting address: CYDEV_CLK_ILO_CONFIG */
 217:Generated_Source\PSoC4/cyfitter_cfg.c **** 	CY_SET_REG32((void *)(CYREG_CLK_ILO_CONFIG), 0x80000006u);
 178              		.loc 1 217 0
 179 0014 104A     		ldr	r2, .L9+4
 180 0016 114B     		ldr	r3, .L9+8
 181 0018 1A60     		str	r2, [r3]
 218:Generated_Source\PSoC4/cyfitter_cfg.c **** 
 219:Generated_Source\PSoC4/cyfitter_cfg.c **** 
 220:Generated_Source\PSoC4/cyfitter_cfg.c **** 	/* CYDEV_CLK_SELECT00 Starting address: CYDEV_CLK_SELECT00 */
 221:Generated_Source\PSoC4/cyfitter_cfg.c **** 	CY_SET_REG32((void *)(CYREG_CLK_SELECT02), 0x00000030u);
 182              		.loc 1 221 0
 183 001a 3022     		movs	r2, #48
 184 001c 104B     		ldr	r3, .L9+12
 185 001e 1A60     		str	r2, [r3]
 222:Generated_Source\PSoC4/cyfitter_cfg.c **** 	CY_SET_REG32((void *)(CYREG_CLK_SELECT03), 0x00000010u);
 186              		.loc 1 222 0
 187 0020 203A     		subs	r2, r2, #32
 188 0022 104B     		ldr	r3, .L9+16
 189 0024 1A60     		str	r2, [r3]
 223:Generated_Source\PSoC4/cyfitter_cfg.c **** 	CY_SET_REG32((void *)(CYREG_CLK_SELECT10), 0x00000020u);
 190              		.loc 1 223 0
 191 0026 2023     		movs	r3, #32
 192 0028 0F4A     		ldr	r2, .L9+20
 193 002a 1360     		str	r3, [r2]
 224:Generated_Source\PSoC4/cyfitter_cfg.c **** 	CY_SET_REG32((void *)(CYREG_CLK_SELECT12), 0x00000020u);
 194              		.loc 1 224 0
 195 002c 0F4A     		ldr	r2, .L9+24
 196 002e 1360     		str	r3, [r2]
 225:Generated_Source\PSoC4/cyfitter_cfg.c **** 
 226:Generated_Source\PSoC4/cyfitter_cfg.c **** 	/* CYDEV_CLK_IMO_CONFIG Starting address: CYDEV_CLK_IMO_CONFIG */
 227:Generated_Source\PSoC4/cyfitter_cfg.c **** 	CY_SET_REG32((void *)(CYREG_CLK_IMO_CONFIG), 0x80000000u);
 197              		.loc 1 227 0
 198 0030 8023     		movs	r3, #128
 199 0032 1B06     		lsls	r3, r3, #24
 200 0034 0E4A     		ldr	r2, .L9+28
 201 0036 1360     		str	r3, [r2]
 228:Generated_Source\PSoC4/cyfitter_cfg.c **** 
 229:Generated_Source\PSoC4/cyfitter_cfg.c **** 	/* CYDEV_CLK_SELECT Starting address: CYDEV_CLK_SELECT */
 230:Generated_Source\PSoC4/cyfitter_cfg.c **** 	CY_SET_REG32((void *)(CYREG_CLK_SELECT), 0x00040000u);
 202              		.loc 1 230 0
 203 0038 2560     		str	r5, [r4]
 231:Generated_Source\PSoC4/cyfitter_cfg.c **** 
 232:Generated_Source\PSoC4/cyfitter_cfg.c **** 	/* CYDEV_CLK_DIVIDER_A00 Starting address: CYDEV_CLK_DIVIDER_A00 */
 233:Generated_Source\PSoC4/cyfitter_cfg.c **** 	CY_SET_REG32((void *)(CYREG_CLK_DIVIDER_A00), 0x80000000u);
 204              		.loc 1 233 0
 205 003a 0E4A     		ldr	r2, .L9+32
 206 003c 1360     		str	r3, [r2]
 234:Generated_Source\PSoC4/cyfitter_cfg.c **** 
 235:Generated_Source\PSoC4/cyfitter_cfg.c **** 	/* CYDEV_CLK_DIVIDER_B00 Starting address: CYDEV_CLK_DIVIDER_B00 */
 236:Generated_Source\PSoC4/cyfitter_cfg.c **** 	CY_SET_REG32((void *)(CYREG_CLK_DIVIDER_B00), 0x80000001u);
 207              		.loc 1 236 0
 208 003e 0E4A     		ldr	r2, .L9+36
 209 0040 0E4B     		ldr	r3, .L9+40
 210 0042 1A60     		str	r2, [r3]
 237:Generated_Source\PSoC4/cyfitter_cfg.c **** 
ARM GAS  C:\Users\PRICHA~1\AppData\Local\Temp\cc26uNke.s 			page 9


 238:Generated_Source\PSoC4/cyfitter_cfg.c **** 	/* CYDEV_CLK_DIVIDER_C00 Starting address: CYDEV_CLK_DIVIDER_C00 */
 239:Generated_Source\PSoC4/cyfitter_cfg.c **** 	CY_SET_REG32((void *)(CYREG_CLK_DIVIDER_C00), 0x8000001Du);
 211              		.loc 1 239 0
 212 0044 0E4A     		ldr	r2, .L9+44
 213 0046 0F4B     		ldr	r3, .L9+48
 214 0048 1A60     		str	r2, [r3]
 240:Generated_Source\PSoC4/cyfitter_cfg.c **** 
 241:Generated_Source\PSoC4/cyfitter_cfg.c **** 	CY_SET_REG32((void *)(CYREG_WDT_CONFIG), 0x00000000u);
 215              		.loc 1 241 0
 216 004a 0022     		movs	r2, #0
 217 004c 0E4B     		ldr	r3, .L9+52
 218 004e 1A60     		str	r2, [r3]
 242:Generated_Source\PSoC4/cyfitter_cfg.c **** }
 219              		.loc 1 242 0
 220              		@ sp needed
 221 0050 70BD     		pop	{r4, r5, r6, pc}
 222              	.L10:
 223 0052 C046     		.align	2
 224              	.L9:
 225 0054 00010B40 		.word	1074462976
 226 0058 06000080 		.word	-2147483642
 227 005c 04010B40 		.word	1074462980
 228 0060 08020240 		.word	1073873416
 229 0064 0C020240 		.word	1073873420
 230 0068 28020240 		.word	1073873448
 231 006c 30020240 		.word	1073873456
 232 0070 08010B40 		.word	1074462984
 233 0074 00000240 		.word	1073872896
 234 0078 01000080 		.word	-2147483647
 235 007c 40000240 		.word	1073872960
 236 0080 1D000080 		.word	-2147483619
 237 0084 80000240 		.word	1073873024
 238 0088 0C020B40 		.word	1074463244
 239              		.cfi_endproc
 240              	.LFE4:
 241              		.size	ClockSetup, .-ClockSetup
 242              		.align	2
 243              		.global	cyfitter_cfg
 244              		.code	16
 245              		.thumb_func
 246              		.type	cyfitter_cfg, %function
 247              	cyfitter_cfg:
 248              	.LFB6:
 243:Generated_Source\PSoC4/cyfitter_cfg.c **** 
 244:Generated_Source\PSoC4/cyfitter_cfg.c **** 
 245:Generated_Source\PSoC4/cyfitter_cfg.c **** /* Analog API Functions */
 246:Generated_Source\PSoC4/cyfitter_cfg.c **** 
 247:Generated_Source\PSoC4/cyfitter_cfg.c **** 
 248:Generated_Source\PSoC4/cyfitter_cfg.c **** /*******************************************************************************
 249:Generated_Source\PSoC4/cyfitter_cfg.c **** * Function Name: AnalogSetDefault
 250:Generated_Source\PSoC4/cyfitter_cfg.c **** ********************************************************************************
 251:Generated_Source\PSoC4/cyfitter_cfg.c **** *
 252:Generated_Source\PSoC4/cyfitter_cfg.c **** * Summary:
 253:Generated_Source\PSoC4/cyfitter_cfg.c **** *  Sets up the analog portions of the chip to default values based on chip
 254:Generated_Source\PSoC4/cyfitter_cfg.c **** *  configuration options from the project.
 255:Generated_Source\PSoC4/cyfitter_cfg.c **** *
 256:Generated_Source\PSoC4/cyfitter_cfg.c **** * Parameters:
ARM GAS  C:\Users\PRICHA~1\AppData\Local\Temp\cc26uNke.s 			page 10


 257:Generated_Source\PSoC4/cyfitter_cfg.c **** *  void
 258:Generated_Source\PSoC4/cyfitter_cfg.c **** *
 259:Generated_Source\PSoC4/cyfitter_cfg.c **** * Return:
 260:Generated_Source\PSoC4/cyfitter_cfg.c **** *  void
 261:Generated_Source\PSoC4/cyfitter_cfg.c **** *
 262:Generated_Source\PSoC4/cyfitter_cfg.c **** *******************************************************************************/
 263:Generated_Source\PSoC4/cyfitter_cfg.c **** static void AnalogSetDefault(void);
 264:Generated_Source\PSoC4/cyfitter_cfg.c **** static void AnalogSetDefault(void)
 265:Generated_Source\PSoC4/cyfitter_cfg.c **** {
 266:Generated_Source\PSoC4/cyfitter_cfg.c **** }
 267:Generated_Source\PSoC4/cyfitter_cfg.c **** 
 268:Generated_Source\PSoC4/cyfitter_cfg.c **** 
 269:Generated_Source\PSoC4/cyfitter_cfg.c **** 
 270:Generated_Source\PSoC4/cyfitter_cfg.c **** 
 271:Generated_Source\PSoC4/cyfitter_cfg.c **** /*******************************************************************************
 272:Generated_Source\PSoC4/cyfitter_cfg.c **** * Function Name: cyfitter_cfg
 273:Generated_Source\PSoC4/cyfitter_cfg.c **** ********************************************************************************
 274:Generated_Source\PSoC4/cyfitter_cfg.c **** * Summary:
 275:Generated_Source\PSoC4/cyfitter_cfg.c **** *  This function is called by the start-up code for the selected device. It
 276:Generated_Source\PSoC4/cyfitter_cfg.c **** *  performs all of the necessary device configuration based on the design
 277:Generated_Source\PSoC4/cyfitter_cfg.c **** *  settings.  This includes settings from the Design Wide Resources (DWR) such
 278:Generated_Source\PSoC4/cyfitter_cfg.c **** *  as Clocks and Pins as well as any component configuration that is necessary.
 279:Generated_Source\PSoC4/cyfitter_cfg.c **** *
 280:Generated_Source\PSoC4/cyfitter_cfg.c **** * Parameters:
 281:Generated_Source\PSoC4/cyfitter_cfg.c **** *   void
 282:Generated_Source\PSoC4/cyfitter_cfg.c **** *
 283:Generated_Source\PSoC4/cyfitter_cfg.c **** * Return:
 284:Generated_Source\PSoC4/cyfitter_cfg.c **** *   void
 285:Generated_Source\PSoC4/cyfitter_cfg.c **** *
 286:Generated_Source\PSoC4/cyfitter_cfg.c **** *******************************************************************************/
 287:Generated_Source\PSoC4/cyfitter_cfg.c **** CY_CFG_SECTION
 288:Generated_Source\PSoC4/cyfitter_cfg.c **** void cyfitter_cfg(void)
 289:Generated_Source\PSoC4/cyfitter_cfg.c **** {
 249              		.loc 1 289 0
 250              		.cfi_startproc
 251              		@ args = 0, pretend = 0, frame = 0
 252              		@ frame_needed = 0, uses_anonymous_args = 0
 253 008c 70B5     		push	{r4, r5, r6, lr}
 254              		.cfi_def_cfa_offset 16
 255              		.cfi_offset 4, -16
 256              		.cfi_offset 5, -12
 257              		.cfi_offset 6, -8
 258              		.cfi_offset 14, -4
 290:Generated_Source\PSoC4/cyfitter_cfg.c **** 	/* Disable interrupts by default. Let user enable if/when they want. */
 291:Generated_Source\PSoC4/cyfitter_cfg.c **** 	CyGlobalIntDisable;
 259              		.loc 1 291 0
 260              		.syntax divided
 261              	@ 291 "Generated_Source\PSoC4\cyfitter_cfg.c" 1
 262 008e 72B6     		CPSID   i
 263              	@ 0 "" 2
 292:Generated_Source\PSoC4/cyfitter_cfg.c **** 
 293:Generated_Source\PSoC4/cyfitter_cfg.c **** 	/* Enable the clock in the interrupt controller for the routed interrupts */
 294:Generated_Source\PSoC4/cyfitter_cfg.c **** 	CY_SET_REG8((void *)CYREG_UDB_UDBIF_INT_CLK_CTL, 0x01u);
 264              		.loc 1 294 0
 265              		.thumb
 266              		.syntax unified
 267 0090 0122     		movs	r2, #1
ARM GAS  C:\Users\PRICHA~1\AppData\Local\Temp\cc26uNke.s 			page 11


 268 0092 444B     		ldr	r3, .L16
 269 0094 1A70     		strb	r2, [r3]
 270              	.LVL18:
 271              	.LBB3:
 295:Generated_Source\PSoC4/cyfitter_cfg.c **** 	{
 296:Generated_Source\PSoC4/cyfitter_cfg.c **** 		static const uint32 CYCODE cy_cfg_addr_table[] = {
 297:Generated_Source\PSoC4/cyfitter_cfg.c **** 			0x400F0001u, /* Base address: 0x400F0000 Count: 1 */
 298:Generated_Source\PSoC4/cyfitter_cfg.c **** 			0x400F3058u, /* Base address: 0x400F3000 Count: 88 */
 299:Generated_Source\PSoC4/cyfitter_cfg.c **** 			0x400F312Cu, /* Base address: 0x400F3100 Count: 44 */
 300:Generated_Source\PSoC4/cyfitter_cfg.c **** 			0x400F3204u, /* Base address: 0x400F3200 Count: 4 */
 301:Generated_Source\PSoC4/cyfitter_cfg.c **** 			0x400F3335u, /* Base address: 0x400F3300 Count: 53 */
 302:Generated_Source\PSoC4/cyfitter_cfg.c **** 			0x400F4009u, /* Base address: 0x400F4000 Count: 9 */
 303:Generated_Source\PSoC4/cyfitter_cfg.c **** 			0x400F4108u, /* Base address: 0x400F4100 Count: 8 */
 304:Generated_Source\PSoC4/cyfitter_cfg.c **** 			0x400F4206u, /* Base address: 0x400F4200 Count: 6 */
 305:Generated_Source\PSoC4/cyfitter_cfg.c **** 			0x400F4307u, /* Base address: 0x400F4300 Count: 7 */
 306:Generated_Source\PSoC4/cyfitter_cfg.c **** 			0x400F6002u, /* Base address: 0x400F6000 Count: 2 */
 307:Generated_Source\PSoC4/cyfitter_cfg.c **** 		};
 308:Generated_Source\PSoC4/cyfitter_cfg.c **** 
 309:Generated_Source\PSoC4/cyfitter_cfg.c **** 		static const cy_cfg_addrvalue_t CYCODE cy_cfg_data_table[] = {
 310:Generated_Source\PSoC4/cyfitter_cfg.c **** 			{0x82u, 0x6Fu},
 311:Generated_Source\PSoC4/cyfitter_cfg.c **** 			{0x04u, 0x55u},
 312:Generated_Source\PSoC4/cyfitter_cfg.c **** 			{0x05u, 0x55u},
 313:Generated_Source\PSoC4/cyfitter_cfg.c **** 			{0x06u, 0xAAu},
 314:Generated_Source\PSoC4/cyfitter_cfg.c **** 			{0x07u, 0xAAu},
 315:Generated_Source\PSoC4/cyfitter_cfg.c **** 			{0x0Du, 0x96u},
 316:Generated_Source\PSoC4/cyfitter_cfg.c **** 			{0x0Fu, 0x69u},
 317:Generated_Source\PSoC4/cyfitter_cfg.c **** 			{0x10u, 0x96u},
 318:Generated_Source\PSoC4/cyfitter_cfg.c **** 			{0x12u, 0x69u},
 319:Generated_Source\PSoC4/cyfitter_cfg.c **** 			{0x13u, 0xFFu},
 320:Generated_Source\PSoC4/cyfitter_cfg.c **** 			{0x15u, 0x33u},
 321:Generated_Source\PSoC4/cyfitter_cfg.c **** 			{0x17u, 0xCCu},
 322:Generated_Source\PSoC4/cyfitter_cfg.c **** 			{0x18u, 0x0Fu},
 323:Generated_Source\PSoC4/cyfitter_cfg.c **** 			{0x19u, 0x0Fu},
 324:Generated_Source\PSoC4/cyfitter_cfg.c **** 			{0x1Au, 0xF0u},
 325:Generated_Source\PSoC4/cyfitter_cfg.c **** 			{0x1Bu, 0xF0u},
 326:Generated_Source\PSoC4/cyfitter_cfg.c **** 			{0x25u, 0xFFu},
 327:Generated_Source\PSoC4/cyfitter_cfg.c **** 			{0x28u, 0x33u},
 328:Generated_Source\PSoC4/cyfitter_cfg.c **** 			{0x2Au, 0xCCu},
 329:Generated_Source\PSoC4/cyfitter_cfg.c **** 			{0x32u, 0xFFu},
 330:Generated_Source\PSoC4/cyfitter_cfg.c **** 			{0x37u, 0xFFu},
 331:Generated_Source\PSoC4/cyfitter_cfg.c **** 			{0x3Fu, 0x40u},
 332:Generated_Source\PSoC4/cyfitter_cfg.c **** 			{0x40u, 0x10u},
 333:Generated_Source\PSoC4/cyfitter_cfg.c **** 			{0x41u, 0x03u},
 334:Generated_Source\PSoC4/cyfitter_cfg.c **** 			{0x49u, 0xFFu},
 335:Generated_Source\PSoC4/cyfitter_cfg.c **** 			{0x4Au, 0xFFu},
 336:Generated_Source\PSoC4/cyfitter_cfg.c **** 			{0x4Bu, 0xFFu},
 337:Generated_Source\PSoC4/cyfitter_cfg.c **** 			{0x4Du, 0xA0u},
 338:Generated_Source\PSoC4/cyfitter_cfg.c **** 			{0x4Fu, 0x01u},
 339:Generated_Source\PSoC4/cyfitter_cfg.c **** 			{0x50u, 0x18u},
 340:Generated_Source\PSoC4/cyfitter_cfg.c **** 			{0x58u, 0x04u},
 341:Generated_Source\PSoC4/cyfitter_cfg.c **** 			{0x59u, 0x04u},
 342:Generated_Source\PSoC4/cyfitter_cfg.c **** 			{0x5Au, 0x04u},
 343:Generated_Source\PSoC4/cyfitter_cfg.c **** 			{0x5Fu, 0x01u},
 344:Generated_Source\PSoC4/cyfitter_cfg.c **** 			{0x60u, 0x40u},
 345:Generated_Source\PSoC4/cyfitter_cfg.c **** 			{0x62u, 0x80u},
 346:Generated_Source\PSoC4/cyfitter_cfg.c **** 			{0x64u, 0x40u},
 347:Generated_Source\PSoC4/cyfitter_cfg.c **** 			{0x65u, 0x40u},
ARM GAS  C:\Users\PRICHA~1\AppData\Local\Temp\cc26uNke.s 			page 12


 348:Generated_Source\PSoC4/cyfitter_cfg.c **** 			{0x66u, 0x80u},
 349:Generated_Source\PSoC4/cyfitter_cfg.c **** 			{0x68u, 0x40u},
 350:Generated_Source\PSoC4/cyfitter_cfg.c **** 			{0x6Au, 0x80u},
 351:Generated_Source\PSoC4/cyfitter_cfg.c **** 			{0x6Cu, 0x40u},
 352:Generated_Source\PSoC4/cyfitter_cfg.c **** 			{0x6Du, 0x20u},
 353:Generated_Source\PSoC4/cyfitter_cfg.c **** 			{0x6Eu, 0x80u},
 354:Generated_Source\PSoC4/cyfitter_cfg.c **** 			{0x82u, 0x08u},
 355:Generated_Source\PSoC4/cyfitter_cfg.c **** 			{0x86u, 0x04u},
 356:Generated_Source\PSoC4/cyfitter_cfg.c **** 			{0x8Au, 0x18u},
 357:Generated_Source\PSoC4/cyfitter_cfg.c **** 			{0x8Bu, 0x02u},
 358:Generated_Source\PSoC4/cyfitter_cfg.c **** 			{0x8Eu, 0x10u},
 359:Generated_Source\PSoC4/cyfitter_cfg.c **** 			{0x8Fu, 0x04u},
 360:Generated_Source\PSoC4/cyfitter_cfg.c **** 			{0x98u, 0x01u},
 361:Generated_Source\PSoC4/cyfitter_cfg.c **** 			{0x9Au, 0x22u},
 362:Generated_Source\PSoC4/cyfitter_cfg.c **** 			{0x9Cu, 0x02u},
 363:Generated_Source\PSoC4/cyfitter_cfg.c **** 			{0x9Eu, 0x01u},
 364:Generated_Source\PSoC4/cyfitter_cfg.c **** 			{0x9Fu, 0x01u},
 365:Generated_Source\PSoC4/cyfitter_cfg.c **** 			{0xABu, 0x04u},
 366:Generated_Source\PSoC4/cyfitter_cfg.c **** 			{0xB0u, 0x18u},
 367:Generated_Source\PSoC4/cyfitter_cfg.c **** 			{0xB1u, 0x04u},
 368:Generated_Source\PSoC4/cyfitter_cfg.c **** 			{0xB2u, 0x03u},
 369:Generated_Source\PSoC4/cyfitter_cfg.c **** 			{0xB3u, 0x02u},
 370:Generated_Source\PSoC4/cyfitter_cfg.c **** 			{0xB4u, 0x20u},
 371:Generated_Source\PSoC4/cyfitter_cfg.c **** 			{0xB5u, 0x01u},
 372:Generated_Source\PSoC4/cyfitter_cfg.c **** 			{0xB6u, 0x04u},
 373:Generated_Source\PSoC4/cyfitter_cfg.c **** 			{0xBEu, 0x04u},
 374:Generated_Source\PSoC4/cyfitter_cfg.c **** 			{0xC0u, 0x40u},
 375:Generated_Source\PSoC4/cyfitter_cfg.c **** 			{0xC1u, 0x03u},
 376:Generated_Source\PSoC4/cyfitter_cfg.c **** 			{0xC9u, 0xFFu},
 377:Generated_Source\PSoC4/cyfitter_cfg.c **** 			{0xCAu, 0xFFu},
 378:Generated_Source\PSoC4/cyfitter_cfg.c **** 			{0xCBu, 0xFFu},
 379:Generated_Source\PSoC4/cyfitter_cfg.c **** 			{0xCDu, 0xAFu},
 380:Generated_Source\PSoC4/cyfitter_cfg.c **** 			{0xCEu, 0x07u},
 381:Generated_Source\PSoC4/cyfitter_cfg.c **** 			{0xCFu, 0x01u},
 382:Generated_Source\PSoC4/cyfitter_cfg.c **** 			{0xD0u, 0x18u},
 383:Generated_Source\PSoC4/cyfitter_cfg.c **** 			{0xD2u, 0x87u},
 384:Generated_Source\PSoC4/cyfitter_cfg.c **** 			{0xD8u, 0x04u},
 385:Generated_Source\PSoC4/cyfitter_cfg.c **** 			{0xD9u, 0x04u},
 386:Generated_Source\PSoC4/cyfitter_cfg.c **** 			{0xDAu, 0x04u},
 387:Generated_Source\PSoC4/cyfitter_cfg.c **** 			{0xDBu, 0x04u},
 388:Generated_Source\PSoC4/cyfitter_cfg.c **** 			{0xDFu, 0x01u},
 389:Generated_Source\PSoC4/cyfitter_cfg.c **** 			{0xE0u, 0x40u},
 390:Generated_Source\PSoC4/cyfitter_cfg.c **** 			{0xE2u, 0x80u},
 391:Generated_Source\PSoC4/cyfitter_cfg.c **** 			{0xE4u, 0x40u},
 392:Generated_Source\PSoC4/cyfitter_cfg.c **** 			{0xE5u, 0x40u},
 393:Generated_Source\PSoC4/cyfitter_cfg.c **** 			{0xE6u, 0x80u},
 394:Generated_Source\PSoC4/cyfitter_cfg.c **** 			{0xE8u, 0x40u},
 395:Generated_Source\PSoC4/cyfitter_cfg.c **** 			{0xEAu, 0x80u},
 396:Generated_Source\PSoC4/cyfitter_cfg.c **** 			{0xECu, 0x40u},
 397:Generated_Source\PSoC4/cyfitter_cfg.c **** 			{0xEDu, 0x20u},
 398:Generated_Source\PSoC4/cyfitter_cfg.c **** 			{0xEEu, 0x80u},
 399:Generated_Source\PSoC4/cyfitter_cfg.c **** 			{0x00u, 0x04u},
 400:Generated_Source\PSoC4/cyfitter_cfg.c **** 			{0x04u, 0x40u},
 401:Generated_Source\PSoC4/cyfitter_cfg.c **** 			{0x05u, 0x10u},
 402:Generated_Source\PSoC4/cyfitter_cfg.c **** 			{0x06u, 0x80u},
 403:Generated_Source\PSoC4/cyfitter_cfg.c **** 			{0x07u, 0x20u},
 404:Generated_Source\PSoC4/cyfitter_cfg.c **** 			{0x09u, 0x20u},
ARM GAS  C:\Users\PRICHA~1\AppData\Local\Temp\cc26uNke.s 			page 13


 405:Generated_Source\PSoC4/cyfitter_cfg.c **** 			{0x0Bu, 0x80u},
 406:Generated_Source\PSoC4/cyfitter_cfg.c **** 			{0x0Du, 0x20u},
 407:Generated_Source\PSoC4/cyfitter_cfg.c **** 			{0x0Eu, 0x02u},
 408:Generated_Source\PSoC4/cyfitter_cfg.c **** 			{0x13u, 0x20u},
 409:Generated_Source\PSoC4/cyfitter_cfg.c **** 			{0x19u, 0x08u},
 410:Generated_Source\PSoC4/cyfitter_cfg.c **** 			{0x1Cu, 0x54u},
 411:Generated_Source\PSoC4/cyfitter_cfg.c **** 			{0x1Du, 0x0Au},
 412:Generated_Source\PSoC4/cyfitter_cfg.c **** 			{0x1Eu, 0x02u},
 413:Generated_Source\PSoC4/cyfitter_cfg.c **** 			{0x1Fu, 0x40u},
 414:Generated_Source\PSoC4/cyfitter_cfg.c **** 			{0x20u, 0x01u},
 415:Generated_Source\PSoC4/cyfitter_cfg.c **** 			{0x23u, 0x02u},
 416:Generated_Source\PSoC4/cyfitter_cfg.c **** 			{0x25u, 0x20u},
 417:Generated_Source\PSoC4/cyfitter_cfg.c **** 			{0x26u, 0x0Au},
 418:Generated_Source\PSoC4/cyfitter_cfg.c **** 			{0x27u, 0x60u},
 419:Generated_Source\PSoC4/cyfitter_cfg.c **** 			{0x29u, 0x08u},
 420:Generated_Source\PSoC4/cyfitter_cfg.c **** 			{0x2Fu, 0x04u},
 421:Generated_Source\PSoC4/cyfitter_cfg.c **** 			{0x30u, 0x02u},
 422:Generated_Source\PSoC4/cyfitter_cfg.c **** 			{0x31u, 0x20u},
 423:Generated_Source\PSoC4/cyfitter_cfg.c **** 			{0x32u, 0x08u},
 424:Generated_Source\PSoC4/cyfitter_cfg.c **** 			{0x37u, 0x40u},
 425:Generated_Source\PSoC4/cyfitter_cfg.c **** 			{0x38u, 0x04u},
 426:Generated_Source\PSoC4/cyfitter_cfg.c **** 			{0x3Bu, 0x80u},
 427:Generated_Source\PSoC4/cyfitter_cfg.c **** 			{0x3Cu, 0x40u},
 428:Generated_Source\PSoC4/cyfitter_cfg.c **** 			{0x3Eu, 0x10u},
 429:Generated_Source\PSoC4/cyfitter_cfg.c **** 			{0x40u, 0x11u},
 430:Generated_Source\PSoC4/cyfitter_cfg.c **** 			{0x45u, 0x08u},
 431:Generated_Source\PSoC4/cyfitter_cfg.c **** 			{0x47u, 0x02u},
 432:Generated_Source\PSoC4/cyfitter_cfg.c **** 			{0x6Cu, 0x01u},
 433:Generated_Source\PSoC4/cyfitter_cfg.c **** 			{0x6Du, 0x04u},
 434:Generated_Source\PSoC4/cyfitter_cfg.c **** 			{0x6Eu, 0x20u},
 435:Generated_Source\PSoC4/cyfitter_cfg.c **** 			{0x74u, 0x02u},
 436:Generated_Source\PSoC4/cyfitter_cfg.c **** 			{0xC0u, 0xF4u},
 437:Generated_Source\PSoC4/cyfitter_cfg.c **** 			{0xC2u, 0xCAu},
 438:Generated_Source\PSoC4/cyfitter_cfg.c **** 			{0xC4u, 0x02u},
 439:Generated_Source\PSoC4/cyfitter_cfg.c **** 			{0xCAu, 0x22u},
 440:Generated_Source\PSoC4/cyfitter_cfg.c **** 			{0xCCu, 0x17u},
 441:Generated_Source\PSoC4/cyfitter_cfg.c **** 			{0xCEu, 0x3Au},
 442:Generated_Source\PSoC4/cyfitter_cfg.c **** 			{0xD0u, 0xCAu},
 443:Generated_Source\PSoC4/cyfitter_cfg.c **** 			{0x96u, 0x01u},
 444:Generated_Source\PSoC4/cyfitter_cfg.c **** 			{0xB6u, 0x01u},
 445:Generated_Source\PSoC4/cyfitter_cfg.c **** 			{0xD8u, 0x08u},
 446:Generated_Source\PSoC4/cyfitter_cfg.c **** 			{0xDFu, 0x01u},
 447:Generated_Source\PSoC4/cyfitter_cfg.c **** 			{0x04u, 0x02u},
 448:Generated_Source\PSoC4/cyfitter_cfg.c **** 			{0x07u, 0x59u},
 449:Generated_Source\PSoC4/cyfitter_cfg.c **** 			{0x0Au, 0x10u},
 450:Generated_Source\PSoC4/cyfitter_cfg.c **** 			{0x0Du, 0x02u},
 451:Generated_Source\PSoC4/cyfitter_cfg.c **** 			{0x0Eu, 0x20u},
 452:Generated_Source\PSoC4/cyfitter_cfg.c **** 			{0x0Fu, 0x06u},
 453:Generated_Source\PSoC4/cyfitter_cfg.c **** 			{0x14u, 0x08u},
 454:Generated_Source\PSoC4/cyfitter_cfg.c **** 			{0x15u, 0x04u},
 455:Generated_Source\PSoC4/cyfitter_cfg.c **** 			{0x16u, 0x82u},
 456:Generated_Source\PSoC4/cyfitter_cfg.c **** 			{0x18u, 0x01u},
 457:Generated_Source\PSoC4/cyfitter_cfg.c **** 			{0x1Eu, 0x5Au},
 458:Generated_Source\PSoC4/cyfitter_cfg.c **** 			{0x27u, 0x19u},
 459:Generated_Source\PSoC4/cyfitter_cfg.c **** 			{0x2Eu, 0x82u},
 460:Generated_Source\PSoC4/cyfitter_cfg.c **** 			{0x35u, 0x08u},
 461:Generated_Source\PSoC4/cyfitter_cfg.c **** 			{0x36u, 0x10u},
ARM GAS  C:\Users\PRICHA~1\AppData\Local\Temp\cc26uNke.s 			page 14


 462:Generated_Source\PSoC4/cyfitter_cfg.c **** 			{0x37u, 0x40u},
 463:Generated_Source\PSoC4/cyfitter_cfg.c **** 			{0x3Du, 0x04u},
 464:Generated_Source\PSoC4/cyfitter_cfg.c **** 			{0x3Fu, 0x02u},
 465:Generated_Source\PSoC4/cyfitter_cfg.c **** 			{0x45u, 0x08u},
 466:Generated_Source\PSoC4/cyfitter_cfg.c **** 			{0x47u, 0x02u},
 467:Generated_Source\PSoC4/cyfitter_cfg.c **** 			{0x4Du, 0x08u},
 468:Generated_Source\PSoC4/cyfitter_cfg.c **** 			{0x4Fu, 0x06u},
 469:Generated_Source\PSoC4/cyfitter_cfg.c **** 			{0x56u, 0x9Au},
 470:Generated_Source\PSoC4/cyfitter_cfg.c **** 			{0x5Eu, 0x4Au},
 471:Generated_Source\PSoC4/cyfitter_cfg.c **** 			{0x5Fu, 0x20u},
 472:Generated_Source\PSoC4/cyfitter_cfg.c **** 			{0x66u, 0x18u},
 473:Generated_Source\PSoC4/cyfitter_cfg.c **** 			{0x7Au, 0x02u},
 474:Generated_Source\PSoC4/cyfitter_cfg.c **** 			{0x82u, 0x80u},
 475:Generated_Source\PSoC4/cyfitter_cfg.c **** 			{0x83u, 0x20u},
 476:Generated_Source\PSoC4/cyfitter_cfg.c **** 			{0x88u, 0x08u},
 477:Generated_Source\PSoC4/cyfitter_cfg.c **** 			{0x8Cu, 0x01u},
 478:Generated_Source\PSoC4/cyfitter_cfg.c **** 			{0x90u, 0x02u},
 479:Generated_Source\PSoC4/cyfitter_cfg.c **** 			{0x91u, 0x04u},
 480:Generated_Source\PSoC4/cyfitter_cfg.c **** 			{0x96u, 0x10u},
 481:Generated_Source\PSoC4/cyfitter_cfg.c **** 			{0x9Bu, 0x02u},
 482:Generated_Source\PSoC4/cyfitter_cfg.c **** 			{0xA1u, 0x0Au},
 483:Generated_Source\PSoC4/cyfitter_cfg.c **** 			{0xA2u, 0x12u},
 484:Generated_Source\PSoC4/cyfitter_cfg.c **** 			{0xAAu, 0x80u},
 485:Generated_Source\PSoC4/cyfitter_cfg.c **** 			{0xAFu, 0x04u},
 486:Generated_Source\PSoC4/cyfitter_cfg.c **** 			{0xB5u, 0x10u},
 487:Generated_Source\PSoC4/cyfitter_cfg.c **** 			{0xC0u, 0xF0u},
 488:Generated_Source\PSoC4/cyfitter_cfg.c **** 			{0xC2u, 0xF4u},
 489:Generated_Source\PSoC4/cyfitter_cfg.c **** 			{0xC4u, 0xF0u},
 490:Generated_Source\PSoC4/cyfitter_cfg.c **** 			{0xCAu, 0x90u},
 491:Generated_Source\PSoC4/cyfitter_cfg.c **** 			{0xCCu, 0x70u},
 492:Generated_Source\PSoC4/cyfitter_cfg.c **** 			{0xCEu, 0xC0u},
 493:Generated_Source\PSoC4/cyfitter_cfg.c **** 			{0xD0u, 0xC0u},
 494:Generated_Source\PSoC4/cyfitter_cfg.c **** 			{0xD6u, 0xF0u},
 495:Generated_Source\PSoC4/cyfitter_cfg.c **** 			{0xD8u, 0x60u},
 496:Generated_Source\PSoC4/cyfitter_cfg.c **** 			{0xDEu, 0x08u},
 497:Generated_Source\PSoC4/cyfitter_cfg.c **** 			{0xE0u, 0x80u},
 498:Generated_Source\PSoC4/cyfitter_cfg.c **** 			{0xE8u, 0x40u},
 499:Generated_Source\PSoC4/cyfitter_cfg.c **** 			{0xECu, 0x40u},
 500:Generated_Source\PSoC4/cyfitter_cfg.c **** 			{0x01u, 0x48u},
 501:Generated_Source\PSoC4/cyfitter_cfg.c **** 			{0x04u, 0x20u},
 502:Generated_Source\PSoC4/cyfitter_cfg.c **** 			{0x05u, 0x02u},
 503:Generated_Source\PSoC4/cyfitter_cfg.c **** 			{0x07u, 0x04u},
 504:Generated_Source\PSoC4/cyfitter_cfg.c **** 			{0x0Eu, 0x08u},
 505:Generated_Source\PSoC4/cyfitter_cfg.c **** 			{0x6Eu, 0x08u},
 506:Generated_Source\PSoC4/cyfitter_cfg.c **** 			{0xC0u, 0xF0u},
 507:Generated_Source\PSoC4/cyfitter_cfg.c **** 			{0xC2u, 0x80u},
 508:Generated_Source\PSoC4/cyfitter_cfg.c **** 			{0xDAu, 0x80u},
 509:Generated_Source\PSoC4/cyfitter_cfg.c **** 			{0x89u, 0x08u},
 510:Generated_Source\PSoC4/cyfitter_cfg.c **** 			{0x99u, 0x08u},
 511:Generated_Source\PSoC4/cyfitter_cfg.c **** 			{0xABu, 0x04u},
 512:Generated_Source\PSoC4/cyfitter_cfg.c **** 			{0xADu, 0x02u},
 513:Generated_Source\PSoC4/cyfitter_cfg.c **** 			{0xB4u, 0x10u},
 514:Generated_Source\PSoC4/cyfitter_cfg.c **** 			{0xB5u, 0x40u},
 515:Generated_Source\PSoC4/cyfitter_cfg.c **** 			{0xE8u, 0x80u},
 516:Generated_Source\PSoC4/cyfitter_cfg.c **** 			{0xECu, 0x10u},
 517:Generated_Source\PSoC4/cyfitter_cfg.c **** 			{0x50u, 0x10u},
 518:Generated_Source\PSoC4/cyfitter_cfg.c **** 			{0x56u, 0x02u},
ARM GAS  C:\Users\PRICHA~1\AppData\Local\Temp\cc26uNke.s 			page 15


 519:Generated_Source\PSoC4/cyfitter_cfg.c **** 			{0x61u, 0x02u},
 520:Generated_Source\PSoC4/cyfitter_cfg.c **** 			{0xD4u, 0x04u},
 521:Generated_Source\PSoC4/cyfitter_cfg.c **** 			{0xD6u, 0x04u},
 522:Generated_Source\PSoC4/cyfitter_cfg.c **** 			{0xD8u, 0x02u},
 523:Generated_Source\PSoC4/cyfitter_cfg.c **** 			{0x8Du, 0x02u},
 524:Generated_Source\PSoC4/cyfitter_cfg.c **** 			{0xA5u, 0x02u},
 525:Generated_Source\PSoC4/cyfitter_cfg.c **** 			{0xB4u, 0x10u},
 526:Generated_Source\PSoC4/cyfitter_cfg.c **** 			{0xB6u, 0x02u},
 527:Generated_Source\PSoC4/cyfitter_cfg.c **** 			{0xE4u, 0x08u},
 528:Generated_Source\PSoC4/cyfitter_cfg.c **** 			{0xE8u, 0x02u},
 529:Generated_Source\PSoC4/cyfitter_cfg.c **** 			{0xECu, 0x02u},
 530:Generated_Source\PSoC4/cyfitter_cfg.c **** 			{0x01u, 0x01u},
 531:Generated_Source\PSoC4/cyfitter_cfg.c **** 			{0x10u, 0x01u},
 532:Generated_Source\PSoC4/cyfitter_cfg.c **** 		};
 533:Generated_Source\PSoC4/cyfitter_cfg.c **** 
 534:Generated_Source\PSoC4/cyfitter_cfg.c **** 
 535:Generated_Source\PSoC4/cyfitter_cfg.c **** 
 536:Generated_Source\PSoC4/cyfitter_cfg.c **** 		CYPACKED typedef struct {
 537:Generated_Source\PSoC4/cyfitter_cfg.c **** 			void CYFAR *address;
 538:Generated_Source\PSoC4/cyfitter_cfg.c **** 			uint16 size;
 539:Generated_Source\PSoC4/cyfitter_cfg.c **** 		} CYPACKED_ATTR cfg_memset_t;
 540:Generated_Source\PSoC4/cyfitter_cfg.c **** 
 541:Generated_Source\PSoC4/cyfitter_cfg.c **** 
 542:Generated_Source\PSoC4/cyfitter_cfg.c **** 		CYPACKED typedef struct {
 543:Generated_Source\PSoC4/cyfitter_cfg.c **** 			void CYFAR *dest;
 544:Generated_Source\PSoC4/cyfitter_cfg.c **** 			const void CYCODE *src;
 545:Generated_Source\PSoC4/cyfitter_cfg.c **** 			uint16 size;
 546:Generated_Source\PSoC4/cyfitter_cfg.c **** 		} CYPACKED_ATTR cfg_memcpy_t;
 547:Generated_Source\PSoC4/cyfitter_cfg.c **** 
 548:Generated_Source\PSoC4/cyfitter_cfg.c **** 		static const cfg_memset_t CYCODE cfg_memset_list[] = {
 549:Generated_Source\PSoC4/cyfitter_cfg.c **** 			/* address, size */
 550:Generated_Source\PSoC4/cyfitter_cfg.c **** 			{(void CYFAR *)(CYDEV_UDB_P0_U0_BASE), 512u},
 551:Generated_Source\PSoC4/cyfitter_cfg.c **** 			{(void CYFAR *)(CYDEV_UDB_P1_U1_BASE), 384u},
 552:Generated_Source\PSoC4/cyfitter_cfg.c **** 			{(void CYFAR *)(CYDEV_UDB_DSI0_BASE), 1024u},
 553:Generated_Source\PSoC4/cyfitter_cfg.c **** 		};
 554:Generated_Source\PSoC4/cyfitter_cfg.c **** 
 555:Generated_Source\PSoC4/cyfitter_cfg.c **** 		/* UDB_0_0_1_CONFIG Address: CYDEV_UDB_P1_U0_BASE Size (bytes): 128 */
 556:Generated_Source\PSoC4/cyfitter_cfg.c **** 		static const uint8 CYCODE BS_UDB_0_0_1_CONFIG_VAL[] = {
 557:Generated_Source\PSoC4/cyfitter_cfg.c **** 			0x06u, 0x18u, 0x11u, 0x03u, 0x20u, 0x07u, 0x00u, 0x08u, 0x80u, 0x00u, 0x00u, 0x00u, 0x1Fu, 0x00u
 558:Generated_Source\PSoC4/cyfitter_cfg.c **** 			0x00u, 0x00u, 0x40u, 0x00u, 0x01u, 0x00u, 0x12u, 0x40u, 0x00u, 0x01u, 0x20u, 0x12u, 0x18u, 0x06u
 559:Generated_Source\PSoC4/cyfitter_cfg.c **** 			0x00u, 0x10u, 0x80u, 0x04u, 0x07u, 0x00u, 0x08u, 0x00u, 0x00u, 0x00u, 0x40u, 0x00u, 0x10u, 0x00u
 560:Generated_Source\PSoC4/cyfitter_cfg.c **** 			0x1Fu, 0x00u, 0x40u, 0x40u, 0x20u, 0x20u, 0x80u, 0x1Fu, 0x00u, 0x00u, 0x00u, 0x00u, 0x00u, 0x00u
 561:Generated_Source\PSoC4/cyfitter_cfg.c **** 			0x40u, 0x03u, 0x00u, 0x00u, 0x00u, 0x53u, 0xC2u, 0x4Eu, 0x3Fu, 0xFFu, 0xFFu, 0xFFu, 0x00u, 0xAFu
 562:Generated_Source\PSoC4/cyfitter_cfg.c **** 			0x18u, 0x00u, 0x00u, 0x00u, 0x0Fu, 0x00u, 0x00u, 0x00u, 0x04u, 0x04u, 0x04u, 0x04u, 0x00u, 0x00u
 563:Generated_Source\PSoC4/cyfitter_cfg.c **** 			0x40u, 0x00u, 0x80u, 0x00u, 0x40u, 0x40u, 0x80u, 0x00u, 0x40u, 0x00u, 0x80u, 0x00u, 0x40u, 0x20u
 564:Generated_Source\PSoC4/cyfitter_cfg.c **** 			0x00u, 0x00u, 0x00u, 0x00u, 0x00u, 0x00u, 0x00u, 0x00u, 0x00u, 0x00u, 0x00u, 0x00u, 0x00u, 0x00u
 565:Generated_Source\PSoC4/cyfitter_cfg.c **** 
 566:Generated_Source\PSoC4/cyfitter_cfg.c **** 		static const cfg_memcpy_t CYCODE cfg_memcpy_list [] = {
 567:Generated_Source\PSoC4/cyfitter_cfg.c **** 			/* dest, src, size */
 568:Generated_Source\PSoC4/cyfitter_cfg.c **** 			{(void CYFAR *)(CYDEV_UDB_P1_U0_BASE), BS_UDB_0_0_1_CONFIG_VAL, 128u},
 569:Generated_Source\PSoC4/cyfitter_cfg.c **** 		};
 570:Generated_Source\PSoC4/cyfitter_cfg.c **** 
 571:Generated_Source\PSoC4/cyfitter_cfg.c **** 		uint8 CYDATA i;
 572:Generated_Source\PSoC4/cyfitter_cfg.c **** 
 573:Generated_Source\PSoC4/cyfitter_cfg.c **** 		/* Zero out critical memory blocks before beginning configuration */
 574:Generated_Source\PSoC4/cyfitter_cfg.c **** 		for (i = 0u; i < (sizeof(cfg_memset_list)/sizeof(cfg_memset_list[0])); i++)
 272              		.loc 1 574 0
ARM GAS  C:\Users\PRICHA~1\AppData\Local\Temp\cc26uNke.s 			page 16


 273 0096 0024     		movs	r4, #0
 274 0098 0FE0     		b	.L12
 275              	.LVL19:
 276              	.L13:
 277              	.LBB4:
 575:Generated_Source\PSoC4/cyfitter_cfg.c **** 		{
 576:Generated_Source\PSoC4/cyfitter_cfg.c **** 			const cfg_memset_t CYCODE * CYDATA ms = &cfg_memset_list[i];
 577:Generated_Source\PSoC4/cyfitter_cfg.c **** 			CYMEMZERO(ms->address, (size_t)(uint32)(ms->size));
 278              		.loc 1 577 0 discriminator 3
 279 009a 4348     		ldr	r0, .L16+4
 280 009c 6200     		lsls	r2, r4, #1
 281 009e 1319     		adds	r3, r2, r4
 282 00a0 5900     		lsls	r1, r3, #1
 283 00a2 0B00     		movs	r3, r1
 284 00a4 4118     		adds	r1, r0, r1
 285 00a6 8988     		ldrh	r1, [r1, #4]
 286 00a8 1A5A     		ldrh	r2, [r3, r0]
 287 00aa C318     		adds	r3, r0, r3
 288 00ac 5888     		ldrh	r0, [r3, #2]
 289 00ae 0004     		lsls	r0, r0, #16
 290 00b0 1043     		orrs	r0, r2
 291 00b2 FFF7FEFF 		bl	CYMEMZERO
 292              	.LVL20:
 293              	.LBE4:
 574:Generated_Source\PSoC4/cyfitter_cfg.c **** 		{
 294              		.loc 1 574 0 discriminator 3
 295 00b6 0134     		adds	r4, r4, #1
 296              	.LVL21:
 297 00b8 E4B2     		uxtb	r4, r4
 298              	.LVL22:
 299              	.L12:
 574:Generated_Source\PSoC4/cyfitter_cfg.c **** 		{
 300              		.loc 1 574 0 is_stmt 0 discriminator 1
 301 00ba 022C     		cmp	r4, #2
 302 00bc EDD9     		bls	.L13
 303 00be 0024     		movs	r4, #0
 304              	.LVL23:
 305 00c0 11E0     		b	.L14
 306              	.LVL24:
 307              	.L15:
 308              	.LBB5:
 578:Generated_Source\PSoC4/cyfitter_cfg.c **** 		}
 579:Generated_Source\PSoC4/cyfitter_cfg.c **** 
 580:Generated_Source\PSoC4/cyfitter_cfg.c **** 		/* Copy device configuration data into registers */
 581:Generated_Source\PSoC4/cyfitter_cfg.c **** 		for (i = 0u; i < (sizeof(cfg_memcpy_list)/sizeof(cfg_memcpy_list[0])); i++)
 582:Generated_Source\PSoC4/cyfitter_cfg.c **** 		{
 583:Generated_Source\PSoC4/cyfitter_cfg.c **** 			const cfg_memcpy_t CYCODE * CYDATA mc = &cfg_memcpy_list[i];
 584:Generated_Source\PSoC4/cyfitter_cfg.c **** 			void * CYDATA destPtr = mc->dest;
 309              		.loc 1 584 0 is_stmt 1 discriminator 3
 310 00c2 394E     		ldr	r6, .L16+4
 311 00c4 A200     		lsls	r2, r4, #2
 312 00c6 1319     		adds	r3, r2, r4
 313 00c8 5900     		lsls	r1, r3, #1
 314 00ca 7118     		adds	r1, r6, r1
 315 00cc 8D8A     		ldrh	r5, [r1, #20]
 316 00ce C88A     		ldrh	r0, [r1, #22]
 317 00d0 0004     		lsls	r0, r0, #16
ARM GAS  C:\Users\PRICHA~1\AppData\Local\Temp\cc26uNke.s 			page 17


 318 00d2 2843     		orrs	r0, r5
 319              	.LVL25:
 585:Generated_Source\PSoC4/cyfitter_cfg.c **** 			const void CYCODE * CYDATA srcPtr = mc->src;
 320              		.loc 1 585 0 discriminator 3
 321 00d4 0A8B     		ldrh	r2, [r1, #24]
 322 00d6 498B     		ldrh	r1, [r1, #26]
 323 00d8 0904     		lsls	r1, r1, #16
 324 00da 1143     		orrs	r1, r2
 325              	.LVL26:
 586:Generated_Source\PSoC4/cyfitter_cfg.c **** 			uint16 CYDATA numBytes = mc->size;
 587:Generated_Source\PSoC4/cyfitter_cfg.c **** 			CYCONFIGCPYCODE(destPtr, srcPtr, numBytes);
 326              		.loc 1 587 0 discriminator 3
 327 00dc 8022     		movs	r2, #128
 328 00de FFF7FEFF 		bl	CYCONFIGCPYCODE
 329              	.LVL27:
 330              	.LBE5:
 581:Generated_Source\PSoC4/cyfitter_cfg.c **** 		{
 331              		.loc 1 581 0 discriminator 3
 332 00e2 0134     		adds	r4, r4, #1
 333              	.LVL28:
 334 00e4 E4B2     		uxtb	r4, r4
 335              	.LVL29:
 336              	.L14:
 581:Generated_Source\PSoC4/cyfitter_cfg.c **** 		{
 337              		.loc 1 581 0 is_stmt 0 discriminator 1
 338 00e6 002C     		cmp	r4, #0
 339 00e8 EBD0     		beq	.L15
 588:Generated_Source\PSoC4/cyfitter_cfg.c **** 		}
 589:Generated_Source\PSoC4/cyfitter_cfg.c **** 
 590:Generated_Source\PSoC4/cyfitter_cfg.c **** 		cfg_write_bytes32(cy_cfg_addr_table, cy_cfg_data_table);
 340              		.loc 1 590 0 is_stmt 1
 341 00ea 2F49     		ldr	r1, .L16+4
 342 00ec 2031     		adds	r1, r1, #32
 343 00ee 2F48     		ldr	r0, .L16+8
 344 00f0 5C30     		adds	r0, r0, #92
 345 00f2 FFF7FEFF 		bl	cfg_write_bytes32
 346              	.LVL30:
 591:Generated_Source\PSoC4/cyfitter_cfg.c **** 
 592:Generated_Source\PSoC4/cyfitter_cfg.c **** 		/* HSIOM Starting address: CYDEV_HSIOM_BASE */
 593:Generated_Source\PSoC4/cyfitter_cfg.c **** 		CY_SET_REG32((void *)(CYDEV_HSIOM_BASE), 0xFFFF0000u);
 347              		.loc 1 593 0
 348 00f6 2E4A     		ldr	r2, .L16+12
 349 00f8 2E4B     		ldr	r3, .L16+16
 350 00fa 1A60     		str	r2, [r3]
 594:Generated_Source\PSoC4/cyfitter_cfg.c **** 		CY_SET_REG32((void *)(CYREG_HSIOM_PORT_SEL1), 0x00000008u);
 351              		.loc 1 594 0
 352 00fc 0822     		movs	r2, #8
 353 00fe 2E4B     		ldr	r3, .L16+20
 354 0100 1A60     		str	r2, [r3]
 595:Generated_Source\PSoC4/cyfitter_cfg.c **** 		CY_SET_REG32((void *)(CYREG_HSIOM_PORT_SEL2), 0x00033300u);
 355              		.loc 1 595 0
 356 0102 2E4A     		ldr	r2, .L16+24
 357 0104 2E4B     		ldr	r3, .L16+28
 358 0106 1A60     		str	r2, [r3]
 596:Generated_Source\PSoC4/cyfitter_cfg.c **** 		CY_SET_REG32((void *)(CYREG_HSIOM_PORT_SEL3), 0x0000EE00u);
 359              		.loc 1 596 0
 360 0108 EE22     		movs	r2, #238
ARM GAS  C:\Users\PRICHA~1\AppData\Local\Temp\cc26uNke.s 			page 18


 361 010a 1202     		lsls	r2, r2, #8
 362 010c 2D4B     		ldr	r3, .L16+32
 363 010e 1A60     		str	r2, [r3]
 597:Generated_Source\PSoC4/cyfitter_cfg.c **** 		CY_SET_REG32((void *)(CYREG_HSIOM_PORT_SEL4), 0x000000EEu);
 364              		.loc 1 597 0
 365 0110 EE22     		movs	r2, #238
 366 0112 2D4B     		ldr	r3, .L16+36
 367 0114 1A60     		str	r2, [r3]
 598:Generated_Source\PSoC4/cyfitter_cfg.c **** 
 599:Generated_Source\PSoC4/cyfitter_cfg.c **** 		/* UDB_PA_0 Starting address: CYDEV_UDB_PA0_BASE */
 600:Generated_Source\PSoC4/cyfitter_cfg.c **** 		CY_SET_REG32((void *)(CYDEV_UDB_PA0_BASE), 0x00990000u);
 368              		.loc 1 600 0
 369 0116 9923     		movs	r3, #153
 370 0118 1B04     		lsls	r3, r3, #16
 371 011a 2C4A     		ldr	r2, .L16+40
 372 011c 1360     		str	r3, [r2]
 601:Generated_Source\PSoC4/cyfitter_cfg.c **** 
 602:Generated_Source\PSoC4/cyfitter_cfg.c **** 		/* UDB_PA_1 Starting address: CYDEV_UDB_PA1_BASE */
 603:Generated_Source\PSoC4/cyfitter_cfg.c **** 		CY_SET_REG32((void *)(CYDEV_UDB_PA1_BASE), 0x00990000u);
 373              		.loc 1 603 0
 374 011e 2C4A     		ldr	r2, .L16+44
 375 0120 1360     		str	r3, [r2]
 604:Generated_Source\PSoC4/cyfitter_cfg.c **** 
 605:Generated_Source\PSoC4/cyfitter_cfg.c **** 		/* UDB_PA_2 Starting address: CYDEV_UDB_PA2_BASE */
 606:Generated_Source\PSoC4/cyfitter_cfg.c **** 		CY_SET_REG32((void *)(CYDEV_UDB_PA2_BASE), 0x00990000u);
 376              		.loc 1 606 0
 377 0122 2C4A     		ldr	r2, .L16+48
 378 0124 1360     		str	r3, [r2]
 607:Generated_Source\PSoC4/cyfitter_cfg.c **** 		CY_SET_REG32((void *)(CYREG_UDB_PA2_CFG8), 0x02350000u);
 379              		.loc 1 607 0
 380 0126 2C49     		ldr	r1, .L16+52
 381 0128 2C4A     		ldr	r2, .L16+56
 382 012a 1160     		str	r1, [r2]
 608:Generated_Source\PSoC4/cyfitter_cfg.c **** 
 609:Generated_Source\PSoC4/cyfitter_cfg.c **** 		/* UDB_PA_3 Starting address: CYDEV_UDB_PA3_BASE */
 610:Generated_Source\PSoC4/cyfitter_cfg.c **** 		CY_SET_REG32((void *)(CYDEV_UDB_PA3_BASE), 0x00990000u);
 383              		.loc 1 610 0
 384 012c 2C4A     		ldr	r2, .L16+60
 385 012e 1360     		str	r3, [r2]
 611:Generated_Source\PSoC4/cyfitter_cfg.c **** 
 612:Generated_Source\PSoC4/cyfitter_cfg.c **** 		/* INT_SELECT Starting address: CYDEV_CPUSS_INTR_SELECT */
 613:Generated_Source\PSoC4/cyfitter_cfg.c **** 		CY_SET_REG32((void *)(CYREG_CPUSS_INTR_SELECT), 0x00000002u);
 386              		.loc 1 613 0
 387 0130 0223     		movs	r3, #2
 388 0132 2C4A     		ldr	r2, .L16+64
 389 0134 1360     		str	r3, [r2]
 614:Generated_Source\PSoC4/cyfitter_cfg.c **** 
 615:Generated_Source\PSoC4/cyfitter_cfg.c **** 		/* INT_CONFIG Starting address: CYDEV_UDB_INT_CFG */
 616:Generated_Source\PSoC4/cyfitter_cfg.c **** 		CY_SET_REG32((void *)(CYREG_UDB_INT_CFG), 0x00000002u);
 390              		.loc 1 616 0
 391 0136 2C4A     		ldr	r2, .L16+68
 392 0138 1360     		str	r3, [r2]
 617:Generated_Source\PSoC4/cyfitter_cfg.c **** 
 618:Generated_Source\PSoC4/cyfitter_cfg.c **** 		/* Enable UDB array and digital routing */
 619:Generated_Source\PSoC4/cyfitter_cfg.c **** 		CY_SET_XTND_REG8((void *)CYREG_UDB_UDBIF_WAIT_CFG, (uint8)((CY_GET_XTND_REG8((void *)CYREG_UDB_UD
 393              		.loc 1 619 0
 394 013a 2C49     		ldr	r1, .L16+72
ARM GAS  C:\Users\PRICHA~1\AppData\Local\Temp\cc26uNke.s 			page 19


 395 013c 0B78     		ldrb	r3, [r1]
 396 013e 3C22     		movs	r2, #60
 397 0140 9343     		bics	r3, r2
 398 0142 1422     		movs	r2, #20
 399 0144 1343     		orrs	r3, r2
 400 0146 DBB2     		uxtb	r3, r3
 401 0148 0B70     		strb	r3, [r1]
 620:Generated_Source\PSoC4/cyfitter_cfg.c **** 		CY_SET_XTND_REG8((void *)CYREG_UDB_UDBIF_BANK_CTL, (uint8)(CY_GET_XTND_REG8((void *)CYREG_UDB_UDB
 402              		.loc 1 620 0
 403 014a 294A     		ldr	r2, .L16+76
 404 014c 1178     		ldrb	r1, [r2]
 405 014e 1623     		movs	r3, #22
 406 0150 0B43     		orrs	r3, r1
 407 0152 DBB2     		uxtb	r3, r3
 408 0154 1370     		strb	r3, [r2]
 409              	.LBE3:
 621:Generated_Source\PSoC4/cyfitter_cfg.c **** 	}
 622:Generated_Source\PSoC4/cyfitter_cfg.c **** 
 623:Generated_Source\PSoC4/cyfitter_cfg.c **** 	/* Perform second pass device configuration. These items must be configured in specific order afte
 624:Generated_Source\PSoC4/cyfitter_cfg.c **** 	/* IOPINS0_0 Starting address: CYDEV_PRT0_BASE */
 625:Generated_Source\PSoC4/cyfitter_cfg.c **** 	CY_SET_REG32((void *)(CYDEV_PRT0_BASE), 0x0000002Cu);
 410              		.loc 1 625 0
 411 0156 2C22     		movs	r2, #44
 412 0158 264B     		ldr	r3, .L16+80
 413 015a 1A60     		str	r2, [r3]
 626:Generated_Source\PSoC4/cyfitter_cfg.c **** 	CY_SET_REG32((void *)(CYREG_PRT0_PC), 0x00271489u);
 414              		.loc 1 626 0
 415 015c 264A     		ldr	r2, .L16+84
 416 015e 274B     		ldr	r3, .L16+88
 417 0160 1A60     		str	r2, [r3]
 627:Generated_Source\PSoC4/cyfitter_cfg.c **** 	CY_SET_REG32((void *)(CYREG_PRT0_INTCFG), 0x00000020u);
 418              		.loc 1 627 0
 419 0162 2022     		movs	r2, #32
 420 0164 264B     		ldr	r3, .L16+92
 421 0166 1A60     		str	r2, [r3]
 628:Generated_Source\PSoC4/cyfitter_cfg.c **** 
 629:Generated_Source\PSoC4/cyfitter_cfg.c **** 	/* IOPINS0_1 Starting address: CYDEV_PRT1_BASE */
 630:Generated_Source\PSoC4/cyfitter_cfg.c **** 	CY_SET_REG32((void *)(CYDEV_PRT1_BASE), 0x00000001u);
 422              		.loc 1 630 0
 423 0168 1F3A     		subs	r2, r2, #31
 424 016a 264B     		ldr	r3, .L16+96
 425 016c 1A60     		str	r2, [r3]
 631:Generated_Source\PSoC4/cyfitter_cfg.c **** 	CY_SET_REG32((void *)(CYREG_PRT1_PC), 0x00180036u);
 426              		.loc 1 631 0
 427 016e 264A     		ldr	r2, .L16+100
 428 0170 264B     		ldr	r3, .L16+104
 429 0172 1A60     		str	r2, [r3]
 632:Generated_Source\PSoC4/cyfitter_cfg.c **** 
 633:Generated_Source\PSoC4/cyfitter_cfg.c **** 	/* IOPINS0_2 Starting address: CYDEV_PRT2_BASE */
 634:Generated_Source\PSoC4/cyfitter_cfg.c **** 	CY_SET_REG32((void *)(CYDEV_PRT2_BASE), 0x0000001Cu);
 430              		.loc 1 634 0
 431 0174 1C22     		movs	r2, #28
 432 0176 264B     		ldr	r3, .L16+108
 433 0178 1A60     		str	r2, [r3]
 635:Generated_Source\PSoC4/cyfitter_cfg.c **** 	CY_SET_REG32((void *)(CYREG_PRT2_PC), 0x00046D80u);
 434              		.loc 1 635 0
 435 017a 264A     		ldr	r2, .L16+112
ARM GAS  C:\Users\PRICHA~1\AppData\Local\Temp\cc26uNke.s 			page 20


 436 017c 264B     		ldr	r3, .L16+116
 437 017e 1A60     		str	r2, [r3]
 636:Generated_Source\PSoC4/cyfitter_cfg.c **** 	CY_SET_REG32((void *)(CYREG_PRT2_INTCFG), 0x00002000u);
 438              		.loc 1 636 0
 439 0180 8022     		movs	r2, #128
 440 0182 9201     		lsls	r2, r2, #6
 441 0184 254B     		ldr	r3, .L16+120
 442 0186 1A60     		str	r2, [r3]
 637:Generated_Source\PSoC4/cyfitter_cfg.c **** 
 638:Generated_Source\PSoC4/cyfitter_cfg.c **** 	/* IOPINS0_3 Starting address: CYDEV_PRT3_BASE */
 639:Generated_Source\PSoC4/cyfitter_cfg.c **** 	CY_SET_REG32((void *)(CYREG_PRT3_PC), 0x00000D80u);
 443              		.loc 1 639 0
 444 0188 D822     		movs	r2, #216
 445 018a 1201     		lsls	r2, r2, #4
 446 018c 244B     		ldr	r3, .L16+124
 447 018e 1A60     		str	r2, [r3]
 640:Generated_Source\PSoC4/cyfitter_cfg.c **** 
 641:Generated_Source\PSoC4/cyfitter_cfg.c **** 	/* IOPINS0_4 Starting address: CYDEV_PRT4_BASE */
 642:Generated_Source\PSoC4/cyfitter_cfg.c **** 	CY_SET_REG32((void *)(CYDEV_PRT4_BASE), 0x00000003u);
 448              		.loc 1 642 0
 449 0190 0322     		movs	r2, #3
 450 0192 244B     		ldr	r3, .L16+128
 451 0194 1A60     		str	r2, [r3]
 643:Generated_Source\PSoC4/cyfitter_cfg.c **** 	CY_SET_REG32((void *)(CYREG_PRT4_PC), 0x00000024u);
 452              		.loc 1 643 0
 453 0196 2132     		adds	r2, r2, #33
 454 0198 234B     		ldr	r3, .L16+132
 455 019a 1A60     		str	r2, [r3]
 644:Generated_Source\PSoC4/cyfitter_cfg.c **** 
 645:Generated_Source\PSoC4/cyfitter_cfg.c **** 
 646:Generated_Source\PSoC4/cyfitter_cfg.c **** 	/* Setup clocks based on selections from Clock DWR */
 647:Generated_Source\PSoC4/cyfitter_cfg.c **** 	ClockSetup();
 456              		.loc 1 647 0
 457 019c FFF730FF 		bl	ClockSetup
 458              	.LVL31:
 648:Generated_Source\PSoC4/cyfitter_cfg.c **** 
 649:Generated_Source\PSoC4/cyfitter_cfg.c **** 	/* Perform basic analog initialization to defaults */
 650:Generated_Source\PSoC4/cyfitter_cfg.c **** 	AnalogSetDefault();
 651:Generated_Source\PSoC4/cyfitter_cfg.c **** 
 652:Generated_Source\PSoC4/cyfitter_cfg.c **** }
 459              		.loc 1 652 0
 460              		@ sp needed
 461              	.LVL32:
 462 01a0 70BD     		pop	{r4, r5, r6, pc}
 463              	.L17:
 464 01a2 C046     		.align	2
 465              	.L16:
 466 01a4 1C700F40 		.word	1074753564
 467 01a8 00000000 		.word	.LANCHOR0
 468 01ac 80010000 		.word	.LANCHOR1
 469 01b0 0000FFFF 		.word	-65536
 470 01b4 00000140 		.word	1073807360
 471 01b8 04000140 		.word	1073807364
 472 01bc 00330300 		.word	209664
 473 01c0 08000140 		.word	1073807368
 474 01c4 0C000140 		.word	1073807372
 475 01c8 10000140 		.word	1073807376
ARM GAS  C:\Users\PRICHA~1\AppData\Local\Temp\cc26uNke.s 			page 21


 476 01cc 00500F40 		.word	1074745344
 477 01d0 10500F40 		.word	1074745360
 478 01d4 20500F40 		.word	1074745376
 479 01d8 00003502 		.word	37027840
 480 01dc 28500F40 		.word	1074745384
 481 01e0 30500F40 		.word	1074745392
 482 01e4 20000040 		.word	1073741856
 483 01e8 00800F40 		.word	1074757632
 484 01ec 01700F40 		.word	1074753537
 485 01f0 00700F40 		.word	1074753536
 486 01f4 00000440 		.word	1074003968
 487 01f8 89142700 		.word	2561161
 488 01fc 08000440 		.word	1074003976
 489 0200 0C000440 		.word	1074003980
 490 0204 00010440 		.word	1074004224
 491 0208 36001800 		.word	1572918
 492 020c 08010440 		.word	1074004232
 493 0210 00020440 		.word	1074004480
 494 0214 806D0400 		.word	290176
 495 0218 08020440 		.word	1074004488
 496 021c 0C020440 		.word	1074004492
 497 0220 08030440 		.word	1074004744
 498 0224 00040440 		.word	1074004992
 499 0228 08040440 		.word	1074005000
 500              		.cfi_endproc
 501              	.LFE6:
 502              		.size	cyfitter_cfg, .-cyfitter_cfg
 503              		.section	.rodata
 504              		.align	2
 505              		.set	.LANCHOR0,. + 0
 506              		.set	.LANCHOR1,. + 384
 507              		.type	cfg_memset_list.4875, %object
 508              		.size	cfg_memset_list.4875, 18
 509              	cfg_memset_list.4875:
 510 0000 00300F40 		.word	1074737152
 511 0004 0002     		.short	512
 512 0006 80320F40 		.4byte	1074737792
 513 000a 8001     		.short	384
 514 000c 00400F40 		.word	1074741248
 515 0010 0004     		.short	1024
 516 0012 0000     		.space	2
 517              		.type	cfg_memcpy_list.4877, %object
 518              		.size	cfg_memcpy_list.4877, 10
 519              	cfg_memcpy_list.4877:
 520 0014 00320F40 		.word	1074737664
 521 0018 04020000 		.word	BS_UDB_0_0_1_CONFIG_VAL.4876
 522 001c 8000     		.short	128
 523 001e 0000     		.space	2
 524              		.type	cy_cfg_data_table.4865, %object
 525              		.size	cy_cfg_data_table.4865, 444
 526              	cy_cfg_data_table.4865:
 527 0020 82       		.byte	-126
 528 0021 6F       		.byte	111
 529 0022 04       		.byte	4
 530 0023 55       		.byte	85
 531 0024 05       		.byte	5
 532 0025 55       		.byte	85
ARM GAS  C:\Users\PRICHA~1\AppData\Local\Temp\cc26uNke.s 			page 22


 533 0026 06       		.byte	6
 534 0027 AA       		.byte	-86
 535 0028 07       		.byte	7
 536 0029 AA       		.byte	-86
 537 002a 0D       		.byte	13
 538 002b 96       		.byte	-106
 539 002c 0F       		.byte	15
 540 002d 69       		.byte	105
 541 002e 10       		.byte	16
 542 002f 96       		.byte	-106
 543 0030 12       		.byte	18
 544 0031 69       		.byte	105
 545 0032 13       		.byte	19
 546 0033 FF       		.byte	-1
 547 0034 15       		.byte	21
 548 0035 33       		.byte	51
 549 0036 17       		.byte	23
 550 0037 CC       		.byte	-52
 551 0038 18       		.byte	24
 552 0039 0F       		.byte	15
 553 003a 19       		.byte	25
 554 003b 0F       		.byte	15
 555 003c 1A       		.byte	26
 556 003d F0       		.byte	-16
 557 003e 1B       		.byte	27
 558 003f F0       		.byte	-16
 559 0040 25       		.byte	37
 560 0041 FF       		.byte	-1
 561 0042 28       		.byte	40
 562 0043 33       		.byte	51
 563 0044 2A       		.byte	42
 564 0045 CC       		.byte	-52
 565 0046 32       		.byte	50
 566 0047 FF       		.byte	-1
 567 0048 37       		.byte	55
 568 0049 FF       		.byte	-1
 569 004a 3F       		.byte	63
 570 004b 40       		.byte	64
 571 004c 40       		.byte	64
 572 004d 10       		.byte	16
 573 004e 41       		.byte	65
 574 004f 03       		.byte	3
 575 0050 49       		.byte	73
 576 0051 FF       		.byte	-1
 577 0052 4A       		.byte	74
 578 0053 FF       		.byte	-1
 579 0054 4B       		.byte	75
 580 0055 FF       		.byte	-1
 581 0056 4D       		.byte	77
 582 0057 A0       		.byte	-96
 583 0058 4F       		.byte	79
 584 0059 01       		.byte	1
 585 005a 50       		.byte	80
 586 005b 18       		.byte	24
 587 005c 58       		.byte	88
 588 005d 04       		.byte	4
 589 005e 59       		.byte	89
ARM GAS  C:\Users\PRICHA~1\AppData\Local\Temp\cc26uNke.s 			page 23


 590 005f 04       		.byte	4
 591 0060 5A       		.byte	90
 592 0061 04       		.byte	4
 593 0062 5F       		.byte	95
 594 0063 01       		.byte	1
 595 0064 60       		.byte	96
 596 0065 40       		.byte	64
 597 0066 62       		.byte	98
 598 0067 80       		.byte	-128
 599 0068 64       		.byte	100
 600 0069 40       		.byte	64
 601 006a 65       		.byte	101
 602 006b 40       		.byte	64
 603 006c 66       		.byte	102
 604 006d 80       		.byte	-128
 605 006e 68       		.byte	104
 606 006f 40       		.byte	64
 607 0070 6A       		.byte	106
 608 0071 80       		.byte	-128
 609 0072 6C       		.byte	108
 610 0073 40       		.byte	64
 611 0074 6D       		.byte	109
 612 0075 20       		.byte	32
 613 0076 6E       		.byte	110
 614 0077 80       		.byte	-128
 615 0078 82       		.byte	-126
 616 0079 08       		.byte	8
 617 007a 86       		.byte	-122
 618 007b 04       		.byte	4
 619 007c 8A       		.byte	-118
 620 007d 18       		.byte	24
 621 007e 8B       		.byte	-117
 622 007f 02       		.byte	2
 623 0080 8E       		.byte	-114
 624 0081 10       		.byte	16
 625 0082 8F       		.byte	-113
 626 0083 04       		.byte	4
 627 0084 98       		.byte	-104
 628 0085 01       		.byte	1
 629 0086 9A       		.byte	-102
 630 0087 22       		.byte	34
 631 0088 9C       		.byte	-100
 632 0089 02       		.byte	2
 633 008a 9E       		.byte	-98
 634 008b 01       		.byte	1
 635 008c 9F       		.byte	-97
 636 008d 01       		.byte	1
 637 008e AB       		.byte	-85
 638 008f 04       		.byte	4
 639 0090 B0       		.byte	-80
 640 0091 18       		.byte	24
 641 0092 B1       		.byte	-79
 642 0093 04       		.byte	4
 643 0094 B2       		.byte	-78
 644 0095 03       		.byte	3
 645 0096 B3       		.byte	-77
 646 0097 02       		.byte	2
ARM GAS  C:\Users\PRICHA~1\AppData\Local\Temp\cc26uNke.s 			page 24


 647 0098 B4       		.byte	-76
 648 0099 20       		.byte	32
 649 009a B5       		.byte	-75
 650 009b 01       		.byte	1
 651 009c B6       		.byte	-74
 652 009d 04       		.byte	4
 653 009e BE       		.byte	-66
 654 009f 04       		.byte	4
 655 00a0 C0       		.byte	-64
 656 00a1 40       		.byte	64
 657 00a2 C1       		.byte	-63
 658 00a3 03       		.byte	3
 659 00a4 C9       		.byte	-55
 660 00a5 FF       		.byte	-1
 661 00a6 CA       		.byte	-54
 662 00a7 FF       		.byte	-1
 663 00a8 CB       		.byte	-53
 664 00a9 FF       		.byte	-1
 665 00aa CD       		.byte	-51
 666 00ab AF       		.byte	-81
 667 00ac CE       		.byte	-50
 668 00ad 07       		.byte	7
 669 00ae CF       		.byte	-49
 670 00af 01       		.byte	1
 671 00b0 D0       		.byte	-48
 672 00b1 18       		.byte	24
 673 00b2 D2       		.byte	-46
 674 00b3 87       		.byte	-121
 675 00b4 D8       		.byte	-40
 676 00b5 04       		.byte	4
 677 00b6 D9       		.byte	-39
 678 00b7 04       		.byte	4
 679 00b8 DA       		.byte	-38
 680 00b9 04       		.byte	4
 681 00ba DB       		.byte	-37
 682 00bb 04       		.byte	4
 683 00bc DF       		.byte	-33
 684 00bd 01       		.byte	1
 685 00be E0       		.byte	-32
 686 00bf 40       		.byte	64
 687 00c0 E2       		.byte	-30
 688 00c1 80       		.byte	-128
 689 00c2 E4       		.byte	-28
 690 00c3 40       		.byte	64
 691 00c4 E5       		.byte	-27
 692 00c5 40       		.byte	64
 693 00c6 E6       		.byte	-26
 694 00c7 80       		.byte	-128
 695 00c8 E8       		.byte	-24
 696 00c9 40       		.byte	64
 697 00ca EA       		.byte	-22
 698 00cb 80       		.byte	-128
 699 00cc EC       		.byte	-20
 700 00cd 40       		.byte	64
 701 00ce ED       		.byte	-19
 702 00cf 20       		.byte	32
 703 00d0 EE       		.byte	-18
ARM GAS  C:\Users\PRICHA~1\AppData\Local\Temp\cc26uNke.s 			page 25


 704 00d1 80       		.byte	-128
 705 00d2 00       		.byte	0
 706 00d3 04       		.byte	4
 707 00d4 04       		.byte	4
 708 00d5 40       		.byte	64
 709 00d6 05       		.byte	5
 710 00d7 10       		.byte	16
 711 00d8 06       		.byte	6
 712 00d9 80       		.byte	-128
 713 00da 07       		.byte	7
 714 00db 20       		.byte	32
 715 00dc 09       		.byte	9
 716 00dd 20       		.byte	32
 717 00de 0B       		.byte	11
 718 00df 80       		.byte	-128
 719 00e0 0D       		.byte	13
 720 00e1 20       		.byte	32
 721 00e2 0E       		.byte	14
 722 00e3 02       		.byte	2
 723 00e4 13       		.byte	19
 724 00e5 20       		.byte	32
 725 00e6 19       		.byte	25
 726 00e7 08       		.byte	8
 727 00e8 1C       		.byte	28
 728 00e9 54       		.byte	84
 729 00ea 1D       		.byte	29
 730 00eb 0A       		.byte	10
 731 00ec 1E       		.byte	30
 732 00ed 02       		.byte	2
 733 00ee 1F       		.byte	31
 734 00ef 40       		.byte	64
 735 00f0 20       		.byte	32
 736 00f1 01       		.byte	1
 737 00f2 23       		.byte	35
 738 00f3 02       		.byte	2
 739 00f4 25       		.byte	37
 740 00f5 20       		.byte	32
 741 00f6 26       		.byte	38
 742 00f7 0A       		.byte	10
 743 00f8 27       		.byte	39
 744 00f9 60       		.byte	96
 745 00fa 29       		.byte	41
 746 00fb 08       		.byte	8
 747 00fc 2F       		.byte	47
 748 00fd 04       		.byte	4
 749 00fe 30       		.byte	48
 750 00ff 02       		.byte	2
 751 0100 31       		.byte	49
 752 0101 20       		.byte	32
 753 0102 32       		.byte	50
 754 0103 08       		.byte	8
 755 0104 37       		.byte	55
 756 0105 40       		.byte	64
 757 0106 38       		.byte	56
 758 0107 04       		.byte	4
 759 0108 3B       		.byte	59
 760 0109 80       		.byte	-128
ARM GAS  C:\Users\PRICHA~1\AppData\Local\Temp\cc26uNke.s 			page 26


 761 010a 3C       		.byte	60
 762 010b 40       		.byte	64
 763 010c 3E       		.byte	62
 764 010d 10       		.byte	16
 765 010e 40       		.byte	64
 766 010f 11       		.byte	17
 767 0110 45       		.byte	69
 768 0111 08       		.byte	8
 769 0112 47       		.byte	71
 770 0113 02       		.byte	2
 771 0114 6C       		.byte	108
 772 0115 01       		.byte	1
 773 0116 6D       		.byte	109
 774 0117 04       		.byte	4
 775 0118 6E       		.byte	110
 776 0119 20       		.byte	32
 777 011a 74       		.byte	116
 778 011b 02       		.byte	2
 779 011c C0       		.byte	-64
 780 011d F4       		.byte	-12
 781 011e C2       		.byte	-62
 782 011f CA       		.byte	-54
 783 0120 C4       		.byte	-60
 784 0121 02       		.byte	2
 785 0122 CA       		.byte	-54
 786 0123 22       		.byte	34
 787 0124 CC       		.byte	-52
 788 0125 17       		.byte	23
 789 0126 CE       		.byte	-50
 790 0127 3A       		.byte	58
 791 0128 D0       		.byte	-48
 792 0129 CA       		.byte	-54
 793 012a 96       		.byte	-106
 794 012b 01       		.byte	1
 795 012c B6       		.byte	-74
 796 012d 01       		.byte	1
 797 012e D8       		.byte	-40
 798 012f 08       		.byte	8
 799 0130 DF       		.byte	-33
 800 0131 01       		.byte	1
 801 0132 04       		.byte	4
 802 0133 02       		.byte	2
 803 0134 07       		.byte	7
 804 0135 59       		.byte	89
 805 0136 0A       		.byte	10
 806 0137 10       		.byte	16
 807 0138 0D       		.byte	13
 808 0139 02       		.byte	2
 809 013a 0E       		.byte	14
 810 013b 20       		.byte	32
 811 013c 0F       		.byte	15
 812 013d 06       		.byte	6
 813 013e 14       		.byte	20
 814 013f 08       		.byte	8
 815 0140 15       		.byte	21
 816 0141 04       		.byte	4
 817 0142 16       		.byte	22
ARM GAS  C:\Users\PRICHA~1\AppData\Local\Temp\cc26uNke.s 			page 27


 818 0143 82       		.byte	-126
 819 0144 18       		.byte	24
 820 0145 01       		.byte	1
 821 0146 1E       		.byte	30
 822 0147 5A       		.byte	90
 823 0148 27       		.byte	39
 824 0149 19       		.byte	25
 825 014a 2E       		.byte	46
 826 014b 82       		.byte	-126
 827 014c 35       		.byte	53
 828 014d 08       		.byte	8
 829 014e 36       		.byte	54
 830 014f 10       		.byte	16
 831 0150 37       		.byte	55
 832 0151 40       		.byte	64
 833 0152 3D       		.byte	61
 834 0153 04       		.byte	4
 835 0154 3F       		.byte	63
 836 0155 02       		.byte	2
 837 0156 45       		.byte	69
 838 0157 08       		.byte	8
 839 0158 47       		.byte	71
 840 0159 02       		.byte	2
 841 015a 4D       		.byte	77
 842 015b 08       		.byte	8
 843 015c 4F       		.byte	79
 844 015d 06       		.byte	6
 845 015e 56       		.byte	86
 846 015f 9A       		.byte	-102
 847 0160 5E       		.byte	94
 848 0161 4A       		.byte	74
 849 0162 5F       		.byte	95
 850 0163 20       		.byte	32
 851 0164 66       		.byte	102
 852 0165 18       		.byte	24
 853 0166 7A       		.byte	122
 854 0167 02       		.byte	2
 855 0168 82       		.byte	-126
 856 0169 80       		.byte	-128
 857 016a 83       		.byte	-125
 858 016b 20       		.byte	32
 859 016c 88       		.byte	-120
 860 016d 08       		.byte	8
 861 016e 8C       		.byte	-116
 862 016f 01       		.byte	1
 863 0170 90       		.byte	-112
 864 0171 02       		.byte	2
 865 0172 91       		.byte	-111
 866 0173 04       		.byte	4
 867 0174 96       		.byte	-106
 868 0175 10       		.byte	16
 869 0176 9B       		.byte	-101
 870 0177 02       		.byte	2
 871 0178 A1       		.byte	-95
 872 0179 0A       		.byte	10
 873 017a A2       		.byte	-94
 874 017b 12       		.byte	18
ARM GAS  C:\Users\PRICHA~1\AppData\Local\Temp\cc26uNke.s 			page 28


 875 017c AA       		.byte	-86
 876 017d 80       		.byte	-128
 877 017e AF       		.byte	-81
 878 017f 04       		.byte	4
 879 0180 B5       		.byte	-75
 880 0181 10       		.byte	16
 881 0182 C0       		.byte	-64
 882 0183 F0       		.byte	-16
 883 0184 C2       		.byte	-62
 884 0185 F4       		.byte	-12
 885 0186 C4       		.byte	-60
 886 0187 F0       		.byte	-16
 887 0188 CA       		.byte	-54
 888 0189 90       		.byte	-112
 889 018a CC       		.byte	-52
 890 018b 70       		.byte	112
 891 018c CE       		.byte	-50
 892 018d C0       		.byte	-64
 893 018e D0       		.byte	-48
 894 018f C0       		.byte	-64
 895 0190 D6       		.byte	-42
 896 0191 F0       		.byte	-16
 897 0192 D8       		.byte	-40
 898 0193 60       		.byte	96
 899 0194 DE       		.byte	-34
 900 0195 08       		.byte	8
 901 0196 E0       		.byte	-32
 902 0197 80       		.byte	-128
 903 0198 E8       		.byte	-24
 904 0199 40       		.byte	64
 905 019a EC       		.byte	-20
 906 019b 40       		.byte	64
 907 019c 01       		.byte	1
 908 019d 48       		.byte	72
 909 019e 04       		.byte	4
 910 019f 20       		.byte	32
 911 01a0 05       		.byte	5
 912 01a1 02       		.byte	2
 913 01a2 07       		.byte	7
 914 01a3 04       		.byte	4
 915 01a4 0E       		.byte	14
 916 01a5 08       		.byte	8
 917 01a6 6E       		.byte	110
 918 01a7 08       		.byte	8
 919 01a8 C0       		.byte	-64
 920 01a9 F0       		.byte	-16
 921 01aa C2       		.byte	-62
 922 01ab 80       		.byte	-128
 923 01ac DA       		.byte	-38
 924 01ad 80       		.byte	-128
 925 01ae 89       		.byte	-119
 926 01af 08       		.byte	8
 927 01b0 99       		.byte	-103
 928 01b1 08       		.byte	8
 929 01b2 AB       		.byte	-85
 930 01b3 04       		.byte	4
 931 01b4 AD       		.byte	-83
ARM GAS  C:\Users\PRICHA~1\AppData\Local\Temp\cc26uNke.s 			page 29


 932 01b5 02       		.byte	2
 933 01b6 B4       		.byte	-76
 934 01b7 10       		.byte	16
 935 01b8 B5       		.byte	-75
 936 01b9 40       		.byte	64
 937 01ba E8       		.byte	-24
 938 01bb 80       		.byte	-128
 939 01bc EC       		.byte	-20
 940 01bd 10       		.byte	16
 941 01be 50       		.byte	80
 942 01bf 10       		.byte	16
 943 01c0 56       		.byte	86
 944 01c1 02       		.byte	2
 945 01c2 61       		.byte	97
 946 01c3 02       		.byte	2
 947 01c4 D4       		.byte	-44
 948 01c5 04       		.byte	4
 949 01c6 D6       		.byte	-42
 950 01c7 04       		.byte	4
 951 01c8 D8       		.byte	-40
 952 01c9 02       		.byte	2
 953 01ca 8D       		.byte	-115
 954 01cb 02       		.byte	2
 955 01cc A5       		.byte	-91
 956 01cd 02       		.byte	2
 957 01ce B4       		.byte	-76
 958 01cf 10       		.byte	16
 959 01d0 B6       		.byte	-74
 960 01d1 02       		.byte	2
 961 01d2 E4       		.byte	-28
 962 01d3 08       		.byte	8
 963 01d4 E8       		.byte	-24
 964 01d5 02       		.byte	2
 965 01d6 EC       		.byte	-20
 966 01d7 02       		.byte	2
 967 01d8 01       		.byte	1
 968 01d9 01       		.byte	1
 969 01da 10       		.byte	16
 970 01db 01       		.byte	1
 971              		.type	cy_cfg_addr_table.4864, %object
 972              		.size	cy_cfg_addr_table.4864, 40
 973              	cy_cfg_addr_table.4864:
 974 01dc 01000F40 		.word	1074724865
 975 01e0 58300F40 		.word	1074737240
 976 01e4 2C310F40 		.word	1074737452
 977 01e8 04320F40 		.word	1074737668
 978 01ec 35330F40 		.word	1074737973
 979 01f0 09400F40 		.word	1074741257
 980 01f4 08410F40 		.word	1074741512
 981 01f8 06420F40 		.word	1074741766
 982 01fc 07430F40 		.word	1074742023
 983 0200 02600F40 		.word	1074749442
 984              		.type	BS_UDB_0_0_1_CONFIG_VAL.4876, %object
 985              		.size	BS_UDB_0_0_1_CONFIG_VAL.4876, 128
 986              	BS_UDB_0_0_1_CONFIG_VAL.4876:
 987 0204 06       		.byte	6
 988 0205 18       		.byte	24
ARM GAS  C:\Users\PRICHA~1\AppData\Local\Temp\cc26uNke.s 			page 30


 989 0206 11       		.byte	17
 990 0207 03       		.byte	3
 991 0208 20       		.byte	32
 992 0209 07       		.byte	7
 993 020a 00       		.byte	0
 994 020b 08       		.byte	8
 995 020c 80       		.byte	-128
 996 020d 00       		.byte	0
 997 020e 00       		.byte	0
 998 020f 00       		.byte	0
 999 0210 1F       		.byte	31
 1000 0211 00       		.byte	0
 1001 0212 00       		.byte	0
 1002 0213 00       		.byte	0
 1003 0214 00       		.byte	0
 1004 0215 00       		.byte	0
 1005 0216 40       		.byte	64
 1006 0217 00       		.byte	0
 1007 0218 01       		.byte	1
 1008 0219 00       		.byte	0
 1009 021a 12       		.byte	18
 1010 021b 40       		.byte	64
 1011 021c 00       		.byte	0
 1012 021d 01       		.byte	1
 1013 021e 20       		.byte	32
 1014 021f 12       		.byte	18
 1015 0220 18       		.byte	24
 1016 0221 06       		.byte	6
 1017 0222 03       		.byte	3
 1018 0223 11       		.byte	17
 1019 0224 00       		.byte	0
 1020 0225 10       		.byte	16
 1021 0226 80       		.byte	-128
 1022 0227 04       		.byte	4
 1023 0228 07       		.byte	7
 1024 0229 00       		.byte	0
 1025 022a 08       		.byte	8
 1026 022b 00       		.byte	0
 1027 022c 00       		.byte	0
 1028 022d 00       		.byte	0
 1029 022e 40       		.byte	64
 1030 022f 00       		.byte	0
 1031 0230 10       		.byte	16
 1032 0231 00       		.byte	0
 1033 0232 04       		.byte	4
 1034 0233 20       		.byte	32
 1035 0234 1F       		.byte	31
 1036 0235 00       		.byte	0
 1037 0236 40       		.byte	64
 1038 0237 40       		.byte	64
 1039 0238 20       		.byte	32
 1040 0239 20       		.byte	32
 1041 023a 80       		.byte	-128
 1042 023b 1F       		.byte	31
 1043 023c 00       		.byte	0
 1044 023d 00       		.byte	0
 1045 023e 00       		.byte	0
ARM GAS  C:\Users\PRICHA~1\AppData\Local\Temp\cc26uNke.s 			page 31


 1046 023f 00       		.byte	0
 1047 0240 00       		.byte	0
 1048 0241 00       		.byte	0
 1049 0242 51       		.byte	81
 1050 0243 00       		.byte	0
 1051 0244 40       		.byte	64
 1052 0245 03       		.byte	3
 1053 0246 00       		.byte	0
 1054 0247 00       		.byte	0
 1055 0248 00       		.byte	0
 1056 0249 53       		.byte	83
 1057 024a C2       		.byte	-62
 1058 024b 4E       		.byte	78
 1059 024c 3F       		.byte	63
 1060 024d FF       		.byte	-1
 1061 024e FF       		.byte	-1
 1062 024f FF       		.byte	-1
 1063 0250 00       		.byte	0
 1064 0251 AF       		.byte	-81
 1065 0252 07       		.byte	7
 1066 0253 01       		.byte	1
 1067 0254 18       		.byte	24
 1068 0255 00       		.byte	0
 1069 0256 00       		.byte	0
 1070 0257 00       		.byte	0
 1071 0258 0F       		.byte	15
 1072 0259 00       		.byte	0
 1073 025a 00       		.byte	0
 1074 025b 00       		.byte	0
 1075 025c 04       		.byte	4
 1076 025d 04       		.byte	4
 1077 025e 04       		.byte	4
 1078 025f 04       		.byte	4
 1079 0260 00       		.byte	0
 1080 0261 00       		.byte	0
 1081 0262 00       		.byte	0
 1082 0263 01       		.byte	1
 1083 0264 40       		.byte	64
 1084 0265 00       		.byte	0
 1085 0266 80       		.byte	-128
 1086 0267 00       		.byte	0
 1087 0268 40       		.byte	64
 1088 0269 40       		.byte	64
 1089 026a 80       		.byte	-128
 1090 026b 00       		.byte	0
 1091 026c 40       		.byte	64
 1092 026d 00       		.byte	0
 1093 026e 80       		.byte	-128
 1094 026f 00       		.byte	0
 1095 0270 40       		.byte	64
 1096 0271 20       		.byte	32
 1097 0272 80       		.byte	-128
 1098 0273 00       		.byte	0
 1099 0274 00       		.byte	0
 1100 0275 00       		.byte	0
 1101 0276 00       		.byte	0
 1102 0277 00       		.byte	0
ARM GAS  C:\Users\PRICHA~1\AppData\Local\Temp\cc26uNke.s 			page 32


 1103 0278 00       		.byte	0
 1104 0279 00       		.byte	0
 1105 027a 00       		.byte	0
 1106 027b 00       		.byte	0
 1107 027c 00       		.byte	0
 1108 027d 00       		.byte	0
 1109 027e 00       		.byte	0
 1110 027f 00       		.byte	0
 1111 0280 00       		.byte	0
 1112 0281 00       		.byte	0
 1113 0282 00       		.byte	0
 1114 0283 00       		.byte	0
 1115              		.text
 1116              	.Letext0:
 1117              		.file 2 "c:\\program files (x86)\\cypress\\psoc creator\\4.2\\psoc creator\\import\\gnu\\arm\\5.4.
 1118              		.file 3 "Generated_Source\\PSoC4\\cytypes.h"
 1119              		.file 4 "Generated_Source\\PSoC4\\CyLib.h"