ARM GAS  C:\Users\PRICHA~1\AppData\Local\Temp\cc7RLrij.s 			page 1


   1              		.syntax unified
   2              		.cpu cortex-m0
   3              		.fpu softvfp
   4              		.eabi_attribute 20, 1
   5              		.eabi_attribute 21, 1
   6              		.eabi_attribute 23, 3
   7              		.eabi_attribute 24, 1
   8              		.eabi_attribute 25, 1
   9              		.eabi_attribute 26, 1
  10              		.eabi_attribute 30, 1
  11              		.eabi_attribute 34, 0
  12              		.eabi_attribute 18, 4
  13              		.thumb
  14              		.syntax unified
  15              		.file	"event_groups.c"
  16              		.text
  17              	.Ltext0:
  18              		.cfi_sections	.debug_frame
  19              		.section	.text.prvTestWaitCondition,"ax",%progbits
  20              		.align	2
  21              		.code	16
  22              		.thumb_func
  23              		.type	prvTestWaitCondition, %function
  24              	prvTestWaitCondition:
  25              	.LFB41:
  26              		.file 1 "FreeRTOS\\source\\event_groups.c"
   1:FreeRTOS\source/event_groups.c **** /*
   2:FreeRTOS\source/event_groups.c ****  * FreeRTOS Kernel V10.0.1
   3:FreeRTOS\source/event_groups.c ****  * Copyright (C) 2017 Amazon.com, Inc. or its affiliates.  All Rights Reserved.
   4:FreeRTOS\source/event_groups.c ****  *
   5:FreeRTOS\source/event_groups.c ****  * Permission is hereby granted, free of charge, to any person obtaining a copy of
   6:FreeRTOS\source/event_groups.c ****  * this software and associated documentation files (the "Software"), to deal in
   7:FreeRTOS\source/event_groups.c ****  * the Software without restriction, including without limitation the rights to
   8:FreeRTOS\source/event_groups.c ****  * use, copy, modify, merge, publish, distribute, sublicense, and/or sell copies of
   9:FreeRTOS\source/event_groups.c ****  * the Software, and to permit persons to whom the Software is furnished to do so,
  10:FreeRTOS\source/event_groups.c ****  * subject to the following conditions:
  11:FreeRTOS\source/event_groups.c ****  *
  12:FreeRTOS\source/event_groups.c ****  * The above copyright notice and this permission notice shall be included in all
  13:FreeRTOS\source/event_groups.c ****  * copies or substantial portions of the Software.
  14:FreeRTOS\source/event_groups.c ****  *
  15:FreeRTOS\source/event_groups.c ****  * THE SOFTWARE IS PROVIDED "AS IS", WITHOUT WARRANTY OF ANY KIND, EXPRESS OR
  16:FreeRTOS\source/event_groups.c ****  * IMPLIED, INCLUDING BUT NOT LIMITED TO THE WARRANTIES OF MERCHANTABILITY, FITNESS
  17:FreeRTOS\source/event_groups.c ****  * FOR A PARTICULAR PURPOSE AND NONINFRINGEMENT. IN NO EVENT SHALL THE AUTHORS OR
  18:FreeRTOS\source/event_groups.c ****  * COPYRIGHT HOLDERS BE LIABLE FOR ANY CLAIM, DAMAGES OR OTHER LIABILITY, WHETHER
  19:FreeRTOS\source/event_groups.c ****  * IN AN ACTION OF CONTRACT, TORT OR OTHERWISE, ARISING FROM, OUT OF OR IN
  20:FreeRTOS\source/event_groups.c ****  * CONNECTION WITH THE SOFTWARE OR THE USE OR OTHER DEALINGS IN THE SOFTWARE.
  21:FreeRTOS\source/event_groups.c ****  *
  22:FreeRTOS\source/event_groups.c ****  * http://www.FreeRTOS.org
  23:FreeRTOS\source/event_groups.c ****  * http://aws.amazon.com/freertos
  24:FreeRTOS\source/event_groups.c ****  *
  25:FreeRTOS\source/event_groups.c ****  * 1 tab == 4 spaces!
  26:FreeRTOS\source/event_groups.c ****  */
  27:FreeRTOS\source/event_groups.c **** 
  28:FreeRTOS\source/event_groups.c **** /* Standard includes. */
  29:FreeRTOS\source/event_groups.c **** #include <stdlib.h>
  30:FreeRTOS\source/event_groups.c **** 
  31:FreeRTOS\source/event_groups.c **** /* Defining MPU_WRAPPERS_INCLUDED_FROM_API_FILE prevents task.h from redefining
ARM GAS  C:\Users\PRICHA~1\AppData\Local\Temp\cc7RLrij.s 			page 2


  32:FreeRTOS\source/event_groups.c **** all the API functions to use the MPU wrappers.  That should only be done when
  33:FreeRTOS\source/event_groups.c **** task.h is included from an application file. */
  34:FreeRTOS\source/event_groups.c **** #define MPU_WRAPPERS_INCLUDED_FROM_API_FILE
  35:FreeRTOS\source/event_groups.c **** 
  36:FreeRTOS\source/event_groups.c **** /* FreeRTOS includes. */
  37:FreeRTOS\source/event_groups.c **** #include "FreeRTOS.h"
  38:FreeRTOS\source/event_groups.c **** #include "task.h"
  39:FreeRTOS\source/event_groups.c **** #include "timers.h"
  40:FreeRTOS\source/event_groups.c **** #include "event_groups.h"
  41:FreeRTOS\source/event_groups.c **** 
  42:FreeRTOS\source/event_groups.c **** /* Lint e961 and e750 are suppressed as a MISRA exception justified because the
  43:FreeRTOS\source/event_groups.c **** MPU ports require MPU_WRAPPERS_INCLUDED_FROM_API_FILE to be defined for the
  44:FreeRTOS\source/event_groups.c **** header files above, but not in this file, in order to generate the correct
  45:FreeRTOS\source/event_groups.c **** privileged Vs unprivileged linkage and placement. */
  46:FreeRTOS\source/event_groups.c **** #undef MPU_WRAPPERS_INCLUDED_FROM_API_FILE /*lint !e961 !e750. */
  47:FreeRTOS\source/event_groups.c **** 
  48:FreeRTOS\source/event_groups.c **** /* The following bit fields convey control information in a task's event list
  49:FreeRTOS\source/event_groups.c **** item value.  It is important they don't clash with the
  50:FreeRTOS\source/event_groups.c **** taskEVENT_LIST_ITEM_VALUE_IN_USE definition. */
  51:FreeRTOS\source/event_groups.c **** #if configUSE_16_BIT_TICKS == 1
  52:FreeRTOS\source/event_groups.c **** 	#define eventCLEAR_EVENTS_ON_EXIT_BIT	0x0100U
  53:FreeRTOS\source/event_groups.c **** 	#define eventUNBLOCKED_DUE_TO_BIT_SET	0x0200U
  54:FreeRTOS\source/event_groups.c **** 	#define eventWAIT_FOR_ALL_BITS			0x0400U
  55:FreeRTOS\source/event_groups.c **** 	#define eventEVENT_BITS_CONTROL_BYTES	0xff00U
  56:FreeRTOS\source/event_groups.c **** #else
  57:FreeRTOS\source/event_groups.c **** 	#define eventCLEAR_EVENTS_ON_EXIT_BIT	0x01000000UL
  58:FreeRTOS\source/event_groups.c **** 	#define eventUNBLOCKED_DUE_TO_BIT_SET	0x02000000UL
  59:FreeRTOS\source/event_groups.c **** 	#define eventWAIT_FOR_ALL_BITS			0x04000000UL
  60:FreeRTOS\source/event_groups.c **** 	#define eventEVENT_BITS_CONTROL_BYTES	0xff000000UL
  61:FreeRTOS\source/event_groups.c **** #endif
  62:FreeRTOS\source/event_groups.c **** 
  63:FreeRTOS\source/event_groups.c **** typedef struct xEventGroupDefinition
  64:FreeRTOS\source/event_groups.c **** {
  65:FreeRTOS\source/event_groups.c **** 	EventBits_t uxEventBits;
  66:FreeRTOS\source/event_groups.c **** 	List_t xTasksWaitingForBits;		/*< List of tasks waiting for a bit to be set. */
  67:FreeRTOS\source/event_groups.c **** 
  68:FreeRTOS\source/event_groups.c **** 	#if( configUSE_TRACE_FACILITY == 1 )
  69:FreeRTOS\source/event_groups.c **** 		UBaseType_t uxEventGroupNumber;
  70:FreeRTOS\source/event_groups.c **** 	#endif
  71:FreeRTOS\source/event_groups.c **** 
  72:FreeRTOS\source/event_groups.c **** 	#if( ( configSUPPORT_STATIC_ALLOCATION == 1 ) && ( configSUPPORT_DYNAMIC_ALLOCATION == 1 ) )
  73:FreeRTOS\source/event_groups.c **** 		uint8_t ucStaticallyAllocated; /*< Set to pdTRUE if the event group is statically allocated to en
  74:FreeRTOS\source/event_groups.c **** 	#endif
  75:FreeRTOS\source/event_groups.c **** } EventGroup_t;
  76:FreeRTOS\source/event_groups.c **** 
  77:FreeRTOS\source/event_groups.c **** /*-----------------------------------------------------------*/
  78:FreeRTOS\source/event_groups.c **** 
  79:FreeRTOS\source/event_groups.c **** /*
  80:FreeRTOS\source/event_groups.c ****  * Test the bits set in uxCurrentEventBits to see if the wait condition is met.
  81:FreeRTOS\source/event_groups.c ****  * The wait condition is defined by xWaitForAllBits.  If xWaitForAllBits is
  82:FreeRTOS\source/event_groups.c ****  * pdTRUE then the wait condition is met if all the bits set in uxBitsToWaitFor
  83:FreeRTOS\source/event_groups.c ****  * are also set in uxCurrentEventBits.  If xWaitForAllBits is pdFALSE then the
  84:FreeRTOS\source/event_groups.c ****  * wait condition is met if any of the bits set in uxBitsToWait for are also set
  85:FreeRTOS\source/event_groups.c ****  * in uxCurrentEventBits.
  86:FreeRTOS\source/event_groups.c ****  */
  87:FreeRTOS\source/event_groups.c **** static BaseType_t prvTestWaitCondition( const EventBits_t uxCurrentEventBits, const EventBits_t uxB
  88:FreeRTOS\source/event_groups.c **** 
ARM GAS  C:\Users\PRICHA~1\AppData\Local\Temp\cc7RLrij.s 			page 3


  89:FreeRTOS\source/event_groups.c **** /*-----------------------------------------------------------*/
  90:FreeRTOS\source/event_groups.c **** 
  91:FreeRTOS\source/event_groups.c **** #if( configSUPPORT_STATIC_ALLOCATION == 1 )
  92:FreeRTOS\source/event_groups.c **** 
  93:FreeRTOS\source/event_groups.c **** 	EventGroupHandle_t xEventGroupCreateStatic( StaticEventGroup_t *pxEventGroupBuffer )
  94:FreeRTOS\source/event_groups.c **** 	{
  95:FreeRTOS\source/event_groups.c **** 	EventGroup_t *pxEventBits;
  96:FreeRTOS\source/event_groups.c **** 
  97:FreeRTOS\source/event_groups.c **** 		/* A StaticEventGroup_t object must be provided. */
  98:FreeRTOS\source/event_groups.c **** 		configASSERT( pxEventGroupBuffer );
  99:FreeRTOS\source/event_groups.c **** 
 100:FreeRTOS\source/event_groups.c **** 		#if( configASSERT_DEFINED == 1 )
 101:FreeRTOS\source/event_groups.c **** 		{
 102:FreeRTOS\source/event_groups.c **** 			/* Sanity check that the size of the structure used to declare a
 103:FreeRTOS\source/event_groups.c **** 			variable of type StaticEventGroup_t equals the size of the real
 104:FreeRTOS\source/event_groups.c **** 			event group structure. */
 105:FreeRTOS\source/event_groups.c **** 			volatile size_t xSize = sizeof( StaticEventGroup_t );
 106:FreeRTOS\source/event_groups.c **** 			configASSERT( xSize == sizeof( EventGroup_t ) );
 107:FreeRTOS\source/event_groups.c **** 		}
 108:FreeRTOS\source/event_groups.c **** 		#endif /* configASSERT_DEFINED */
 109:FreeRTOS\source/event_groups.c **** 
 110:FreeRTOS\source/event_groups.c **** 		/* The user has provided a statically allocated event group - use it. */
 111:FreeRTOS\source/event_groups.c **** 		pxEventBits = ( EventGroup_t * ) pxEventGroupBuffer; /*lint !e740 EventGroup_t and StaticEventGro
 112:FreeRTOS\source/event_groups.c **** 
 113:FreeRTOS\source/event_groups.c **** 		if( pxEventBits != NULL )
 114:FreeRTOS\source/event_groups.c **** 		{
 115:FreeRTOS\source/event_groups.c **** 			pxEventBits->uxEventBits = 0;
 116:FreeRTOS\source/event_groups.c **** 			vListInitialise( &( pxEventBits->xTasksWaitingForBits ) );
 117:FreeRTOS\source/event_groups.c **** 
 118:FreeRTOS\source/event_groups.c **** 			#if( configSUPPORT_DYNAMIC_ALLOCATION == 1 )
 119:FreeRTOS\source/event_groups.c **** 			{
 120:FreeRTOS\source/event_groups.c **** 				/* Both static and dynamic allocation can be used, so note that
 121:FreeRTOS\source/event_groups.c **** 				this event group was created statically in case the event group
 122:FreeRTOS\source/event_groups.c **** 				is later deleted. */
 123:FreeRTOS\source/event_groups.c **** 				pxEventBits->ucStaticallyAllocated = pdTRUE;
 124:FreeRTOS\source/event_groups.c **** 			}
 125:FreeRTOS\source/event_groups.c **** 			#endif /* configSUPPORT_DYNAMIC_ALLOCATION */
 126:FreeRTOS\source/event_groups.c **** 
 127:FreeRTOS\source/event_groups.c **** 			traceEVENT_GROUP_CREATE( pxEventBits );
 128:FreeRTOS\source/event_groups.c **** 		}
 129:FreeRTOS\source/event_groups.c **** 		else
 130:FreeRTOS\source/event_groups.c **** 		{
 131:FreeRTOS\source/event_groups.c **** 			traceEVENT_GROUP_CREATE_FAILED();
 132:FreeRTOS\source/event_groups.c **** 		}
 133:FreeRTOS\source/event_groups.c **** 
 134:FreeRTOS\source/event_groups.c **** 		return ( EventGroupHandle_t ) pxEventBits;
 135:FreeRTOS\source/event_groups.c **** 	}
 136:FreeRTOS\source/event_groups.c **** 
 137:FreeRTOS\source/event_groups.c **** #endif /* configSUPPORT_STATIC_ALLOCATION */
 138:FreeRTOS\source/event_groups.c **** /*-----------------------------------------------------------*/
 139:FreeRTOS\source/event_groups.c **** 
 140:FreeRTOS\source/event_groups.c **** #if( configSUPPORT_DYNAMIC_ALLOCATION == 1 )
 141:FreeRTOS\source/event_groups.c **** 
 142:FreeRTOS\source/event_groups.c **** 	EventGroupHandle_t xEventGroupCreate( void )
 143:FreeRTOS\source/event_groups.c **** 	{
 144:FreeRTOS\source/event_groups.c **** 	EventGroup_t *pxEventBits;
 145:FreeRTOS\source/event_groups.c **** 
ARM GAS  C:\Users\PRICHA~1\AppData\Local\Temp\cc7RLrij.s 			page 4


 146:FreeRTOS\source/event_groups.c **** 		/* Allocate the event group. */
 147:FreeRTOS\source/event_groups.c **** 		pxEventBits = ( EventGroup_t * ) pvPortMalloc( sizeof( EventGroup_t ) );
 148:FreeRTOS\source/event_groups.c **** 
 149:FreeRTOS\source/event_groups.c **** 		if( pxEventBits != NULL )
 150:FreeRTOS\source/event_groups.c **** 		{
 151:FreeRTOS\source/event_groups.c **** 			pxEventBits->uxEventBits = 0;
 152:FreeRTOS\source/event_groups.c **** 			vListInitialise( &( pxEventBits->xTasksWaitingForBits ) );
 153:FreeRTOS\source/event_groups.c **** 
 154:FreeRTOS\source/event_groups.c **** 			#if( configSUPPORT_STATIC_ALLOCATION == 1 )
 155:FreeRTOS\source/event_groups.c **** 			{
 156:FreeRTOS\source/event_groups.c **** 				/* Both static and dynamic allocation can be used, so note this
 157:FreeRTOS\source/event_groups.c **** 				event group was allocated statically in case the event group is
 158:FreeRTOS\source/event_groups.c **** 				later deleted. */
 159:FreeRTOS\source/event_groups.c **** 				pxEventBits->ucStaticallyAllocated = pdFALSE;
 160:FreeRTOS\source/event_groups.c **** 			}
 161:FreeRTOS\source/event_groups.c **** 			#endif /* configSUPPORT_STATIC_ALLOCATION */
 162:FreeRTOS\source/event_groups.c **** 
 163:FreeRTOS\source/event_groups.c **** 			traceEVENT_GROUP_CREATE( pxEventBits );
 164:FreeRTOS\source/event_groups.c **** 		}
 165:FreeRTOS\source/event_groups.c **** 		else
 166:FreeRTOS\source/event_groups.c **** 		{
 167:FreeRTOS\source/event_groups.c **** 			traceEVENT_GROUP_CREATE_FAILED();
 168:FreeRTOS\source/event_groups.c **** 		}
 169:FreeRTOS\source/event_groups.c **** 
 170:FreeRTOS\source/event_groups.c **** 		return ( EventGroupHandle_t ) pxEventBits;
 171:FreeRTOS\source/event_groups.c **** 	}
 172:FreeRTOS\source/event_groups.c **** 
 173:FreeRTOS\source/event_groups.c **** #endif /* configSUPPORT_DYNAMIC_ALLOCATION */
 174:FreeRTOS\source/event_groups.c **** /*-----------------------------------------------------------*/
 175:FreeRTOS\source/event_groups.c **** 
 176:FreeRTOS\source/event_groups.c **** EventBits_t xEventGroupSync( EventGroupHandle_t xEventGroup, const EventBits_t uxBitsToSet, const E
 177:FreeRTOS\source/event_groups.c **** {
 178:FreeRTOS\source/event_groups.c **** EventBits_t uxOriginalBitValue, uxReturn;
 179:FreeRTOS\source/event_groups.c **** EventGroup_t *pxEventBits = ( EventGroup_t * ) xEventGroup;
 180:FreeRTOS\source/event_groups.c **** BaseType_t xAlreadyYielded;
 181:FreeRTOS\source/event_groups.c **** BaseType_t xTimeoutOccurred = pdFALSE;
 182:FreeRTOS\source/event_groups.c **** 
 183:FreeRTOS\source/event_groups.c **** 	configASSERT( ( uxBitsToWaitFor & eventEVENT_BITS_CONTROL_BYTES ) == 0 );
 184:FreeRTOS\source/event_groups.c **** 	configASSERT( uxBitsToWaitFor != 0 );
 185:FreeRTOS\source/event_groups.c **** 	#if ( ( INCLUDE_xTaskGetSchedulerState == 1 ) || ( configUSE_TIMERS == 1 ) )
 186:FreeRTOS\source/event_groups.c **** 	{
 187:FreeRTOS\source/event_groups.c **** 		configASSERT( !( ( xTaskGetSchedulerState() == taskSCHEDULER_SUSPENDED ) && ( xTicksToWait != 0 )
 188:FreeRTOS\source/event_groups.c **** 	}
 189:FreeRTOS\source/event_groups.c **** 	#endif
 190:FreeRTOS\source/event_groups.c **** 
 191:FreeRTOS\source/event_groups.c **** 	vTaskSuspendAll();
 192:FreeRTOS\source/event_groups.c **** 	{
 193:FreeRTOS\source/event_groups.c **** 		uxOriginalBitValue = pxEventBits->uxEventBits;
 194:FreeRTOS\source/event_groups.c **** 
 195:FreeRTOS\source/event_groups.c **** 		( void ) xEventGroupSetBits( xEventGroup, uxBitsToSet );
 196:FreeRTOS\source/event_groups.c **** 
 197:FreeRTOS\source/event_groups.c **** 		if( ( ( uxOriginalBitValue | uxBitsToSet ) & uxBitsToWaitFor ) == uxBitsToWaitFor )
 198:FreeRTOS\source/event_groups.c **** 		{
 199:FreeRTOS\source/event_groups.c **** 			/* All the rendezvous bits are now set - no need to block. */
 200:FreeRTOS\source/event_groups.c **** 			uxReturn = ( uxOriginalBitValue | uxBitsToSet );
 201:FreeRTOS\source/event_groups.c **** 
 202:FreeRTOS\source/event_groups.c **** 			/* Rendezvous always clear the bits.  They will have been cleared
ARM GAS  C:\Users\PRICHA~1\AppData\Local\Temp\cc7RLrij.s 			page 5


 203:FreeRTOS\source/event_groups.c **** 			already unless this is the only task in the rendezvous. */
 204:FreeRTOS\source/event_groups.c **** 			pxEventBits->uxEventBits &= ~uxBitsToWaitFor;
 205:FreeRTOS\source/event_groups.c **** 
 206:FreeRTOS\source/event_groups.c **** 			xTicksToWait = 0;
 207:FreeRTOS\source/event_groups.c **** 		}
 208:FreeRTOS\source/event_groups.c **** 		else
 209:FreeRTOS\source/event_groups.c **** 		{
 210:FreeRTOS\source/event_groups.c **** 			if( xTicksToWait != ( TickType_t ) 0 )
 211:FreeRTOS\source/event_groups.c **** 			{
 212:FreeRTOS\source/event_groups.c **** 				traceEVENT_GROUP_SYNC_BLOCK( xEventGroup, uxBitsToSet, uxBitsToWaitFor );
 213:FreeRTOS\source/event_groups.c **** 
 214:FreeRTOS\source/event_groups.c **** 				/* Store the bits that the calling task is waiting for in the
 215:FreeRTOS\source/event_groups.c **** 				task's event list item so the kernel knows when a match is
 216:FreeRTOS\source/event_groups.c **** 				found.  Then enter the blocked state. */
 217:FreeRTOS\source/event_groups.c **** 				vTaskPlaceOnUnorderedEventList( &( pxEventBits->xTasksWaitingForBits ), ( uxBitsToWaitFor | eve
 218:FreeRTOS\source/event_groups.c **** 
 219:FreeRTOS\source/event_groups.c **** 				/* This assignment is obsolete as uxReturn will get set after
 220:FreeRTOS\source/event_groups.c **** 				the task unblocks, but some compilers mistakenly generate a
 221:FreeRTOS\source/event_groups.c **** 				warning about uxReturn being returned without being set if the
 222:FreeRTOS\source/event_groups.c **** 				assignment is omitted. */
 223:FreeRTOS\source/event_groups.c **** 				uxReturn = 0;
 224:FreeRTOS\source/event_groups.c **** 			}
 225:FreeRTOS\source/event_groups.c **** 			else
 226:FreeRTOS\source/event_groups.c **** 			{
 227:FreeRTOS\source/event_groups.c **** 				/* The rendezvous bits were not set, but no block time was
 228:FreeRTOS\source/event_groups.c **** 				specified - just return the current event bit value. */
 229:FreeRTOS\source/event_groups.c **** 				uxReturn = pxEventBits->uxEventBits;
 230:FreeRTOS\source/event_groups.c **** 				xTimeoutOccurred = pdTRUE;
 231:FreeRTOS\source/event_groups.c **** 			}
 232:FreeRTOS\source/event_groups.c **** 		}
 233:FreeRTOS\source/event_groups.c **** 	}
 234:FreeRTOS\source/event_groups.c **** 	xAlreadyYielded = xTaskResumeAll();
 235:FreeRTOS\source/event_groups.c **** 
 236:FreeRTOS\source/event_groups.c **** 	if( xTicksToWait != ( TickType_t ) 0 )
 237:FreeRTOS\source/event_groups.c **** 	{
 238:FreeRTOS\source/event_groups.c **** 		if( xAlreadyYielded == pdFALSE )
 239:FreeRTOS\source/event_groups.c **** 		{
 240:FreeRTOS\source/event_groups.c **** 			portYIELD_WITHIN_API();
 241:FreeRTOS\source/event_groups.c **** 		}
 242:FreeRTOS\source/event_groups.c **** 		else
 243:FreeRTOS\source/event_groups.c **** 		{
 244:FreeRTOS\source/event_groups.c **** 			mtCOVERAGE_TEST_MARKER();
 245:FreeRTOS\source/event_groups.c **** 		}
 246:FreeRTOS\source/event_groups.c **** 
 247:FreeRTOS\source/event_groups.c **** 		/* The task blocked to wait for its required bits to be set - at this
 248:FreeRTOS\source/event_groups.c **** 		point either the required bits were set or the block time expired.  If
 249:FreeRTOS\source/event_groups.c **** 		the required bits were set they will have been stored in the task's
 250:FreeRTOS\source/event_groups.c **** 		event list item, and they should now be retrieved then cleared. */
 251:FreeRTOS\source/event_groups.c **** 		uxReturn = uxTaskResetEventItemValue();
 252:FreeRTOS\source/event_groups.c **** 
 253:FreeRTOS\source/event_groups.c **** 		if( ( uxReturn & eventUNBLOCKED_DUE_TO_BIT_SET ) == ( EventBits_t ) 0 )
 254:FreeRTOS\source/event_groups.c **** 		{
 255:FreeRTOS\source/event_groups.c **** 			/* The task timed out, just return the current event bit value. */
 256:FreeRTOS\source/event_groups.c **** 			taskENTER_CRITICAL();
 257:FreeRTOS\source/event_groups.c **** 			{
 258:FreeRTOS\source/event_groups.c **** 				uxReturn = pxEventBits->uxEventBits;
 259:FreeRTOS\source/event_groups.c **** 
ARM GAS  C:\Users\PRICHA~1\AppData\Local\Temp\cc7RLrij.s 			page 6


 260:FreeRTOS\source/event_groups.c **** 				/* Although the task got here because it timed out before the
 261:FreeRTOS\source/event_groups.c **** 				bits it was waiting for were set, it is possible that since it
 262:FreeRTOS\source/event_groups.c **** 				unblocked another task has set the bits.  If this is the case
 263:FreeRTOS\source/event_groups.c **** 				then it needs to clear the bits before exiting. */
 264:FreeRTOS\source/event_groups.c **** 				if( ( uxReturn & uxBitsToWaitFor ) == uxBitsToWaitFor )
 265:FreeRTOS\source/event_groups.c **** 				{
 266:FreeRTOS\source/event_groups.c **** 					pxEventBits->uxEventBits &= ~uxBitsToWaitFor;
 267:FreeRTOS\source/event_groups.c **** 				}
 268:FreeRTOS\source/event_groups.c **** 				else
 269:FreeRTOS\source/event_groups.c **** 				{
 270:FreeRTOS\source/event_groups.c **** 					mtCOVERAGE_TEST_MARKER();
 271:FreeRTOS\source/event_groups.c **** 				}
 272:FreeRTOS\source/event_groups.c **** 			}
 273:FreeRTOS\source/event_groups.c **** 			taskEXIT_CRITICAL();
 274:FreeRTOS\source/event_groups.c **** 
 275:FreeRTOS\source/event_groups.c **** 			xTimeoutOccurred = pdTRUE;
 276:FreeRTOS\source/event_groups.c **** 		}
 277:FreeRTOS\source/event_groups.c **** 		else
 278:FreeRTOS\source/event_groups.c **** 		{
 279:FreeRTOS\source/event_groups.c **** 			/* The task unblocked because the bits were set. */
 280:FreeRTOS\source/event_groups.c **** 		}
 281:FreeRTOS\source/event_groups.c **** 
 282:FreeRTOS\source/event_groups.c **** 		/* Control bits might be set as the task had blocked should not be
 283:FreeRTOS\source/event_groups.c **** 		returned. */
 284:FreeRTOS\source/event_groups.c **** 		uxReturn &= ~eventEVENT_BITS_CONTROL_BYTES;
 285:FreeRTOS\source/event_groups.c **** 	}
 286:FreeRTOS\source/event_groups.c **** 
 287:FreeRTOS\source/event_groups.c **** 	traceEVENT_GROUP_SYNC_END( xEventGroup, uxBitsToSet, uxBitsToWaitFor, xTimeoutOccurred );
 288:FreeRTOS\source/event_groups.c **** 
 289:FreeRTOS\source/event_groups.c **** 	/* Prevent compiler warnings when trace macros are not used. */
 290:FreeRTOS\source/event_groups.c **** 	( void ) xTimeoutOccurred;
 291:FreeRTOS\source/event_groups.c **** 
 292:FreeRTOS\source/event_groups.c **** 	return uxReturn;
 293:FreeRTOS\source/event_groups.c **** }
 294:FreeRTOS\source/event_groups.c **** /*-----------------------------------------------------------*/
 295:FreeRTOS\source/event_groups.c **** 
 296:FreeRTOS\source/event_groups.c **** EventBits_t xEventGroupWaitBits( EventGroupHandle_t xEventGroup, const EventBits_t uxBitsToWaitFor,
 297:FreeRTOS\source/event_groups.c **** {
 298:FreeRTOS\source/event_groups.c **** EventGroup_t *pxEventBits = ( EventGroup_t * ) xEventGroup;
 299:FreeRTOS\source/event_groups.c **** EventBits_t uxReturn, uxControlBits = 0;
 300:FreeRTOS\source/event_groups.c **** BaseType_t xWaitConditionMet, xAlreadyYielded;
 301:FreeRTOS\source/event_groups.c **** BaseType_t xTimeoutOccurred = pdFALSE;
 302:FreeRTOS\source/event_groups.c **** 
 303:FreeRTOS\source/event_groups.c **** 	/* Check the user is not attempting to wait on the bits used by the kernel
 304:FreeRTOS\source/event_groups.c **** 	itself, and that at least one bit is being requested. */
 305:FreeRTOS\source/event_groups.c **** 	configASSERT( xEventGroup );
 306:FreeRTOS\source/event_groups.c **** 	configASSERT( ( uxBitsToWaitFor & eventEVENT_BITS_CONTROL_BYTES ) == 0 );
 307:FreeRTOS\source/event_groups.c **** 	configASSERT( uxBitsToWaitFor != 0 );
 308:FreeRTOS\source/event_groups.c **** 	#if ( ( INCLUDE_xTaskGetSchedulerState == 1 ) || ( configUSE_TIMERS == 1 ) )
 309:FreeRTOS\source/event_groups.c **** 	{
 310:FreeRTOS\source/event_groups.c **** 		configASSERT( !( ( xTaskGetSchedulerState() == taskSCHEDULER_SUSPENDED ) && ( xTicksToWait != 0 )
 311:FreeRTOS\source/event_groups.c **** 	}
 312:FreeRTOS\source/event_groups.c **** 	#endif
 313:FreeRTOS\source/event_groups.c **** 
 314:FreeRTOS\source/event_groups.c **** 	vTaskSuspendAll();
 315:FreeRTOS\source/event_groups.c **** 	{
 316:FreeRTOS\source/event_groups.c **** 		const EventBits_t uxCurrentEventBits = pxEventBits->uxEventBits;
ARM GAS  C:\Users\PRICHA~1\AppData\Local\Temp\cc7RLrij.s 			page 7


 317:FreeRTOS\source/event_groups.c **** 
 318:FreeRTOS\source/event_groups.c **** 		/* Check to see if the wait condition is already met or not. */
 319:FreeRTOS\source/event_groups.c **** 		xWaitConditionMet = prvTestWaitCondition( uxCurrentEventBits, uxBitsToWaitFor, xWaitForAllBits );
 320:FreeRTOS\source/event_groups.c **** 
 321:FreeRTOS\source/event_groups.c **** 		if( xWaitConditionMet != pdFALSE )
 322:FreeRTOS\source/event_groups.c **** 		{
 323:FreeRTOS\source/event_groups.c **** 			/* The wait condition has already been met so there is no need to
 324:FreeRTOS\source/event_groups.c **** 			block. */
 325:FreeRTOS\source/event_groups.c **** 			uxReturn = uxCurrentEventBits;
 326:FreeRTOS\source/event_groups.c **** 			xTicksToWait = ( TickType_t ) 0;
 327:FreeRTOS\source/event_groups.c **** 
 328:FreeRTOS\source/event_groups.c **** 			/* Clear the wait bits if requested to do so. */
 329:FreeRTOS\source/event_groups.c **** 			if( xClearOnExit != pdFALSE )
 330:FreeRTOS\source/event_groups.c **** 			{
 331:FreeRTOS\source/event_groups.c **** 				pxEventBits->uxEventBits &= ~uxBitsToWaitFor;
 332:FreeRTOS\source/event_groups.c **** 			}
 333:FreeRTOS\source/event_groups.c **** 			else
 334:FreeRTOS\source/event_groups.c **** 			{
 335:FreeRTOS\source/event_groups.c **** 				mtCOVERAGE_TEST_MARKER();
 336:FreeRTOS\source/event_groups.c **** 			}
 337:FreeRTOS\source/event_groups.c **** 		}
 338:FreeRTOS\source/event_groups.c **** 		else if( xTicksToWait == ( TickType_t ) 0 )
 339:FreeRTOS\source/event_groups.c **** 		{
 340:FreeRTOS\source/event_groups.c **** 			/* The wait condition has not been met, but no block time was
 341:FreeRTOS\source/event_groups.c **** 			specified, so just return the current value. */
 342:FreeRTOS\source/event_groups.c **** 			uxReturn = uxCurrentEventBits;
 343:FreeRTOS\source/event_groups.c **** 			xTimeoutOccurred = pdTRUE;
 344:FreeRTOS\source/event_groups.c **** 		}
 345:FreeRTOS\source/event_groups.c **** 		else
 346:FreeRTOS\source/event_groups.c **** 		{
 347:FreeRTOS\source/event_groups.c **** 			/* The task is going to block to wait for its required bits to be
 348:FreeRTOS\source/event_groups.c **** 			set.  uxControlBits are used to remember the specified behaviour of
 349:FreeRTOS\source/event_groups.c **** 			this call to xEventGroupWaitBits() - for use when the event bits
 350:FreeRTOS\source/event_groups.c **** 			unblock the task. */
 351:FreeRTOS\source/event_groups.c **** 			if( xClearOnExit != pdFALSE )
 352:FreeRTOS\source/event_groups.c **** 			{
 353:FreeRTOS\source/event_groups.c **** 				uxControlBits |= eventCLEAR_EVENTS_ON_EXIT_BIT;
 354:FreeRTOS\source/event_groups.c **** 			}
 355:FreeRTOS\source/event_groups.c **** 			else
 356:FreeRTOS\source/event_groups.c **** 			{
 357:FreeRTOS\source/event_groups.c **** 				mtCOVERAGE_TEST_MARKER();
 358:FreeRTOS\source/event_groups.c **** 			}
 359:FreeRTOS\source/event_groups.c **** 
 360:FreeRTOS\source/event_groups.c **** 			if( xWaitForAllBits != pdFALSE )
 361:FreeRTOS\source/event_groups.c **** 			{
 362:FreeRTOS\source/event_groups.c **** 				uxControlBits |= eventWAIT_FOR_ALL_BITS;
 363:FreeRTOS\source/event_groups.c **** 			}
 364:FreeRTOS\source/event_groups.c **** 			else
 365:FreeRTOS\source/event_groups.c **** 			{
 366:FreeRTOS\source/event_groups.c **** 				mtCOVERAGE_TEST_MARKER();
 367:FreeRTOS\source/event_groups.c **** 			}
 368:FreeRTOS\source/event_groups.c **** 
 369:FreeRTOS\source/event_groups.c **** 			/* Store the bits that the calling task is waiting for in the
 370:FreeRTOS\source/event_groups.c **** 			task's event list item so the kernel knows when a match is
 371:FreeRTOS\source/event_groups.c **** 			found.  Then enter the blocked state. */
 372:FreeRTOS\source/event_groups.c **** 			vTaskPlaceOnUnorderedEventList( &( pxEventBits->xTasksWaitingForBits ), ( uxBitsToWaitFor | uxCo
 373:FreeRTOS\source/event_groups.c **** 
ARM GAS  C:\Users\PRICHA~1\AppData\Local\Temp\cc7RLrij.s 			page 8


 374:FreeRTOS\source/event_groups.c **** 			/* This is obsolete as it will get set after the task unblocks, but
 375:FreeRTOS\source/event_groups.c **** 			some compilers mistakenly generate a warning about the variable
 376:FreeRTOS\source/event_groups.c **** 			being returned without being set if it is not done. */
 377:FreeRTOS\source/event_groups.c **** 			uxReturn = 0;
 378:FreeRTOS\source/event_groups.c **** 
 379:FreeRTOS\source/event_groups.c **** 			traceEVENT_GROUP_WAIT_BITS_BLOCK( xEventGroup, uxBitsToWaitFor );
 380:FreeRTOS\source/event_groups.c **** 		}
 381:FreeRTOS\source/event_groups.c **** 	}
 382:FreeRTOS\source/event_groups.c **** 	xAlreadyYielded = xTaskResumeAll();
 383:FreeRTOS\source/event_groups.c **** 
 384:FreeRTOS\source/event_groups.c **** 	if( xTicksToWait != ( TickType_t ) 0 )
 385:FreeRTOS\source/event_groups.c **** 	{
 386:FreeRTOS\source/event_groups.c **** 		if( xAlreadyYielded == pdFALSE )
 387:FreeRTOS\source/event_groups.c **** 		{
 388:FreeRTOS\source/event_groups.c **** 			portYIELD_WITHIN_API();
 389:FreeRTOS\source/event_groups.c **** 		}
 390:FreeRTOS\source/event_groups.c **** 		else
 391:FreeRTOS\source/event_groups.c **** 		{
 392:FreeRTOS\source/event_groups.c **** 			mtCOVERAGE_TEST_MARKER();
 393:FreeRTOS\source/event_groups.c **** 		}
 394:FreeRTOS\source/event_groups.c **** 
 395:FreeRTOS\source/event_groups.c **** 		/* The task blocked to wait for its required bits to be set - at this
 396:FreeRTOS\source/event_groups.c **** 		point either the required bits were set or the block time expired.  If
 397:FreeRTOS\source/event_groups.c **** 		the required bits were set they will have been stored in the task's
 398:FreeRTOS\source/event_groups.c **** 		event list item, and they should now be retrieved then cleared. */
 399:FreeRTOS\source/event_groups.c **** 		uxReturn = uxTaskResetEventItemValue();
 400:FreeRTOS\source/event_groups.c **** 
 401:FreeRTOS\source/event_groups.c **** 		if( ( uxReturn & eventUNBLOCKED_DUE_TO_BIT_SET ) == ( EventBits_t ) 0 )
 402:FreeRTOS\source/event_groups.c **** 		{
 403:FreeRTOS\source/event_groups.c **** 			taskENTER_CRITICAL();
 404:FreeRTOS\source/event_groups.c **** 			{
 405:FreeRTOS\source/event_groups.c **** 				/* The task timed out, just return the current event bit value. */
 406:FreeRTOS\source/event_groups.c **** 				uxReturn = pxEventBits->uxEventBits;
 407:FreeRTOS\source/event_groups.c **** 
 408:FreeRTOS\source/event_groups.c **** 				/* It is possible that the event bits were updated between this
 409:FreeRTOS\source/event_groups.c **** 				task leaving the Blocked state and running again. */
 410:FreeRTOS\source/event_groups.c **** 				if( prvTestWaitCondition( uxReturn, uxBitsToWaitFor, xWaitForAllBits ) != pdFALSE )
 411:FreeRTOS\source/event_groups.c **** 				{
 412:FreeRTOS\source/event_groups.c **** 					if( xClearOnExit != pdFALSE )
 413:FreeRTOS\source/event_groups.c **** 					{
 414:FreeRTOS\source/event_groups.c **** 						pxEventBits->uxEventBits &= ~uxBitsToWaitFor;
 415:FreeRTOS\source/event_groups.c **** 					}
 416:FreeRTOS\source/event_groups.c **** 					else
 417:FreeRTOS\source/event_groups.c **** 					{
 418:FreeRTOS\source/event_groups.c **** 						mtCOVERAGE_TEST_MARKER();
 419:FreeRTOS\source/event_groups.c **** 					}
 420:FreeRTOS\source/event_groups.c **** 				}
 421:FreeRTOS\source/event_groups.c **** 				else
 422:FreeRTOS\source/event_groups.c **** 				{
 423:FreeRTOS\source/event_groups.c **** 					mtCOVERAGE_TEST_MARKER();
 424:FreeRTOS\source/event_groups.c **** 				}
 425:FreeRTOS\source/event_groups.c **** 				xTimeoutOccurred = pdTRUE;
 426:FreeRTOS\source/event_groups.c **** 			}
 427:FreeRTOS\source/event_groups.c **** 			taskEXIT_CRITICAL();
 428:FreeRTOS\source/event_groups.c **** 		}
 429:FreeRTOS\source/event_groups.c **** 		else
 430:FreeRTOS\source/event_groups.c **** 		{
ARM GAS  C:\Users\PRICHA~1\AppData\Local\Temp\cc7RLrij.s 			page 9


 431:FreeRTOS\source/event_groups.c **** 			/* The task unblocked because the bits were set. */
 432:FreeRTOS\source/event_groups.c **** 		}
 433:FreeRTOS\source/event_groups.c **** 
 434:FreeRTOS\source/event_groups.c **** 		/* The task blocked so control bits may have been set. */
 435:FreeRTOS\source/event_groups.c **** 		uxReturn &= ~eventEVENT_BITS_CONTROL_BYTES;
 436:FreeRTOS\source/event_groups.c **** 	}
 437:FreeRTOS\source/event_groups.c **** 	traceEVENT_GROUP_WAIT_BITS_END( xEventGroup, uxBitsToWaitFor, xTimeoutOccurred );
 438:FreeRTOS\source/event_groups.c **** 
 439:FreeRTOS\source/event_groups.c **** 	/* Prevent compiler warnings when trace macros are not used. */
 440:FreeRTOS\source/event_groups.c **** 	( void ) xTimeoutOccurred;
 441:FreeRTOS\source/event_groups.c **** 
 442:FreeRTOS\source/event_groups.c **** 	return uxReturn;
 443:FreeRTOS\source/event_groups.c **** }
 444:FreeRTOS\source/event_groups.c **** /*-----------------------------------------------------------*/
 445:FreeRTOS\source/event_groups.c **** 
 446:FreeRTOS\source/event_groups.c **** EventBits_t xEventGroupClearBits( EventGroupHandle_t xEventGroup, const EventBits_t uxBitsToClear )
 447:FreeRTOS\source/event_groups.c **** {
 448:FreeRTOS\source/event_groups.c **** EventGroup_t *pxEventBits = ( EventGroup_t * ) xEventGroup;
 449:FreeRTOS\source/event_groups.c **** EventBits_t uxReturn;
 450:FreeRTOS\source/event_groups.c **** 
 451:FreeRTOS\source/event_groups.c **** 	/* Check the user is not attempting to clear the bits used by the kernel
 452:FreeRTOS\source/event_groups.c **** 	itself. */
 453:FreeRTOS\source/event_groups.c **** 	configASSERT( xEventGroup );
 454:FreeRTOS\source/event_groups.c **** 	configASSERT( ( uxBitsToClear & eventEVENT_BITS_CONTROL_BYTES ) == 0 );
 455:FreeRTOS\source/event_groups.c **** 
 456:FreeRTOS\source/event_groups.c **** 	taskENTER_CRITICAL();
 457:FreeRTOS\source/event_groups.c **** 	{
 458:FreeRTOS\source/event_groups.c **** 		traceEVENT_GROUP_CLEAR_BITS( xEventGroup, uxBitsToClear );
 459:FreeRTOS\source/event_groups.c **** 
 460:FreeRTOS\source/event_groups.c **** 		/* The value returned is the event group value prior to the bits being
 461:FreeRTOS\source/event_groups.c **** 		cleared. */
 462:FreeRTOS\source/event_groups.c **** 		uxReturn = pxEventBits->uxEventBits;
 463:FreeRTOS\source/event_groups.c **** 
 464:FreeRTOS\source/event_groups.c **** 		/* Clear the bits. */
 465:FreeRTOS\source/event_groups.c **** 		pxEventBits->uxEventBits &= ~uxBitsToClear;
 466:FreeRTOS\source/event_groups.c **** 	}
 467:FreeRTOS\source/event_groups.c **** 	taskEXIT_CRITICAL();
 468:FreeRTOS\source/event_groups.c **** 
 469:FreeRTOS\source/event_groups.c **** 	return uxReturn;
 470:FreeRTOS\source/event_groups.c **** }
 471:FreeRTOS\source/event_groups.c **** /*-----------------------------------------------------------*/
 472:FreeRTOS\source/event_groups.c **** 
 473:FreeRTOS\source/event_groups.c **** #if ( ( configUSE_TRACE_FACILITY == 1 ) && ( INCLUDE_xTimerPendFunctionCall == 1 ) && ( configUSE_T
 474:FreeRTOS\source/event_groups.c **** 
 475:FreeRTOS\source/event_groups.c **** 	BaseType_t xEventGroupClearBitsFromISR( EventGroupHandle_t xEventGroup, const EventBits_t uxBitsTo
 476:FreeRTOS\source/event_groups.c **** 	{
 477:FreeRTOS\source/event_groups.c **** 		BaseType_t xReturn;
 478:FreeRTOS\source/event_groups.c **** 
 479:FreeRTOS\source/event_groups.c **** 		traceEVENT_GROUP_CLEAR_BITS_FROM_ISR( xEventGroup, uxBitsToClear );
 480:FreeRTOS\source/event_groups.c **** 		xReturn = xTimerPendFunctionCallFromISR( vEventGroupClearBitsCallback, ( void * ) xEventGroup, ( 
 481:FreeRTOS\source/event_groups.c **** 
 482:FreeRTOS\source/event_groups.c **** 		return xReturn;
 483:FreeRTOS\source/event_groups.c **** 	}
 484:FreeRTOS\source/event_groups.c **** 
 485:FreeRTOS\source/event_groups.c **** #endif
 486:FreeRTOS\source/event_groups.c **** /*-----------------------------------------------------------*/
 487:FreeRTOS\source/event_groups.c **** 
ARM GAS  C:\Users\PRICHA~1\AppData\Local\Temp\cc7RLrij.s 			page 10


 488:FreeRTOS\source/event_groups.c **** EventBits_t xEventGroupGetBitsFromISR( EventGroupHandle_t xEventGroup )
 489:FreeRTOS\source/event_groups.c **** {
 490:FreeRTOS\source/event_groups.c **** UBaseType_t uxSavedInterruptStatus;
 491:FreeRTOS\source/event_groups.c **** EventGroup_t *pxEventBits = ( EventGroup_t * ) xEventGroup;
 492:FreeRTOS\source/event_groups.c **** EventBits_t uxReturn;
 493:FreeRTOS\source/event_groups.c **** 
 494:FreeRTOS\source/event_groups.c **** 	uxSavedInterruptStatus = portSET_INTERRUPT_MASK_FROM_ISR();
 495:FreeRTOS\source/event_groups.c **** 	{
 496:FreeRTOS\source/event_groups.c **** 		uxReturn = pxEventBits->uxEventBits;
 497:FreeRTOS\source/event_groups.c **** 	}
 498:FreeRTOS\source/event_groups.c **** 	portCLEAR_INTERRUPT_MASK_FROM_ISR( uxSavedInterruptStatus );
 499:FreeRTOS\source/event_groups.c **** 
 500:FreeRTOS\source/event_groups.c **** 	return uxReturn;
 501:FreeRTOS\source/event_groups.c **** }
 502:FreeRTOS\source/event_groups.c **** /*-----------------------------------------------------------*/
 503:FreeRTOS\source/event_groups.c **** 
 504:FreeRTOS\source/event_groups.c **** EventBits_t xEventGroupSetBits( EventGroupHandle_t xEventGroup, const EventBits_t uxBitsToSet )
 505:FreeRTOS\source/event_groups.c **** {
 506:FreeRTOS\source/event_groups.c **** ListItem_t *pxListItem, *pxNext;
 507:FreeRTOS\source/event_groups.c **** ListItem_t const *pxListEnd;
 508:FreeRTOS\source/event_groups.c **** List_t *pxList;
 509:FreeRTOS\source/event_groups.c **** EventBits_t uxBitsToClear = 0, uxBitsWaitedFor, uxControlBits;
 510:FreeRTOS\source/event_groups.c **** EventGroup_t *pxEventBits = ( EventGroup_t * ) xEventGroup;
 511:FreeRTOS\source/event_groups.c **** BaseType_t xMatchFound = pdFALSE;
 512:FreeRTOS\source/event_groups.c **** 
 513:FreeRTOS\source/event_groups.c **** 	/* Check the user is not attempting to set the bits used by the kernel
 514:FreeRTOS\source/event_groups.c **** 	itself. */
 515:FreeRTOS\source/event_groups.c **** 	configASSERT( xEventGroup );
 516:FreeRTOS\source/event_groups.c **** 	configASSERT( ( uxBitsToSet & eventEVENT_BITS_CONTROL_BYTES ) == 0 );
 517:FreeRTOS\source/event_groups.c **** 
 518:FreeRTOS\source/event_groups.c **** 	pxList = &( pxEventBits->xTasksWaitingForBits );
 519:FreeRTOS\source/event_groups.c **** 	pxListEnd = listGET_END_MARKER( pxList ); /*lint !e826 !e740 The mini list structure is used as th
 520:FreeRTOS\source/event_groups.c **** 	vTaskSuspendAll();
 521:FreeRTOS\source/event_groups.c **** 	{
 522:FreeRTOS\source/event_groups.c **** 		traceEVENT_GROUP_SET_BITS( xEventGroup, uxBitsToSet );
 523:FreeRTOS\source/event_groups.c **** 
 524:FreeRTOS\source/event_groups.c **** 		pxListItem = listGET_HEAD_ENTRY( pxList );
 525:FreeRTOS\source/event_groups.c **** 
 526:FreeRTOS\source/event_groups.c **** 		/* Set the bits. */
 527:FreeRTOS\source/event_groups.c **** 		pxEventBits->uxEventBits |= uxBitsToSet;
 528:FreeRTOS\source/event_groups.c **** 
 529:FreeRTOS\source/event_groups.c **** 		/* See if the new bit value should unblock any tasks. */
 530:FreeRTOS\source/event_groups.c **** 		while( pxListItem != pxListEnd )
 531:FreeRTOS\source/event_groups.c **** 		{
 532:FreeRTOS\source/event_groups.c **** 			pxNext = listGET_NEXT( pxListItem );
 533:FreeRTOS\source/event_groups.c **** 			uxBitsWaitedFor = listGET_LIST_ITEM_VALUE( pxListItem );
 534:FreeRTOS\source/event_groups.c **** 			xMatchFound = pdFALSE;
 535:FreeRTOS\source/event_groups.c **** 
 536:FreeRTOS\source/event_groups.c **** 			/* Split the bits waited for from the control bits. */
 537:FreeRTOS\source/event_groups.c **** 			uxControlBits = uxBitsWaitedFor & eventEVENT_BITS_CONTROL_BYTES;
 538:FreeRTOS\source/event_groups.c **** 			uxBitsWaitedFor &= ~eventEVENT_BITS_CONTROL_BYTES;
 539:FreeRTOS\source/event_groups.c **** 
 540:FreeRTOS\source/event_groups.c **** 			if( ( uxControlBits & eventWAIT_FOR_ALL_BITS ) == ( EventBits_t ) 0 )
 541:FreeRTOS\source/event_groups.c **** 			{
 542:FreeRTOS\source/event_groups.c **** 				/* Just looking for single bit being set. */
 543:FreeRTOS\source/event_groups.c **** 				if( ( uxBitsWaitedFor & pxEventBits->uxEventBits ) != ( EventBits_t ) 0 )
 544:FreeRTOS\source/event_groups.c **** 				{
ARM GAS  C:\Users\PRICHA~1\AppData\Local\Temp\cc7RLrij.s 			page 11


 545:FreeRTOS\source/event_groups.c **** 					xMatchFound = pdTRUE;
 546:FreeRTOS\source/event_groups.c **** 				}
 547:FreeRTOS\source/event_groups.c **** 				else
 548:FreeRTOS\source/event_groups.c **** 				{
 549:FreeRTOS\source/event_groups.c **** 					mtCOVERAGE_TEST_MARKER();
 550:FreeRTOS\source/event_groups.c **** 				}
 551:FreeRTOS\source/event_groups.c **** 			}
 552:FreeRTOS\source/event_groups.c **** 			else if( ( uxBitsWaitedFor & pxEventBits->uxEventBits ) == uxBitsWaitedFor )
 553:FreeRTOS\source/event_groups.c **** 			{
 554:FreeRTOS\source/event_groups.c **** 				/* All bits are set. */
 555:FreeRTOS\source/event_groups.c **** 				xMatchFound = pdTRUE;
 556:FreeRTOS\source/event_groups.c **** 			}
 557:FreeRTOS\source/event_groups.c **** 			else
 558:FreeRTOS\source/event_groups.c **** 			{
 559:FreeRTOS\source/event_groups.c **** 				/* Need all bits to be set, but not all the bits were set. */
 560:FreeRTOS\source/event_groups.c **** 			}
 561:FreeRTOS\source/event_groups.c **** 
 562:FreeRTOS\source/event_groups.c **** 			if( xMatchFound != pdFALSE )
 563:FreeRTOS\source/event_groups.c **** 			{
 564:FreeRTOS\source/event_groups.c **** 				/* The bits match.  Should the bits be cleared on exit? */
 565:FreeRTOS\source/event_groups.c **** 				if( ( uxControlBits & eventCLEAR_EVENTS_ON_EXIT_BIT ) != ( EventBits_t ) 0 )
 566:FreeRTOS\source/event_groups.c **** 				{
 567:FreeRTOS\source/event_groups.c **** 					uxBitsToClear |= uxBitsWaitedFor;
 568:FreeRTOS\source/event_groups.c **** 				}
 569:FreeRTOS\source/event_groups.c **** 				else
 570:FreeRTOS\source/event_groups.c **** 				{
 571:FreeRTOS\source/event_groups.c **** 					mtCOVERAGE_TEST_MARKER();
 572:FreeRTOS\source/event_groups.c **** 				}
 573:FreeRTOS\source/event_groups.c **** 
 574:FreeRTOS\source/event_groups.c **** 				/* Store the actual event flag value in the task's event list
 575:FreeRTOS\source/event_groups.c **** 				item before removing the task from the event list.  The
 576:FreeRTOS\source/event_groups.c **** 				eventUNBLOCKED_DUE_TO_BIT_SET bit is set so the task knows
 577:FreeRTOS\source/event_groups.c **** 				that is was unblocked due to its required bits matching, rather
 578:FreeRTOS\source/event_groups.c **** 				than because it timed out. */
 579:FreeRTOS\source/event_groups.c **** 				vTaskRemoveFromUnorderedEventList( pxListItem, pxEventBits->uxEventBits | eventUNBLOCKED_DUE_TO
 580:FreeRTOS\source/event_groups.c **** 			}
 581:FreeRTOS\source/event_groups.c **** 
 582:FreeRTOS\source/event_groups.c **** 			/* Move onto the next list item.  Note pxListItem->pxNext is not
 583:FreeRTOS\source/event_groups.c **** 			used here as the list item may have been removed from the event list
 584:FreeRTOS\source/event_groups.c **** 			and inserted into the ready/pending reading list. */
 585:FreeRTOS\source/event_groups.c **** 			pxListItem = pxNext;
 586:FreeRTOS\source/event_groups.c **** 		}
 587:FreeRTOS\source/event_groups.c **** 
 588:FreeRTOS\source/event_groups.c **** 		/* Clear any bits that matched when the eventCLEAR_EVENTS_ON_EXIT_BIT
 589:FreeRTOS\source/event_groups.c **** 		bit was set in the control word. */
 590:FreeRTOS\source/event_groups.c **** 		pxEventBits->uxEventBits &= ~uxBitsToClear;
 591:FreeRTOS\source/event_groups.c **** 	}
 592:FreeRTOS\source/event_groups.c **** 	( void ) xTaskResumeAll();
 593:FreeRTOS\source/event_groups.c **** 
 594:FreeRTOS\source/event_groups.c **** 	return pxEventBits->uxEventBits;
 595:FreeRTOS\source/event_groups.c **** }
 596:FreeRTOS\source/event_groups.c **** /*-----------------------------------------------------------*/
 597:FreeRTOS\source/event_groups.c **** 
 598:FreeRTOS\source/event_groups.c **** void vEventGroupDelete( EventGroupHandle_t xEventGroup )
 599:FreeRTOS\source/event_groups.c **** {
 600:FreeRTOS\source/event_groups.c **** EventGroup_t *pxEventBits = ( EventGroup_t * ) xEventGroup;
 601:FreeRTOS\source/event_groups.c **** const List_t *pxTasksWaitingForBits = &( pxEventBits->xTasksWaitingForBits );
ARM GAS  C:\Users\PRICHA~1\AppData\Local\Temp\cc7RLrij.s 			page 12


 602:FreeRTOS\source/event_groups.c **** 
 603:FreeRTOS\source/event_groups.c **** 	vTaskSuspendAll();
 604:FreeRTOS\source/event_groups.c **** 	{
 605:FreeRTOS\source/event_groups.c **** 		traceEVENT_GROUP_DELETE( xEventGroup );
 606:FreeRTOS\source/event_groups.c **** 
 607:FreeRTOS\source/event_groups.c **** 		while( listCURRENT_LIST_LENGTH( pxTasksWaitingForBits ) > ( UBaseType_t ) 0 )
 608:FreeRTOS\source/event_groups.c **** 		{
 609:FreeRTOS\source/event_groups.c **** 			/* Unblock the task, returning 0 as the event list is being deleted
 610:FreeRTOS\source/event_groups.c **** 			and cannot therefore have any bits set. */
 611:FreeRTOS\source/event_groups.c **** 			configASSERT( pxTasksWaitingForBits->xListEnd.pxNext != ( const ListItem_t * ) &( pxTasksWaiting
 612:FreeRTOS\source/event_groups.c **** 			vTaskRemoveFromUnorderedEventList( pxTasksWaitingForBits->xListEnd.pxNext, eventUNBLOCKED_DUE_TO
 613:FreeRTOS\source/event_groups.c **** 		}
 614:FreeRTOS\source/event_groups.c **** 
 615:FreeRTOS\source/event_groups.c **** 		#if( ( configSUPPORT_DYNAMIC_ALLOCATION == 1 ) && ( configSUPPORT_STATIC_ALLOCATION == 0 ) )
 616:FreeRTOS\source/event_groups.c **** 		{
 617:FreeRTOS\source/event_groups.c **** 			/* The event group can only have been allocated dynamically - free
 618:FreeRTOS\source/event_groups.c **** 			it again. */
 619:FreeRTOS\source/event_groups.c **** 			vPortFree( pxEventBits );
 620:FreeRTOS\source/event_groups.c **** 		}
 621:FreeRTOS\source/event_groups.c **** 		#elif( ( configSUPPORT_DYNAMIC_ALLOCATION == 1 ) && ( configSUPPORT_STATIC_ALLOCATION == 1 ) )
 622:FreeRTOS\source/event_groups.c **** 		{
 623:FreeRTOS\source/event_groups.c **** 			/* The event group could have been allocated statically or
 624:FreeRTOS\source/event_groups.c **** 			dynamically, so check before attempting to free the memory. */
 625:FreeRTOS\source/event_groups.c **** 			if( pxEventBits->ucStaticallyAllocated == ( uint8_t ) pdFALSE )
 626:FreeRTOS\source/event_groups.c **** 			{
 627:FreeRTOS\source/event_groups.c **** 				vPortFree( pxEventBits );
 628:FreeRTOS\source/event_groups.c **** 			}
 629:FreeRTOS\source/event_groups.c **** 			else
 630:FreeRTOS\source/event_groups.c **** 			{
 631:FreeRTOS\source/event_groups.c **** 				mtCOVERAGE_TEST_MARKER();
 632:FreeRTOS\source/event_groups.c **** 			}
 633:FreeRTOS\source/event_groups.c **** 		}
 634:FreeRTOS\source/event_groups.c **** 		#endif /* configSUPPORT_DYNAMIC_ALLOCATION */
 635:FreeRTOS\source/event_groups.c **** 	}
 636:FreeRTOS\source/event_groups.c **** 	( void ) xTaskResumeAll();
 637:FreeRTOS\source/event_groups.c **** }
 638:FreeRTOS\source/event_groups.c **** /*-----------------------------------------------------------*/
 639:FreeRTOS\source/event_groups.c **** 
 640:FreeRTOS\source/event_groups.c **** /* For internal use only - execute a 'set bits' command that was pended from
 641:FreeRTOS\source/event_groups.c **** an interrupt. */
 642:FreeRTOS\source/event_groups.c **** void vEventGroupSetBitsCallback( void *pvEventGroup, const uint32_t ulBitsToSet )
 643:FreeRTOS\source/event_groups.c **** {
 644:FreeRTOS\source/event_groups.c **** 	( void ) xEventGroupSetBits( pvEventGroup, ( EventBits_t ) ulBitsToSet );
 645:FreeRTOS\source/event_groups.c **** }
 646:FreeRTOS\source/event_groups.c **** /*-----------------------------------------------------------*/
 647:FreeRTOS\source/event_groups.c **** 
 648:FreeRTOS\source/event_groups.c **** /* For internal use only - execute a 'clear bits' command that was pended from
 649:FreeRTOS\source/event_groups.c **** an interrupt. */
 650:FreeRTOS\source/event_groups.c **** void vEventGroupClearBitsCallback( void *pvEventGroup, const uint32_t ulBitsToClear )
 651:FreeRTOS\source/event_groups.c **** {
 652:FreeRTOS\source/event_groups.c **** 	( void ) xEventGroupClearBits( pvEventGroup, ( EventBits_t ) ulBitsToClear );
 653:FreeRTOS\source/event_groups.c **** }
 654:FreeRTOS\source/event_groups.c **** /*-----------------------------------------------------------*/
 655:FreeRTOS\source/event_groups.c **** 
 656:FreeRTOS\source/event_groups.c **** static BaseType_t prvTestWaitCondition( const EventBits_t uxCurrentEventBits, const EventBits_t uxB
 657:FreeRTOS\source/event_groups.c **** {
  27              		.loc 1 657 0
ARM GAS  C:\Users\PRICHA~1\AppData\Local\Temp\cc7RLrij.s 			page 13


  28              		.cfi_startproc
  29              		@ args = 0, pretend = 0, frame = 0
  30              		@ frame_needed = 0, uses_anonymous_args = 0
  31              		@ link register save eliminated.
  32              	.LVL0:
 658:FreeRTOS\source/event_groups.c **** BaseType_t xWaitConditionMet = pdFALSE;
 659:FreeRTOS\source/event_groups.c **** 
 660:FreeRTOS\source/event_groups.c **** 	if( xWaitForAllBits == pdFALSE )
  33              		.loc 1 660 0
  34 0000 002A     		cmp	r2, #0
  35 0002 03D1     		bne	.L2
 661:FreeRTOS\source/event_groups.c **** 	{
 662:FreeRTOS\source/event_groups.c **** 		/* Task only has to wait for one bit within uxBitsToWaitFor to be
 663:FreeRTOS\source/event_groups.c **** 		set.  Is one already set? */
 664:FreeRTOS\source/event_groups.c **** 		if( ( uxCurrentEventBits & uxBitsToWaitFor ) != ( EventBits_t ) 0 )
  36              		.loc 1 664 0
  37 0004 0142     		tst	r1, r0
  38 0006 06D1     		bne	.L4
 658:FreeRTOS\source/event_groups.c **** BaseType_t xWaitConditionMet = pdFALSE;
  39              		.loc 1 658 0
  40 0008 0020     		movs	r0, #0
  41              	.LVL1:
  42 000a 07E0     		b	.L3
  43              	.LVL2:
  44              	.L2:
 665:FreeRTOS\source/event_groups.c **** 		{
 666:FreeRTOS\source/event_groups.c **** 			xWaitConditionMet = pdTRUE;
 667:FreeRTOS\source/event_groups.c **** 		}
 668:FreeRTOS\source/event_groups.c **** 		else
 669:FreeRTOS\source/event_groups.c **** 		{
 670:FreeRTOS\source/event_groups.c **** 			mtCOVERAGE_TEST_MARKER();
 671:FreeRTOS\source/event_groups.c **** 		}
 672:FreeRTOS\source/event_groups.c **** 	}
 673:FreeRTOS\source/event_groups.c **** 	else
 674:FreeRTOS\source/event_groups.c **** 	{
 675:FreeRTOS\source/event_groups.c **** 		/* Task has to wait for all the bits in uxBitsToWaitFor to be set.
 676:FreeRTOS\source/event_groups.c **** 		Are they set already? */
 677:FreeRTOS\source/event_groups.c **** 		if( ( uxCurrentEventBits & uxBitsToWaitFor ) == uxBitsToWaitFor )
  45              		.loc 1 677 0
  46 000c 0840     		ands	r0, r1
  47              	.LVL3:
  48 000e 8142     		cmp	r1, r0
  49 0010 03D0     		beq	.L5
 658:FreeRTOS\source/event_groups.c **** 
  50              		.loc 1 658 0
  51 0012 0020     		movs	r0, #0
  52 0014 02E0     		b	.L3
  53              	.LVL4:
  54              	.L4:
 666:FreeRTOS\source/event_groups.c **** 		}
  55              		.loc 1 666 0
  56 0016 0120     		movs	r0, #1
  57              	.LVL5:
  58 0018 00E0     		b	.L3
  59              	.L5:
 678:FreeRTOS\source/event_groups.c **** 		{
 679:FreeRTOS\source/event_groups.c **** 			xWaitConditionMet = pdTRUE;
ARM GAS  C:\Users\PRICHA~1\AppData\Local\Temp\cc7RLrij.s 			page 14


  60              		.loc 1 679 0
  61 001a 0120     		movs	r0, #1
  62              	.L3:
  63              	.LVL6:
 680:FreeRTOS\source/event_groups.c **** 		}
 681:FreeRTOS\source/event_groups.c **** 		else
 682:FreeRTOS\source/event_groups.c **** 		{
 683:FreeRTOS\source/event_groups.c **** 			mtCOVERAGE_TEST_MARKER();
 684:FreeRTOS\source/event_groups.c **** 		}
 685:FreeRTOS\source/event_groups.c **** 	}
 686:FreeRTOS\source/event_groups.c **** 
 687:FreeRTOS\source/event_groups.c **** 	return xWaitConditionMet;
 688:FreeRTOS\source/event_groups.c **** }
  64              		.loc 1 688 0
  65              		@ sp needed
  66 001c 7047     		bx	lr
  67              		.cfi_endproc
  68              	.LFE41:
  69              		.size	prvTestWaitCondition, .-prvTestWaitCondition
  70 001e C046     		.section	.text.xEventGroupCreate,"ax",%progbits
  71              		.align	2
  72              		.global	xEventGroupCreate
  73              		.code	16
  74              		.thumb_func
  75              		.type	xEventGroupCreate, %function
  76              	xEventGroupCreate:
  77              	.LFB32:
 143:FreeRTOS\source/event_groups.c **** 	EventGroup_t *pxEventBits;
  78              		.loc 1 143 0
  79              		.cfi_startproc
  80              		@ args = 0, pretend = 0, frame = 0
  81              		@ frame_needed = 0, uses_anonymous_args = 0
  82 0000 10B5     		push	{r4, lr}
  83              		.cfi_def_cfa_offset 8
  84              		.cfi_offset 4, -8
  85              		.cfi_offset 14, -4
 147:FreeRTOS\source/event_groups.c **** 
  86              		.loc 1 147 0
  87 0002 1820     		movs	r0, #24
  88 0004 FFF7FEFF 		bl	pvPortMalloc
  89              	.LVL7:
  90 0008 041E     		subs	r4, r0, #0
  91              	.LVL8:
 149:FreeRTOS\source/event_groups.c **** 		{
  92              		.loc 1 149 0
  93 000a 03D0     		beq	.L7
 151:FreeRTOS\source/event_groups.c **** 			vListInitialise( &( pxEventBits->xTasksWaitingForBits ) );
  94              		.loc 1 151 0
  95 000c 0023     		movs	r3, #0
  96 000e 08C0     		stmia	r0!, {r3}
  97              	.LVL9:
 152:FreeRTOS\source/event_groups.c **** 
  98              		.loc 1 152 0
  99 0010 FFF7FEFF 		bl	vListInitialise
 100              	.LVL10:
 101              	.L7:
 171:FreeRTOS\source/event_groups.c **** 
ARM GAS  C:\Users\PRICHA~1\AppData\Local\Temp\cc7RLrij.s 			page 15


 102              		.loc 1 171 0
 103 0014 2000     		movs	r0, r4
 104              		@ sp needed
 105              	.LVL11:
 106 0016 10BD     		pop	{r4, pc}
 107              		.cfi_endproc
 108              	.LFE32:
 109              		.size	xEventGroupCreate, .-xEventGroupCreate
 110              		.section	.text.xEventGroupWaitBits,"ax",%progbits
 111              		.align	2
 112              		.global	xEventGroupWaitBits
 113              		.code	16
 114              		.thumb_func
 115              		.type	xEventGroupWaitBits, %function
 116              	xEventGroupWaitBits:
 117              	.LFB34:
 297:FreeRTOS\source/event_groups.c **** EventGroup_t *pxEventBits = ( EventGroup_t * ) xEventGroup;
 118              		.loc 1 297 0
 119              		.cfi_startproc
 120              		@ args = 4, pretend = 0, frame = 8
 121              		@ frame_needed = 0, uses_anonymous_args = 0
 122              	.LVL12:
 123 0000 F0B5     		push	{r4, r5, r6, r7, lr}
 124              		.cfi_def_cfa_offset 20
 125              		.cfi_offset 4, -20
 126              		.cfi_offset 5, -16
 127              		.cfi_offset 6, -12
 128              		.cfi_offset 7, -8
 129              		.cfi_offset 14, -4
 130 0002 4F46     		mov	r7, r9
 131 0004 80B4     		push	{r7}
 132              		.cfi_def_cfa_offset 24
 133              		.cfi_offset 9, -24
 134 0006 82B0     		sub	sp, sp, #8
 135              		.cfi_def_cfa_offset 32
 136 0008 0600     		movs	r6, r0
 137 000a 0D00     		movs	r5, r1
 138 000c 9146     		mov	r9, r2
 139 000e 0193     		str	r3, [sp, #4]
 140 0010 089F     		ldr	r7, [sp, #32]
 141              	.LVL13:
 305:FreeRTOS\source/event_groups.c **** 	configASSERT( ( uxBitsToWaitFor & eventEVENT_BITS_CONTROL_BYTES ) == 0 );
 142              		.loc 1 305 0
 143 0012 0028     		cmp	r0, #0
 144 0014 01D1     		bne	.L9
 305:FreeRTOS\source/event_groups.c **** 	configASSERT( ( uxBitsToWaitFor & eventEVENT_BITS_CONTROL_BYTES ) == 0 );
 145              		.loc 1 305 0 is_stmt 0 discriminator 1
 146              		.syntax divided
 147              	@ 305 "FreeRTOS\source\event_groups.c" 1
 148 0016 72B6     		 cpsid i 
 149              	@ 0 "" 2
 150              		.thumb
 151              		.syntax unified
 152              	.L10:
 153 0018 FEE7     		b	.L10
 154              	.L9:
 306:FreeRTOS\source/event_groups.c **** 	configASSERT( uxBitsToWaitFor != 0 );
ARM GAS  C:\Users\PRICHA~1\AppData\Local\Temp\cc7RLrij.s 			page 16


 155              		.loc 1 306 0 is_stmt 1
 156 001a 0B0E     		lsrs	r3, r1, #24
 157              	.LVL14:
 158 001c 01D0     		beq	.L11
 306:FreeRTOS\source/event_groups.c **** 	configASSERT( uxBitsToWaitFor != 0 );
 159              		.loc 1 306 0 is_stmt 0 discriminator 1
 160              		.syntax divided
 161              	@ 306 "FreeRTOS\source\event_groups.c" 1
 162 001e 72B6     		 cpsid i 
 163              	@ 0 "" 2
 164              		.thumb
 165              		.syntax unified
 166              	.L12:
 167 0020 FEE7     		b	.L12
 168              	.L11:
 307:FreeRTOS\source/event_groups.c **** 	#if ( ( INCLUDE_xTaskGetSchedulerState == 1 ) || ( configUSE_TIMERS == 1 ) )
 169              		.loc 1 307 0 is_stmt 1
 170 0022 0029     		cmp	r1, #0
 171 0024 01D1     		bne	.L13
 307:FreeRTOS\source/event_groups.c **** 	#if ( ( INCLUDE_xTaskGetSchedulerState == 1 ) || ( configUSE_TIMERS == 1 ) )
 172              		.loc 1 307 0 is_stmt 0 discriminator 1
 173              		.syntax divided
 174              	@ 307 "FreeRTOS\source\event_groups.c" 1
 175 0026 72B6     		 cpsid i 
 176              	@ 0 "" 2
 177              		.thumb
 178              		.syntax unified
 179              	.L14:
 180 0028 FEE7     		b	.L14
 181              	.L13:
 310:FreeRTOS\source/event_groups.c **** 	}
 182              		.loc 1 310 0 is_stmt 1
 183 002a FFF7FEFF 		bl	xTaskGetSchedulerState
 184              	.LVL15:
 185 002e 0028     		cmp	r0, #0
 186 0030 03D1     		bne	.L26
 310:FreeRTOS\source/event_groups.c **** 	}
 187              		.loc 1 310 0 is_stmt 0 discriminator 2
 188 0032 002F     		cmp	r7, #0
 189 0034 03D1     		bne	.L27
 310:FreeRTOS\source/event_groups.c **** 	}
 190              		.loc 1 310 0
 191 0036 0123     		movs	r3, #1
 192 0038 02E0     		b	.L15
 193              	.L26:
 194 003a 0123     		movs	r3, #1
 195 003c 00E0     		b	.L15
 196              	.L27:
 197 003e 0023     		movs	r3, #0
 198              	.L15:
 310:FreeRTOS\source/event_groups.c **** 	}
 199              		.loc 1 310 0 discriminator 6
 200 0040 002B     		cmp	r3, #0
 201 0042 01D1     		bne	.L16
 310:FreeRTOS\source/event_groups.c **** 	}
 202              		.loc 1 310 0 discriminator 7
 203              		.syntax divided
ARM GAS  C:\Users\PRICHA~1\AppData\Local\Temp\cc7RLrij.s 			page 17


 204              	@ 310 "FreeRTOS\source\event_groups.c" 1
 205 0044 72B6     		 cpsid i 
 206              	@ 0 "" 2
 207              		.thumb
 208              		.syntax unified
 209              	.L17:
 210 0046 FEE7     		b	.L17
 211              	.L16:
 314:FreeRTOS\source/event_groups.c **** 	{
 212              		.loc 1 314 0 is_stmt 1
 213 0048 FFF7FEFF 		bl	vTaskSuspendAll
 214              	.LVL16:
 215              	.LBB2:
 316:FreeRTOS\source/event_groups.c **** 
 216              		.loc 1 316 0
 217 004c 3468     		ldr	r4, [r6]
 218              	.LVL17:
 319:FreeRTOS\source/event_groups.c **** 
 219              		.loc 1 319 0
 220 004e 019A     		ldr	r2, [sp, #4]
 221 0050 2900     		movs	r1, r5
 222 0052 2000     		movs	r0, r4
 223 0054 FFF7FEFF 		bl	prvTestWaitCondition
 224              	.LVL18:
 321:FreeRTOS\source/event_groups.c **** 		{
 225              		.loc 1 321 0
 226 0058 0028     		cmp	r0, #0
 227 005a 07D0     		beq	.L18
 228              	.LVL19:
 329:FreeRTOS\source/event_groups.c **** 			{
 229              		.loc 1 329 0
 230 005c 4B46     		mov	r3, r9
 231 005e 002B     		cmp	r3, #0
 232 0060 1AD0     		beq	.L28
 233              	.LVL20:
 331:FreeRTOS\source/event_groups.c **** 			}
 234              		.loc 1 331 0
 235 0062 2300     		movs	r3, r4
 236              	.LVL21:
 237 0064 AB43     		bics	r3, r5
 238 0066 3360     		str	r3, [r6]
 326:FreeRTOS\source/event_groups.c **** 
 239              		.loc 1 326 0
 240 0068 0027     		movs	r7, #0
 241 006a 16E0     		b	.L19
 242              	.LVL22:
 243              	.L18:
 338:FreeRTOS\source/event_groups.c **** 		{
 244              		.loc 1 338 0
 245 006c 002F     		cmp	r7, #0
 246 006e 14D0     		beq	.L19
 351:FreeRTOS\source/event_groups.c **** 			{
 247              		.loc 1 351 0
 248 0070 4B46     		mov	r3, r9
 249 0072 002B     		cmp	r3, #0
 250 0074 01D1     		bne	.L29
 251              	.LVL23:
ARM GAS  C:\Users\PRICHA~1\AppData\Local\Temp\cc7RLrij.s 			page 18


 252              	.LBE2:
 299:FreeRTOS\source/event_groups.c **** BaseType_t xWaitConditionMet, xAlreadyYielded;
 253              		.loc 1 299 0
 254 0076 0021     		movs	r1, #0
 255 0078 01E0     		b	.L20
 256              	.L29:
 257              	.LBB3:
 353:FreeRTOS\source/event_groups.c **** 			}
 258              		.loc 1 353 0
 259 007a 8021     		movs	r1, #128
 260 007c 4904     		lsls	r1, r1, #17
 261              	.L20:
 262              	.LVL24:
 360:FreeRTOS\source/event_groups.c **** 			{
 263              		.loc 1 360 0
 264 007e 019B     		ldr	r3, [sp, #4]
 265              	.LVL25:
 266 0080 002B     		cmp	r3, #0
 267 0082 02D0     		beq	.L21
 362:FreeRTOS\source/event_groups.c **** 			}
 268              		.loc 1 362 0
 269 0084 8023     		movs	r3, #128
 270 0086 DB04     		lsls	r3, r3, #19
 271 0088 1943     		orrs	r1, r3
 272              	.LVL26:
 273              	.L21:
 372:FreeRTOS\source/event_groups.c **** 
 274              		.loc 1 372 0
 275 008a 2943     		orrs	r1, r5
 276              	.LVL27:
 277 008c 301D     		adds	r0, r6, #4
 278              	.LVL28:
 279 008e 3A00     		movs	r2, r7
 280 0090 FFF7FEFF 		bl	vTaskPlaceOnUnorderedEventList
 281              	.LVL29:
 377:FreeRTOS\source/event_groups.c **** 
 282              		.loc 1 377 0
 283 0094 0024     		movs	r4, #0
 284              	.LVL30:
 285 0096 00E0     		b	.L19
 286              	.LVL31:
 287              	.L28:
 326:FreeRTOS\source/event_groups.c **** 
 288              		.loc 1 326 0
 289 0098 0027     		movs	r7, #0
 290              	.LVL32:
 291              	.L19:
 292              	.LBE3:
 382:FreeRTOS\source/event_groups.c **** 
 293              		.loc 1 382 0
 294 009a FFF7FEFF 		bl	xTaskResumeAll
 295              	.LVL33:
 384:FreeRTOS\source/event_groups.c **** 	{
 296              		.loc 1 384 0
 297 009e 002F     		cmp	r7, #0
 298 00a0 1CD0     		beq	.L22
 386:FreeRTOS\source/event_groups.c **** 		{
ARM GAS  C:\Users\PRICHA~1\AppData\Local\Temp\cc7RLrij.s 			page 19


 299              		.loc 1 386 0
 300 00a2 0028     		cmp	r0, #0
 301 00a4 01D1     		bne	.L23
 388:FreeRTOS\source/event_groups.c **** 		}
 302              		.loc 1 388 0
 303 00a6 FFF7FEFF 		bl	vPortYield
 304              	.LVL34:
 305              	.L23:
 399:FreeRTOS\source/event_groups.c **** 
 306              		.loc 1 399 0
 307 00aa FFF7FEFF 		bl	uxTaskResetEventItemValue
 308              	.LVL35:
 309 00ae 0400     		movs	r4, r0
 310              	.LVL36:
 401:FreeRTOS\source/event_groups.c **** 		{
 311              		.loc 1 401 0
 312 00b0 8301     		lsls	r3, r0, #6
 313 00b2 11D4     		bmi	.L24
 403:FreeRTOS\source/event_groups.c **** 			{
 314              		.loc 1 403 0
 315 00b4 FFF7FEFF 		bl	vPortEnterCritical
 316              	.LVL37:
 406:FreeRTOS\source/event_groups.c **** 
 317              		.loc 1 406 0
 318 00b8 3468     		ldr	r4, [r6]
 319              	.LVL38:
 410:FreeRTOS\source/event_groups.c **** 				{
 320              		.loc 1 410 0
 321 00ba 019A     		ldr	r2, [sp, #4]
 322 00bc 2900     		movs	r1, r5
 323 00be 2000     		movs	r0, r4
 324 00c0 FFF7FEFF 		bl	prvTestWaitCondition
 325              	.LVL39:
 326 00c4 0028     		cmp	r0, #0
 327 00c6 05D0     		beq	.L25
 412:FreeRTOS\source/event_groups.c **** 					{
 328              		.loc 1 412 0
 329 00c8 4B46     		mov	r3, r9
 330 00ca 002B     		cmp	r3, #0
 331 00cc 02D0     		beq	.L25
 332              	.LVL40:
 414:FreeRTOS\source/event_groups.c **** 					}
 333              		.loc 1 414 0
 334 00ce 2300     		movs	r3, r4
 335              	.LVL41:
 336 00d0 AB43     		bics	r3, r5
 337 00d2 3360     		str	r3, [r6]
 338              	.L25:
 339              	.LVL42:
 427:FreeRTOS\source/event_groups.c **** 		}
 340              		.loc 1 427 0
 341 00d4 FFF7FEFF 		bl	vPortExitCritical
 342              	.LVL43:
 343              	.L24:
 435:FreeRTOS\source/event_groups.c **** 	}
 344              		.loc 1 435 0
 345 00d8 2402     		lsls	r4, r4, #8
ARM GAS  C:\Users\PRICHA~1\AppData\Local\Temp\cc7RLrij.s 			page 20


 346              	.LVL44:
 347 00da 240A     		lsrs	r4, r4, #8
 348              	.LVL45:
 349              	.L22:
 443:FreeRTOS\source/event_groups.c **** /*-----------------------------------------------------------*/
 350              		.loc 1 443 0
 351 00dc 2000     		movs	r0, r4
 352 00de 02B0     		add	sp, sp, #8
 353              		@ sp needed
 354              	.LVL46:
 355              	.LVL47:
 356              	.LVL48:
 357              	.LVL49:
 358              	.LVL50:
 359 00e0 04BC     		pop	{r2}
 360 00e2 9146     		mov	r9, r2
 361 00e4 F0BD     		pop	{r4, r5, r6, r7, pc}
 362              		.cfi_endproc
 363              	.LFE34:
 364              		.size	xEventGroupWaitBits, .-xEventGroupWaitBits
 365 00e6 C046     		.section	.text.xEventGroupClearBits,"ax",%progbits
 366              		.align	2
 367              		.global	xEventGroupClearBits
 368              		.code	16
 369              		.thumb_func
 370              		.type	xEventGroupClearBits, %function
 371              	xEventGroupClearBits:
 372              	.LFB35:
 447:FreeRTOS\source/event_groups.c **** EventGroup_t *pxEventBits = ( EventGroup_t * ) xEventGroup;
 373              		.loc 1 447 0
 374              		.cfi_startproc
 375              		@ args = 0, pretend = 0, frame = 0
 376              		@ frame_needed = 0, uses_anonymous_args = 0
 377              	.LVL51:
 378 0000 70B5     		push	{r4, r5, r6, lr}
 379              		.cfi_def_cfa_offset 16
 380              		.cfi_offset 4, -16
 381              		.cfi_offset 5, -12
 382              		.cfi_offset 6, -8
 383              		.cfi_offset 14, -4
 384 0002 0400     		movs	r4, r0
 385 0004 0E00     		movs	r6, r1
 386              	.LVL52:
 453:FreeRTOS\source/event_groups.c **** 	configASSERT( ( uxBitsToClear & eventEVENT_BITS_CONTROL_BYTES ) == 0 );
 387              		.loc 1 453 0
 388 0006 0028     		cmp	r0, #0
 389 0008 01D1     		bne	.L31
 453:FreeRTOS\source/event_groups.c **** 	configASSERT( ( uxBitsToClear & eventEVENT_BITS_CONTROL_BYTES ) == 0 );
 390              		.loc 1 453 0 is_stmt 0 discriminator 1
 391              		.syntax divided
 392              	@ 453 "FreeRTOS\source\event_groups.c" 1
 393 000a 72B6     		 cpsid i 
 394              	@ 0 "" 2
 395              		.thumb
 396              		.syntax unified
 397              	.L32:
 398 000c FEE7     		b	.L32
ARM GAS  C:\Users\PRICHA~1\AppData\Local\Temp\cc7RLrij.s 			page 21


 399              	.L31:
 454:FreeRTOS\source/event_groups.c **** 
 400              		.loc 1 454 0 is_stmt 1
 401 000e 0B0E     		lsrs	r3, r1, #24
 402 0010 01D0     		beq	.L33
 454:FreeRTOS\source/event_groups.c **** 
 403              		.loc 1 454 0 is_stmt 0 discriminator 1
 404              		.syntax divided
 405              	@ 454 "FreeRTOS\source\event_groups.c" 1
 406 0012 72B6     		 cpsid i 
 407              	@ 0 "" 2
 408              		.thumb
 409              		.syntax unified
 410              	.L34:
 411 0014 FEE7     		b	.L34
 412              	.L33:
 456:FreeRTOS\source/event_groups.c **** 	{
 413              		.loc 1 456 0 is_stmt 1
 414 0016 FFF7FEFF 		bl	vPortEnterCritical
 415              	.LVL53:
 462:FreeRTOS\source/event_groups.c **** 
 416              		.loc 1 462 0
 417 001a 2568     		ldr	r5, [r4]
 418              	.LVL54:
 465:FreeRTOS\source/event_groups.c **** 	}
 419              		.loc 1 465 0
 420 001c 2B00     		movs	r3, r5
 421 001e B343     		bics	r3, r6
 422 0020 2360     		str	r3, [r4]
 467:FreeRTOS\source/event_groups.c **** 
 423              		.loc 1 467 0
 424 0022 FFF7FEFF 		bl	vPortExitCritical
 425              	.LVL55:
 470:FreeRTOS\source/event_groups.c **** /*-----------------------------------------------------------*/
 426              		.loc 1 470 0
 427 0026 2800     		movs	r0, r5
 428              		@ sp needed
 429              	.LVL56:
 430              	.LVL57:
 431              	.LVL58:
 432 0028 70BD     		pop	{r4, r5, r6, pc}
 433              		.cfi_endproc
 434              	.LFE35:
 435              		.size	xEventGroupClearBits, .-xEventGroupClearBits
 436 002a C046     		.section	.text.xEventGroupGetBitsFromISR,"ax",%progbits
 437              		.align	2
 438              		.global	xEventGroupGetBitsFromISR
 439              		.code	16
 440              		.thumb_func
 441              		.type	xEventGroupGetBitsFromISR, %function
 442              	xEventGroupGetBitsFromISR:
 443              	.LFB36:
 489:FreeRTOS\source/event_groups.c **** UBaseType_t uxSavedInterruptStatus;
 444              		.loc 1 489 0
 445              		.cfi_startproc
 446              		@ args = 0, pretend = 0, frame = 0
 447              		@ frame_needed = 0, uses_anonymous_args = 0
ARM GAS  C:\Users\PRICHA~1\AppData\Local\Temp\cc7RLrij.s 			page 22


 448              	.LVL59:
 449 0000 10B5     		push	{r4, lr}
 450              		.cfi_def_cfa_offset 8
 451              		.cfi_offset 4, -8
 452              		.cfi_offset 14, -4
 453 0002 0400     		movs	r4, r0
 454              	.LVL60:
 494:FreeRTOS\source/event_groups.c **** 	{
 455              		.loc 1 494 0
 456 0004 FFF7FEFF 		bl	ulSetInterruptMaskFromISR
 457              	.LVL61:
 496:FreeRTOS\source/event_groups.c **** 	}
 458              		.loc 1 496 0
 459 0008 2468     		ldr	r4, [r4]
 460              	.LVL62:
 498:FreeRTOS\source/event_groups.c **** 
 461              		.loc 1 498 0
 462 000a FFF7FEFF 		bl	vClearInterruptMaskFromISR
 463              	.LVL63:
 501:FreeRTOS\source/event_groups.c **** /*-----------------------------------------------------------*/
 464              		.loc 1 501 0
 465 000e 2000     		movs	r0, r4
 466              		@ sp needed
 467              	.LVL64:
 468 0010 10BD     		pop	{r4, pc}
 469              		.cfi_endproc
 470              	.LFE36:
 471              		.size	xEventGroupGetBitsFromISR, .-xEventGroupGetBitsFromISR
 472 0012 C046     		.section	.text.xEventGroupSetBits,"ax",%progbits
 473              		.align	2
 474              		.global	xEventGroupSetBits
 475              		.code	16
 476              		.thumb_func
 477              		.type	xEventGroupSetBits, %function
 478              	xEventGroupSetBits:
 479              	.LFB37:
 505:FreeRTOS\source/event_groups.c **** ListItem_t *pxListItem, *pxNext;
 480              		.loc 1 505 0
 481              		.cfi_startproc
 482              		@ args = 0, pretend = 0, frame = 0
 483              		@ frame_needed = 0, uses_anonymous_args = 0
 484              	.LVL65:
 485 0000 F8B5     		push	{r3, r4, r5, r6, r7, lr}
 486              		.cfi_def_cfa_offset 24
 487              		.cfi_offset 3, -24
 488              		.cfi_offset 4, -20
 489              		.cfi_offset 5, -16
 490              		.cfi_offset 6, -12
 491              		.cfi_offset 7, -8
 492              		.cfi_offset 14, -4
 493 0002 0400     		movs	r4, r0
 494 0004 0D00     		movs	r5, r1
 495              	.LVL66:
 515:FreeRTOS\source/event_groups.c **** 	configASSERT( ( uxBitsToSet & eventEVENT_BITS_CONTROL_BYTES ) == 0 );
 496              		.loc 1 515 0
 497 0006 0028     		cmp	r0, #0
 498 0008 01D1     		bne	.L37
ARM GAS  C:\Users\PRICHA~1\AppData\Local\Temp\cc7RLrij.s 			page 23


 515:FreeRTOS\source/event_groups.c **** 	configASSERT( ( uxBitsToSet & eventEVENT_BITS_CONTROL_BYTES ) == 0 );
 499              		.loc 1 515 0 is_stmt 0 discriminator 1
 500              		.syntax divided
 501              	@ 515 "FreeRTOS\source\event_groups.c" 1
 502 000a 72B6     		 cpsid i 
 503              	@ 0 "" 2
 504              		.thumb
 505              		.syntax unified
 506              	.L38:
 507 000c FEE7     		b	.L38
 508              	.L37:
 516:FreeRTOS\source/event_groups.c **** 
 509              		.loc 1 516 0 is_stmt 1
 510 000e 0B0E     		lsrs	r3, r1, #24
 511 0010 01D0     		beq	.L39
 516:FreeRTOS\source/event_groups.c **** 
 512              		.loc 1 516 0 is_stmt 0 discriminator 1
 513              		.syntax divided
 514              	@ 516 "FreeRTOS\source\event_groups.c" 1
 515 0012 72B6     		 cpsid i 
 516              	@ 0 "" 2
 517              		.thumb
 518              		.syntax unified
 519              	.L40:
 520 0014 FEE7     		b	.L40
 521              	.L39:
 522              	.LVL67:
 519:FreeRTOS\source/event_groups.c **** 	vTaskSuspendAll();
 523              		.loc 1 519 0 is_stmt 1
 524 0016 0600     		movs	r6, r0
 525 0018 0C36     		adds	r6, r6, #12
 526              	.LVL68:
 520:FreeRTOS\source/event_groups.c **** 	{
 527              		.loc 1 520 0
 528 001a FFF7FEFF 		bl	vTaskSuspendAll
 529              	.LVL69:
 524:FreeRTOS\source/event_groups.c **** 
 530              		.loc 1 524 0
 531 001e 2069     		ldr	r0, [r4, #16]
 532              	.LVL70:
 527:FreeRTOS\source/event_groups.c **** 
 533              		.loc 1 527 0
 534 0020 2368     		ldr	r3, [r4]
 535 0022 1D43     		orrs	r5, r3
 536              	.LVL71:
 537 0024 2560     		str	r5, [r4]
 509:FreeRTOS\source/event_groups.c **** EventGroup_t *pxEventBits = ( EventGroup_t * ) xEventGroup;
 538              		.loc 1 509 0
 539 0026 0025     		movs	r5, #0
 530:FreeRTOS\source/event_groups.c **** 		{
 540              		.loc 1 530 0
 541 0028 1FE0     		b	.L41
 542              	.LVL72:
 543              	.L46:
 532:FreeRTOS\source/event_groups.c **** 			uxBitsWaitedFor = listGET_LIST_ITEM_VALUE( pxListItem );
 544              		.loc 1 532 0
 545 002a 4768     		ldr	r7, [r0, #4]
ARM GAS  C:\Users\PRICHA~1\AppData\Local\Temp\cc7RLrij.s 			page 24


 546              	.LVL73:
 533:FreeRTOS\source/event_groups.c **** 			xMatchFound = pdFALSE;
 547              		.loc 1 533 0
 548 002c 0168     		ldr	r1, [r0]
 549              	.LVL74:
 538:FreeRTOS\source/event_groups.c **** 
 550              		.loc 1 538 0
 551 002e 0B02     		lsls	r3, r1, #8
 552 0030 1B0A     		lsrs	r3, r3, #8
 553              	.LVL75:
 540:FreeRTOS\source/event_groups.c **** 			{
 554              		.loc 1 540 0
 555 0032 4A01     		lsls	r2, r1, #5
 556 0034 04D4     		bmi	.L42
 543:FreeRTOS\source/event_groups.c **** 				{
 557              		.loc 1 543 0
 558 0036 2268     		ldr	r2, [r4]
 559 0038 1A42     		tst	r2, r3
 560 003a 07D1     		bne	.L47
 534:FreeRTOS\source/event_groups.c **** 
 561              		.loc 1 534 0
 562 003c 0022     		movs	r2, #0
 563 003e 08E0     		b	.L43
 564              	.L42:
 552:FreeRTOS\source/event_groups.c **** 			{
 565              		.loc 1 552 0
 566 0040 2268     		ldr	r2, [r4]
 567 0042 1A40     		ands	r2, r3
 568 0044 9342     		cmp	r3, r2
 569 0046 03D0     		beq	.L48
 534:FreeRTOS\source/event_groups.c **** 
 570              		.loc 1 534 0
 571 0048 0022     		movs	r2, #0
 572 004a 02E0     		b	.L43
 573              	.L47:
 545:FreeRTOS\source/event_groups.c **** 				}
 574              		.loc 1 545 0
 575 004c 0122     		movs	r2, #1
 576 004e 00E0     		b	.L43
 577              	.L48:
 555:FreeRTOS\source/event_groups.c **** 			}
 578              		.loc 1 555 0
 579 0050 0122     		movs	r2, #1
 580              	.L43:
 581              	.LVL76:
 562:FreeRTOS\source/event_groups.c **** 			{
 582              		.loc 1 562 0
 583 0052 002A     		cmp	r2, #0
 584 0054 08D0     		beq	.L44
 565:FreeRTOS\source/event_groups.c **** 				{
 585              		.loc 1 565 0
 586 0056 CA01     		lsls	r2, r1, #7
 587 0058 00D5     		bpl	.L45
 588              	.LVL77:
 567:FreeRTOS\source/event_groups.c **** 				}
 589              		.loc 1 567 0
 590 005a 1D43     		orrs	r5, r3
ARM GAS  C:\Users\PRICHA~1\AppData\Local\Temp\cc7RLrij.s 			page 25


 591              	.LVL78:
 592              	.L45:
 579:FreeRTOS\source/event_groups.c **** 			}
 593              		.loc 1 579 0
 594 005c 8021     		movs	r1, #128
 595              	.LVL79:
 596 005e 8904     		lsls	r1, r1, #18
 597 0060 2368     		ldr	r3, [r4]
 598              	.LVL80:
 599 0062 1943     		orrs	r1, r3
 600 0064 FFF7FEFF 		bl	vTaskRemoveFromUnorderedEventList
 601              	.LVL81:
 602              	.L44:
 534:FreeRTOS\source/event_groups.c **** 
 603              		.loc 1 534 0
 604 0068 3800     		movs	r0, r7
 605              	.LVL82:
 606              	.L41:
 530:FreeRTOS\source/event_groups.c **** 		{
 607              		.loc 1 530 0
 608 006a B042     		cmp	r0, r6
 609 006c DDD1     		bne	.L46
 590:FreeRTOS\source/event_groups.c **** 	}
 610              		.loc 1 590 0
 611 006e 2368     		ldr	r3, [r4]
 612 0070 AB43     		bics	r3, r5
 613 0072 2360     		str	r3, [r4]
 592:FreeRTOS\source/event_groups.c **** 
 614              		.loc 1 592 0
 615 0074 FFF7FEFF 		bl	xTaskResumeAll
 616              	.LVL83:
 594:FreeRTOS\source/event_groups.c **** }
 617              		.loc 1 594 0
 618 0078 2068     		ldr	r0, [r4]
 595:FreeRTOS\source/event_groups.c **** /*-----------------------------------------------------------*/
 619              		.loc 1 595 0
 620              		@ sp needed
 621              	.LVL84:
 622              	.LVL85:
 623              	.LVL86:
 624 007a F8BD     		pop	{r3, r4, r5, r6, r7, pc}
 625              		.cfi_endproc
 626              	.LFE37:
 627              		.size	xEventGroupSetBits, .-xEventGroupSetBits
 628              		.section	.text.xEventGroupSync,"ax",%progbits
 629              		.align	2
 630              		.global	xEventGroupSync
 631              		.code	16
 632              		.thumb_func
 633              		.type	xEventGroupSync, %function
 634              	xEventGroupSync:
 635              	.LFB33:
 177:FreeRTOS\source/event_groups.c **** EventBits_t uxOriginalBitValue, uxReturn;
 636              		.loc 1 177 0
 637              		.cfi_startproc
 638              		@ args = 0, pretend = 0, frame = 8
 639              		@ frame_needed = 0, uses_anonymous_args = 0
ARM GAS  C:\Users\PRICHA~1\AppData\Local\Temp\cc7RLrij.s 			page 26


 640              	.LVL87:
 641 0000 F0B5     		push	{r4, r5, r6, r7, lr}
 642              		.cfi_def_cfa_offset 20
 643              		.cfi_offset 4, -20
 644              		.cfi_offset 5, -16
 645              		.cfi_offset 6, -12
 646              		.cfi_offset 7, -8
 647              		.cfi_offset 14, -4
 648 0002 83B0     		sub	sp, sp, #12
 649              		.cfi_def_cfa_offset 32
 650 0004 0700     		movs	r7, r0
 651 0006 0191     		str	r1, [sp, #4]
 652 0008 1600     		movs	r6, r2
 653 000a 1D00     		movs	r5, r3
 654              	.LVL88:
 183:FreeRTOS\source/event_groups.c **** 	configASSERT( uxBitsToWaitFor != 0 );
 655              		.loc 1 183 0
 656 000c 130E     		lsrs	r3, r2, #24
 657              	.LVL89:
 658 000e 01D0     		beq	.L50
 183:FreeRTOS\source/event_groups.c **** 	configASSERT( uxBitsToWaitFor != 0 );
 659              		.loc 1 183 0 is_stmt 0 discriminator 1
 660              		.syntax divided
 661              	@ 183 "FreeRTOS\source\event_groups.c" 1
 662 0010 72B6     		 cpsid i 
 663              	@ 0 "" 2
 664              		.thumb
 665              		.syntax unified
 666              	.L51:
 667 0012 FEE7     		b	.L51
 668              	.L50:
 184:FreeRTOS\source/event_groups.c **** 	#if ( ( INCLUDE_xTaskGetSchedulerState == 1 ) || ( configUSE_TIMERS == 1 ) )
 669              		.loc 1 184 0 is_stmt 1
 670 0014 002A     		cmp	r2, #0
 671 0016 01D1     		bne	.L52
 184:FreeRTOS\source/event_groups.c **** 	#if ( ( INCLUDE_xTaskGetSchedulerState == 1 ) || ( configUSE_TIMERS == 1 ) )
 672              		.loc 1 184 0 is_stmt 0 discriminator 1
 673              		.syntax divided
 674              	@ 184 "FreeRTOS\source\event_groups.c" 1
 675 0018 72B6     		 cpsid i 
 676              	@ 0 "" 2
 677              		.thumb
 678              		.syntax unified
 679              	.L53:
 680 001a FEE7     		b	.L53
 681              	.L52:
 187:FreeRTOS\source/event_groups.c **** 	}
 682              		.loc 1 187 0 is_stmt 1
 683 001c FFF7FEFF 		bl	xTaskGetSchedulerState
 684              	.LVL90:
 685 0020 0028     		cmp	r0, #0
 686 0022 03D1     		bne	.L64
 187:FreeRTOS\source/event_groups.c **** 	}
 687              		.loc 1 187 0 is_stmt 0 discriminator 2
 688 0024 002D     		cmp	r5, #0
 689 0026 03D1     		bne	.L65
 187:FreeRTOS\source/event_groups.c **** 	}
ARM GAS  C:\Users\PRICHA~1\AppData\Local\Temp\cc7RLrij.s 			page 27


 690              		.loc 1 187 0
 691 0028 0123     		movs	r3, #1
 692 002a 02E0     		b	.L54
 693              	.L64:
 694 002c 0123     		movs	r3, #1
 695 002e 00E0     		b	.L54
 696              	.L65:
 697 0030 0023     		movs	r3, #0
 698              	.L54:
 187:FreeRTOS\source/event_groups.c **** 	}
 699              		.loc 1 187 0 discriminator 6
 700 0032 002B     		cmp	r3, #0
 701 0034 01D1     		bne	.L55
 187:FreeRTOS\source/event_groups.c **** 	}
 702              		.loc 1 187 0 discriminator 7
 703              		.syntax divided
 704              	@ 187 "FreeRTOS\source\event_groups.c" 1
 705 0036 72B6     		 cpsid i 
 706              	@ 0 "" 2
 707              		.thumb
 708              		.syntax unified
 709              	.L56:
 710 0038 FEE7     		b	.L56
 711              	.L55:
 191:FreeRTOS\source/event_groups.c **** 	{
 712              		.loc 1 191 0 is_stmt 1
 713 003a FFF7FEFF 		bl	vTaskSuspendAll
 714              	.LVL91:
 193:FreeRTOS\source/event_groups.c **** 
 715              		.loc 1 193 0
 716 003e 3C68     		ldr	r4, [r7]
 717              	.LVL92:
 195:FreeRTOS\source/event_groups.c **** 
 718              		.loc 1 195 0
 719 0040 0199     		ldr	r1, [sp, #4]
 720 0042 3800     		movs	r0, r7
 721 0044 FFF7FEFF 		bl	xEventGroupSetBits
 722              	.LVL93:
 197:FreeRTOS\source/event_groups.c **** 		{
 723              		.loc 1 197 0
 724 0048 019B     		ldr	r3, [sp, #4]
 725 004a 1C43     		orrs	r4, r3
 726              	.LVL94:
 727 004c 2300     		movs	r3, r4
 728 004e 3340     		ands	r3, r6
 729 0050 9E42     		cmp	r6, r3
 730 0052 04D1     		bne	.L57
 731              	.LVL95:
 204:FreeRTOS\source/event_groups.c **** 
 732              		.loc 1 204 0
 733 0054 3B68     		ldr	r3, [r7]
 734 0056 B343     		bics	r3, r6
 735 0058 3B60     		str	r3, [r7]
 736              	.LVL96:
 206:FreeRTOS\source/event_groups.c **** 		}
 737              		.loc 1 206 0
 738 005a 0025     		movs	r5, #0
ARM GAS  C:\Users\PRICHA~1\AppData\Local\Temp\cc7RLrij.s 			page 28


 739 005c 0BE0     		b	.L58
 740              	.LVL97:
 741              	.L57:
 210:FreeRTOS\source/event_groups.c **** 			{
 742              		.loc 1 210 0
 743 005e 002D     		cmp	r5, #0
 744 0060 08D0     		beq	.L59
 217:FreeRTOS\source/event_groups.c **** 
 745              		.loc 1 217 0
 746 0062 A021     		movs	r1, #160
 747 0064 C904     		lsls	r1, r1, #19
 748 0066 3143     		orrs	r1, r6
 749 0068 381D     		adds	r0, r7, #4
 750 006a 2A00     		movs	r2, r5
 751 006c FFF7FEFF 		bl	vTaskPlaceOnUnorderedEventList
 752              	.LVL98:
 223:FreeRTOS\source/event_groups.c **** 			}
 753              		.loc 1 223 0
 754 0070 0024     		movs	r4, #0
 755 0072 00E0     		b	.L58
 756              	.LVL99:
 757              	.L59:
 229:FreeRTOS\source/event_groups.c **** 				xTimeoutOccurred = pdTRUE;
 758              		.loc 1 229 0
 759 0074 3C68     		ldr	r4, [r7]
 760              	.LVL100:
 761              	.L58:
 234:FreeRTOS\source/event_groups.c **** 
 762              		.loc 1 234 0
 763 0076 FFF7FEFF 		bl	xTaskResumeAll
 764              	.LVL101:
 236:FreeRTOS\source/event_groups.c **** 	{
 765              		.loc 1 236 0
 766 007a 002D     		cmp	r5, #0
 767 007c 16D0     		beq	.L60
 238:FreeRTOS\source/event_groups.c **** 		{
 768              		.loc 1 238 0
 769 007e 0028     		cmp	r0, #0
 770 0080 01D1     		bne	.L61
 240:FreeRTOS\source/event_groups.c **** 		}
 771              		.loc 1 240 0
 772 0082 FFF7FEFF 		bl	vPortYield
 773              	.LVL102:
 774              	.L61:
 251:FreeRTOS\source/event_groups.c **** 
 775              		.loc 1 251 0
 776 0086 FFF7FEFF 		bl	uxTaskResetEventItemValue
 777              	.LVL103:
 778 008a 0400     		movs	r4, r0
 779              	.LVL104:
 253:FreeRTOS\source/event_groups.c **** 		{
 780              		.loc 1 253 0
 781 008c 8301     		lsls	r3, r0, #6
 782 008e 0BD4     		bmi	.L62
 256:FreeRTOS\source/event_groups.c **** 			{
 783              		.loc 1 256 0
 784 0090 FFF7FEFF 		bl	vPortEnterCritical
ARM GAS  C:\Users\PRICHA~1\AppData\Local\Temp\cc7RLrij.s 			page 29


 785              	.LVL105:
 258:FreeRTOS\source/event_groups.c **** 
 786              		.loc 1 258 0
 787 0094 3C68     		ldr	r4, [r7]
 788              	.LVL106:
 264:FreeRTOS\source/event_groups.c **** 				{
 789              		.loc 1 264 0
 790 0096 2300     		movs	r3, r4
 791 0098 3340     		ands	r3, r6
 792 009a 9E42     		cmp	r6, r3
 793 009c 02D1     		bne	.L63
 266:FreeRTOS\source/event_groups.c **** 				}
 794              		.loc 1 266 0
 795 009e 2300     		movs	r3, r4
 796 00a0 B343     		bics	r3, r6
 797 00a2 3B60     		str	r3, [r7]
 798              	.L63:
 273:FreeRTOS\source/event_groups.c **** 
 799              		.loc 1 273 0
 800 00a4 FFF7FEFF 		bl	vPortExitCritical
 801              	.LVL107:
 802              	.L62:
 284:FreeRTOS\source/event_groups.c **** 	}
 803              		.loc 1 284 0
 804 00a8 2402     		lsls	r4, r4, #8
 805              	.LVL108:
 806 00aa 240A     		lsrs	r4, r4, #8
 807              	.LVL109:
 808              	.L60:
 293:FreeRTOS\source/event_groups.c **** /*-----------------------------------------------------------*/
 809              		.loc 1 293 0
 810 00ac 2000     		movs	r0, r4
 811 00ae 03B0     		add	sp, sp, #12
 812              		@ sp needed
 813              	.LVL110:
 814              	.LVL111:
 815              	.LVL112:
 816              	.LVL113:
 817 00b0 F0BD     		pop	{r4, r5, r6, r7, pc}
 818              		.cfi_endproc
 819              	.LFE33:
 820              		.size	xEventGroupSync, .-xEventGroupSync
 821 00b2 C046     		.section	.text.vEventGroupDelete,"ax",%progbits
 822              		.align	2
 823              		.global	vEventGroupDelete
 824              		.code	16
 825              		.thumb_func
 826              		.type	vEventGroupDelete, %function
 827              	vEventGroupDelete:
 828              	.LFB38:
 599:FreeRTOS\source/event_groups.c **** EventGroup_t *pxEventBits = ( EventGroup_t * ) xEventGroup;
 829              		.loc 1 599 0
 830              		.cfi_startproc
 831              		@ args = 0, pretend = 0, frame = 0
 832              		@ frame_needed = 0, uses_anonymous_args = 0
 833              	.LVL114:
 834 0000 10B5     		push	{r4, lr}
ARM GAS  C:\Users\PRICHA~1\AppData\Local\Temp\cc7RLrij.s 			page 30


 835              		.cfi_def_cfa_offset 8
 836              		.cfi_offset 4, -8
 837              		.cfi_offset 14, -4
 838 0002 0400     		movs	r4, r0
 839              	.LVL115:
 603:FreeRTOS\source/event_groups.c **** 	{
 840              		.loc 1 603 0
 841 0004 FFF7FEFF 		bl	vTaskSuspendAll
 842              	.LVL116:
 607:FreeRTOS\source/event_groups.c **** 		{
 843              		.loc 1 607 0
 844 0008 0AE0     		b	.L67
 845              	.L70:
 611:FreeRTOS\source/event_groups.c **** 			vTaskRemoveFromUnorderedEventList( pxTasksWaitingForBits->xListEnd.pxNext, eventUNBLOCKED_DUE_TO
 846              		.loc 1 611 0
 847 000a 2069     		ldr	r0, [r4, #16]
 848 000c 2300     		movs	r3, r4
 849 000e 0C33     		adds	r3, r3, #12
 850 0010 9842     		cmp	r0, r3
 851 0012 01D1     		bne	.L68
 611:FreeRTOS\source/event_groups.c **** 			vTaskRemoveFromUnorderedEventList( pxTasksWaitingForBits->xListEnd.pxNext, eventUNBLOCKED_DUE_TO
 852              		.loc 1 611 0 is_stmt 0 discriminator 1
 853              		.syntax divided
 854              	@ 611 "FreeRTOS\source\event_groups.c" 1
 855 0014 72B6     		 cpsid i 
 856              	@ 0 "" 2
 857              		.thumb
 858              		.syntax unified
 859              	.L69:
 860 0016 FEE7     		b	.L69
 861              	.L68:
 612:FreeRTOS\source/event_groups.c **** 		}
 862              		.loc 1 612 0 is_stmt 1
 863 0018 8021     		movs	r1, #128
 864 001a 8904     		lsls	r1, r1, #18
 865 001c FFF7FEFF 		bl	vTaskRemoveFromUnorderedEventList
 866              	.LVL117:
 867              	.L67:
 607:FreeRTOS\source/event_groups.c **** 		{
 868              		.loc 1 607 0
 869 0020 6368     		ldr	r3, [r4, #4]
 870 0022 002B     		cmp	r3, #0
 871 0024 F1D1     		bne	.L70
 619:FreeRTOS\source/event_groups.c **** 		}
 872              		.loc 1 619 0
 873 0026 2000     		movs	r0, r4
 874 0028 FFF7FEFF 		bl	vPortFree
 875              	.LVL118:
 636:FreeRTOS\source/event_groups.c **** }
 876              		.loc 1 636 0
 877 002c FFF7FEFF 		bl	xTaskResumeAll
 878              	.LVL119:
 637:FreeRTOS\source/event_groups.c **** /*-----------------------------------------------------------*/
 879              		.loc 1 637 0
 880              		@ sp needed
 881              	.LVL120:
 882 0030 10BD     		pop	{r4, pc}
ARM GAS  C:\Users\PRICHA~1\AppData\Local\Temp\cc7RLrij.s 			page 31


 883              		.cfi_endproc
 884              	.LFE38:
 885              		.size	vEventGroupDelete, .-vEventGroupDelete
 886 0032 C046     		.section	.text.vEventGroupSetBitsCallback,"ax",%progbits
 887              		.align	2
 888              		.global	vEventGroupSetBitsCallback
 889              		.code	16
 890              		.thumb_func
 891              		.type	vEventGroupSetBitsCallback, %function
 892              	vEventGroupSetBitsCallback:
 893              	.LFB39:
 643:FreeRTOS\source/event_groups.c **** 	( void ) xEventGroupSetBits( pvEventGroup, ( EventBits_t ) ulBitsToSet );
 894              		.loc 1 643 0
 895              		.cfi_startproc
 896              		@ args = 0, pretend = 0, frame = 0
 897              		@ frame_needed = 0, uses_anonymous_args = 0
 898              	.LVL121:
 899 0000 10B5     		push	{r4, lr}
 900              		.cfi_def_cfa_offset 8
 901              		.cfi_offset 4, -8
 902              		.cfi_offset 14, -4
 644:FreeRTOS\source/event_groups.c **** }
 903              		.loc 1 644 0
 904 0002 FFF7FEFF 		bl	xEventGroupSetBits
 905              	.LVL122:
 645:FreeRTOS\source/event_groups.c **** /*-----------------------------------------------------------*/
 906              		.loc 1 645 0
 907              		@ sp needed
 908 0006 10BD     		pop	{r4, pc}
 909              		.cfi_endproc
 910              	.LFE39:
 911              		.size	vEventGroupSetBitsCallback, .-vEventGroupSetBitsCallback
 912              		.section	.text.vEventGroupClearBitsCallback,"ax",%progbits
 913              		.align	2
 914              		.global	vEventGroupClearBitsCallback
 915              		.code	16
 916              		.thumb_func
 917              		.type	vEventGroupClearBitsCallback, %function
 918              	vEventGroupClearBitsCallback:
 919              	.LFB40:
 651:FreeRTOS\source/event_groups.c **** 	( void ) xEventGroupClearBits( pvEventGroup, ( EventBits_t ) ulBitsToClear );
 920              		.loc 1 651 0
 921              		.cfi_startproc
 922              		@ args = 0, pretend = 0, frame = 0
 923              		@ frame_needed = 0, uses_anonymous_args = 0
 924              	.LVL123:
 925 0000 10B5     		push	{r4, lr}
 926              		.cfi_def_cfa_offset 8
 927              		.cfi_offset 4, -8
 928              		.cfi_offset 14, -4
 652:FreeRTOS\source/event_groups.c **** }
 929              		.loc 1 652 0
 930 0002 FFF7FEFF 		bl	xEventGroupClearBits
 931              	.LVL124:
 653:FreeRTOS\source/event_groups.c **** /*-----------------------------------------------------------*/
 932              		.loc 1 653 0
 933              		@ sp needed
ARM GAS  C:\Users\PRICHA~1\AppData\Local\Temp\cc7RLrij.s 			page 32


 934 0006 10BD     		pop	{r4, pc}
 935              		.cfi_endproc
 936              	.LFE40:
 937              		.size	vEventGroupClearBitsCallback, .-vEventGroupClearBitsCallback
 938              		.text
 939              	.Letext0:
 940              		.file 2 "c:\\program files (x86)\\cypress\\psoc creator\\4.2\\psoc creator\\import\\gnu\\arm\\5.4.
 941              		.file 3 "c:\\program files (x86)\\cypress\\psoc creator\\4.2\\psoc creator\\import\\gnu\\arm\\5.4.
 942              		.file 4 ".\\FreeRTOS/portmacro.h"
 943              		.file 5 ".\\FreeRTOS/list.h"
 944              		.file 6 ".\\FreeRTOS/event_groups.h"
 945              		.file 7 ".\\FreeRTOS/portable.h"
 946              		.file 8 ".\\FreeRTOS/task.h"