ARM GAS  C:\Users\PRICHA~1\AppData\Local\Temp\cc61TXtm.s 			page 1


   1              		.syntax unified
   2              		.cpu cortex-m0
   3              		.fpu softvfp
   4              		.eabi_attribute 20, 1
   5              		.eabi_attribute 21, 1
   6              		.eabi_attribute 23, 3
   7              		.eabi_attribute 24, 1
   8              		.eabi_attribute 25, 1
   9              		.eabi_attribute 26, 1
  10              		.eabi_attribute 30, 1
  11              		.eabi_attribute 34, 0
  12              		.eabi_attribute 18, 4
  13              		.thumb
  14              		.syntax unified
  15              		.file	"INA219.c"
  16              		.text
  17              	.Ltext0:
  18              		.cfi_sections	.debug_frame
  19              		.section	.text.I2C_INA_SendSequence,"ax",%progbits
  20              		.align	2
  21              		.global	I2C_INA_SendSequence
  22              		.code	16
  23              		.thumb_func
  24              		.type	I2C_INA_SendSequence, %function
  25              	I2C_INA_SendSequence:
  26              	.LFB35:
  27              		.file 1 "INA219.c"
   1:INA219.c      **** /* ========================================
   2:INA219.c      ****  *
   3:INA219.c      ****  * Copyright YOUR COMPANY, THE YEAR
   4:INA219.c      ****  * All Rights Reserved
   5:INA219.c      ****  * UNPUBLISHED, LICENSED SOFTWARE.
   6:INA219.c      ****  *
   7:INA219.c      ****  * CONFIDENTIAL AND PROPRIETARY INFORMATION
   8:INA219.c      ****  * WHICH IS THE PROPERTY OF your company.
   9:INA219.c      ****  *
  10:INA219.c      ****  * ========================================
  11:INA219.c      **** */
  12:INA219.c      **** 
  13:INA219.c      **** #include "INA219.h"
  14:INA219.c      **** 
  15:INA219.c      ****                 
  16:INA219.c      **** /* Buffer that holds data to be send to INA219 slave */
  17:INA219.c      **** static uint8 I2C_INA_buff[10];
  18:INA219.c      **** 
  19:INA219.c      **** /* Variable used for buffer indexing */
  20:INA219.c      **** static uint32 I2C_INA_buffIndex = 0u;
  21:INA219.c      **** 
  22:INA219.c      **** /* Variable stores the I2C address */
  23:INA219.c      **** static uint32 I2C_INA_address = 0x40;      
  24:INA219.c      **** 
  25:INA219.c      **** /* Calibration and scale for the expected voltage across the shunt */
  26:INA219.c      **** uint32_t ina219_calValue = 40960;
  27:INA219.c      **** float ina219_calScale = 0.01; 
  28:INA219.c      **** 
  29:INA219.c      **** uint32_t ReadData;
  30:INA219.c      **** 
ARM GAS  C:\Users\PRICHA~1\AppData\Local\Temp\cc61TXtm.s 			page 2


  31:INA219.c      **** void Init_INA(uint32 INA_Addr)
  32:INA219.c      **** {
  33:INA219.c      ****     I2C_INA_address = INA_Addr;
  34:INA219.c      ****     
  35:INA219.c      ****     uint16_t config = INA219_CONFIG_BVOLTAGERANGE_16V |
  36:INA219.c      ****                       INA219_CONFIG_GAIN_8_320MV | 
  37:INA219.c      ****                       INA219_CONFIG_BADCRES_12BIT |
  38:INA219.c      ****                       INA219_CONFIG_SADCRES_12BIT_128S_69MS |
  39:INA219.c      ****                       INA219_CONFIG_MODE_SANDBVOLT_CONTINUOUS;
  40:INA219.c      ****    
  41:INA219.c      ****     // Setup the Config Register    
  42:INA219.c      ****     I2C_INA_SendData(INA219_REG_CONFIG, (config >> 8) & 0xFF, config & 0xFF);
  43:INA219.c      **** 
  44:INA219.c      ****     // Calibrate
  45:INA219.c      ****     I2C_INA_SendData(INA219_REG_CALIBRATION, (ina219_calValue >> 8) & 0xFF, ina219_calValue & 0xFF)
  46:INA219.c      **** 
  47:INA219.c      **** }
  48:INA219.c      **** 
  49:INA219.c      **** 
  50:INA219.c      **** uint32 I2C_INA_SendData(uint8 reg, uint8 data1, uint8 data2) CYREENTRANT {
  51:INA219.c      ****     uint32 errStatus;
  52:INA219.c      ****     
  53:INA219.c      ****     I2C_INA_buff[0u] = reg;
  54:INA219.c      ****     I2C_INA_buff[1u] = data1;
  55:INA219.c      ****     I2C_INA_buff[2u] = data2;
  56:INA219.c      ****     I2C_INA_buffIndex = 3;
  57:INA219.c      ****     
  58:INA219.c      ****     errStatus = I2C_INA_SendSequence();
  59:INA219.c      ****     return errStatus;
  60:INA219.c      **** }
  61:INA219.c      **** 
  62:INA219.c      **** uint32 I2C_INA_ReadData(uint8 readreg) CYREENTRANT {
  63:INA219.c      ****     uint32 errStatus;
  64:INA219.c      ****     
  65:INA219.c      ****     I2C_INA_buff[0u] = readreg;
  66:INA219.c      ****     I2C_INA_buffIndex = 1;
  67:INA219.c      ****     
  68:INA219.c      ****     errStatus = I2C_INA_SendSequence();
  69:INA219.c      ****     if (errStatus != I2C_I2C_MSTR_NO_ERROR)
  70:INA219.c      ****         return errStatus;
  71:INA219.c      ****     
  72:INA219.c      ****     errStatus = I2C_INA_ReadSequence();    
  73:INA219.c      ****     return errStatus;    
  74:INA219.c      **** }
  75:INA219.c      **** 
  76:INA219.c      **** uint32 I2C_INA_SendSequence(void) CYREENTRANT
  77:INA219.c      **** {
  28              		.loc 1 77 0
  29              		.cfi_startproc
  30              		@ args = 0, pretend = 0, frame = 0
  31              		@ frame_needed = 0, uses_anonymous_args = 0
  32 0000 10B5     		push	{r4, lr}
  33              		.cfi_def_cfa_offset 8
  34              		.cfi_offset 4, -8
  35              		.cfi_offset 14, -4
  78:INA219.c      ****     uint32 errStatus;
  79:INA219.c      ****     errStatus = I2C_I2CMasterWriteBuf(I2C_INA_address, I2C_INA_buff, I2C_INA_buffIndex, 0x00);
ARM GAS  C:\Users\PRICHA~1\AppData\Local\Temp\cc61TXtm.s 			page 3


  36              		.loc 1 79 0
  37 0002 0C4B     		ldr	r3, .L5
  38 0004 1868     		ldr	r0, [r3]
  39 0006 0C49     		ldr	r1, .L5+4
  40 0008 04C9     		ldmia	r1!, {r2}
  41 000a 0023     		movs	r3, #0
  42 000c FFF7FEFF 		bl	I2C_I2CMasterWriteBuf
  43              	.LVL0:
  44 0010 0400     		movs	r4, r0
  45              	.LVL1:
  46              	.L2:
  80:INA219.c      **** 
  81:INA219.c      ****     /* Wait until I2C Master finishes transaction */
  82:INA219.c      ****     while(0u == (I2C_I2CMasterStatus() & 0x02)) {}
  47              		.loc 1 82 0 discriminator 1
  48 0012 FFF7FEFF 		bl	I2C_I2CMasterStatus
  49              	.LVL2:
  50 0016 8307     		lsls	r3, r0, #30
  51 0018 FBD5     		bpl	.L2
  83:INA219.c      ****     
  84:INA219.c      ****     switch (errStatus) {
  52              		.loc 1 84 0
  53 001a 042C     		cmp	r4, #4
  54 001c 01D0     		beq	.L4
  55 001e 082C     		cmp	r4, #8
  56 0020 03D1     		bne	.L3
  57              	.L4:
  85:INA219.c      ****     
  86:INA219.c      ****         case I2C_I2C_MSTR_NO_ERROR:
  87:INA219.c      ****             break;
  88:INA219.c      ****     
  89:INA219.c      ****         case I2C_I2C_MSTR_BUS_BUSY:
  90:INA219.c      ****         case I2C_I2C_MSTR_NOT_READY:
  91:INA219.c      ****             I2C_INA_buff[0] = 0;
  58              		.loc 1 91 0
  59 0022 054B     		ldr	r3, .L5+4
  60 0024 0022     		movs	r2, #0
  61 0026 1A71     		strb	r2, [r3, #4]
  92:INA219.c      ****             I2C_INA_buff[1] = 0;
  62              		.loc 1 92 0
  63 0028 5A71     		strb	r2, [r3, #5]
  64              	.L3:
  93:INA219.c      ****             break;
  94:INA219.c      ****     }
  95:INA219.c      **** 
  96:INA219.c      ****     /* Reset buffer index */
  97:INA219.c      ****     I2C_INA_buffIndex = 0u;
  65              		.loc 1 97 0
  66 002a 0022     		movs	r2, #0
  67 002c 024B     		ldr	r3, .L5+4
  68 002e 1A60     		str	r2, [r3]
  98:INA219.c      ****     
  99:INA219.c      ****     return errStatus;
 100:INA219.c      **** }
  69              		.loc 1 100 0
  70 0030 2000     		movs	r0, r4
  71              		@ sp needed
ARM GAS  C:\Users\PRICHA~1\AppData\Local\Temp\cc61TXtm.s 			page 4


  72              	.LVL3:
  73 0032 10BD     		pop	{r4, pc}
  74              	.L6:
  75              		.align	2
  76              	.L5:
  77 0034 00000000 		.word	.LANCHOR0
  78 0038 00000000 		.word	.LANCHOR1
  79              		.cfi_endproc
  80              	.LFE35:
  81              		.size	I2C_INA_SendSequence, .-I2C_INA_SendSequence
  82              		.section	.text.I2C_INA_SendData,"ax",%progbits
  83              		.align	2
  84              		.global	I2C_INA_SendData
  85              		.code	16
  86              		.thumb_func
  87              		.type	I2C_INA_SendData, %function
  88              	I2C_INA_SendData:
  89              	.LFB33:
  50:INA219.c      ****     uint32 errStatus;
  90              		.loc 1 50 0
  91              		.cfi_startproc
  92              		@ args = 0, pretend = 0, frame = 0
  93              		@ frame_needed = 0, uses_anonymous_args = 0
  94              	.LVL4:
  95 0000 10B5     		push	{r4, lr}
  96              		.cfi_def_cfa_offset 8
  97              		.cfi_offset 4, -8
  98              		.cfi_offset 14, -4
  53:INA219.c      ****     I2C_INA_buff[1u] = data1;
  99              		.loc 1 53 0
 100 0002 044B     		ldr	r3, .L8
 101 0004 1871     		strb	r0, [r3, #4]
  54:INA219.c      ****     I2C_INA_buff[2u] = data2;
 102              		.loc 1 54 0
 103 0006 5971     		strb	r1, [r3, #5]
  55:INA219.c      ****     I2C_INA_buffIndex = 3;
 104              		.loc 1 55 0
 105 0008 9A71     		strb	r2, [r3, #6]
  56:INA219.c      ****     
 106              		.loc 1 56 0
 107 000a 0322     		movs	r2, #3
 108              	.LVL5:
 109 000c 1A60     		str	r2, [r3]
  58:INA219.c      ****     return errStatus;
 110              		.loc 1 58 0
 111 000e FFF7FEFF 		bl	I2C_INA_SendSequence
 112              	.LVL6:
  60:INA219.c      **** 
 113              		.loc 1 60 0
 114              		@ sp needed
 115 0012 10BD     		pop	{r4, pc}
 116              	.L9:
 117              		.align	2
 118              	.L8:
 119 0014 00000000 		.word	.LANCHOR1
 120              		.cfi_endproc
 121              	.LFE33:
ARM GAS  C:\Users\PRICHA~1\AppData\Local\Temp\cc61TXtm.s 			page 5


 122              		.size	I2C_INA_SendData, .-I2C_INA_SendData
 123              		.section	.text.Init_INA,"ax",%progbits
 124              		.align	2
 125              		.global	Init_INA
 126              		.code	16
 127              		.thumb_func
 128              		.type	Init_INA, %function
 129              	Init_INA:
 130              	.LFB32:
  32:INA219.c      ****     I2C_INA_address = INA_Addr;
 131              		.loc 1 32 0
 132              		.cfi_startproc
 133              		@ args = 0, pretend = 0, frame = 0
 134              		@ frame_needed = 0, uses_anonymous_args = 0
 135              	.LVL7:
 136 0000 10B5     		push	{r4, lr}
 137              		.cfi_def_cfa_offset 8
 138              		.cfi_offset 4, -8
 139              		.cfi_offset 14, -4
  33:INA219.c      ****     
 140              		.loc 1 33 0
 141 0002 074C     		ldr	r4, .L11
 142 0004 2060     		str	r0, [r4]
 143              	.LVL8:
  42:INA219.c      **** 
 144              		.loc 1 42 0
 145 0006 7F22     		movs	r2, #127
 146 0008 1C21     		movs	r1, #28
 147 000a 0020     		movs	r0, #0
 148              	.LVL9:
 149 000c FFF7FEFF 		bl	I2C_INA_SendData
 150              	.LVL10:
  45:INA219.c      **** 
 151              		.loc 1 45 0
 152 0010 6268     		ldr	r2, [r4, #4]
 153 0012 110A     		lsrs	r1, r2, #8
 154 0014 D2B2     		uxtb	r2, r2
 155 0016 C9B2     		uxtb	r1, r1
 156 0018 0520     		movs	r0, #5
 157 001a FFF7FEFF 		bl	I2C_INA_SendData
 158              	.LVL11:
  47:INA219.c      **** 
 159              		.loc 1 47 0
 160              		@ sp needed
 161 001e 10BD     		pop	{r4, pc}
 162              	.L12:
 163              		.align	2
 164              	.L11:
 165 0020 00000000 		.word	.LANCHOR0
 166              		.cfi_endproc
 167              	.LFE32:
 168              		.size	Init_INA, .-Init_INA
 169              		.section	.text.I2C_INA_ReadSequence,"ax",%progbits
 170              		.align	2
 171              		.global	I2C_INA_ReadSequence
 172              		.code	16
 173              		.thumb_func
ARM GAS  C:\Users\PRICHA~1\AppData\Local\Temp\cc61TXtm.s 			page 6


 174              		.type	I2C_INA_ReadSequence, %function
 175              	I2C_INA_ReadSequence:
 176              	.LFB36:
 101:INA219.c      **** 
 102:INA219.c      **** uint32 I2C_INA_ReadSequence(void) CYREENTRANT {
 177              		.loc 1 102 0
 178              		.cfi_startproc
 179              		@ args = 0, pretend = 0, frame = 0
 180              		@ frame_needed = 0, uses_anonymous_args = 0
 181 0000 10B5     		push	{r4, lr}
 182              		.cfi_def_cfa_offset 8
 183              		.cfi_offset 4, -8
 184              		.cfi_offset 14, -4
 103:INA219.c      ****     
 104:INA219.c      ****     uint32 errStatus;
 105:INA219.c      ****     
 106:INA219.c      ****     I2C_INA_buff[0u] = 0x00;
 185              		.loc 1 106 0
 186 0002 0B49     		ldr	r1, .L15
 187 0004 0023     		movs	r3, #0
 188 0006 0B71     		strb	r3, [r1, #4]
 107:INA219.c      ****     I2C_INA_buff[1u] = 0x00;
 189              		.loc 1 107 0
 190 0008 4B71     		strb	r3, [r1, #5]
 108:INA219.c      ****     I2C_INA_buffIndex = 2;
 191              		.loc 1 108 0
 192 000a 0233     		adds	r3, r3, #2
 193 000c 08C1     		stmia	r1!, {r3}
 109:INA219.c      ****     
 110:INA219.c      ****     errStatus = I2C_I2CMasterReadBuf(I2C_INA_address, I2C_INA_buff, I2C_INA_buffIndex, 0x00);
 194              		.loc 1 110 0
 195 000e 094B     		ldr	r3, .L15+4
 196 0010 1868     		ldr	r0, [r3]
 197 0012 0023     		movs	r3, #0
 198 0014 0222     		movs	r2, #2
 199 0016 FFF7FEFF 		bl	I2C_I2CMasterReadBuf
 200              	.LVL12:
 201 001a 0400     		movs	r4, r0
 202              	.LVL13:
 203              	.L14:
 111:INA219.c      **** 
 112:INA219.c      ****     while(0u == (I2C_I2CMasterStatus() & 0x02))
 204              		.loc 1 112 0 discriminator 1
 205 001c FFF7FEFF 		bl	I2C_I2CMasterStatus
 206              	.LVL14:
 207 0020 8307     		lsls	r3, r0, #30
 208 0022 FBD5     		bpl	.L14
 113:INA219.c      ****     {
 114:INA219.c      ****         /* Wait until I2C Master finishes transaction */
 115:INA219.c      ****     }
 116:INA219.c      **** 
 117:INA219.c      ****     /* Reset buffer index */
 118:INA219.c      ****     I2C_INA_buffIndex = 0u;
 209              		.loc 1 118 0
 210 0024 0022     		movs	r2, #0
 211 0026 024B     		ldr	r3, .L15
 212 0028 1A60     		str	r2, [r3]
ARM GAS  C:\Users\PRICHA~1\AppData\Local\Temp\cc61TXtm.s 			page 7


 119:INA219.c      ****     
 120:INA219.c      ****     return errStatus;
 121:INA219.c      **** }
 213              		.loc 1 121 0
 214 002a 2000     		movs	r0, r4
 215              		@ sp needed
 216              	.LVL15:
 217 002c 10BD     		pop	{r4, pc}
 218              	.L16:
 219 002e C046     		.align	2
 220              	.L15:
 221 0030 00000000 		.word	.LANCHOR1
 222 0034 00000000 		.word	.LANCHOR0
 223              		.cfi_endproc
 224              	.LFE36:
 225              		.size	I2C_INA_ReadSequence, .-I2C_INA_ReadSequence
 226              		.section	.text.I2C_INA_ReadData,"ax",%progbits
 227              		.align	2
 228              		.global	I2C_INA_ReadData
 229              		.code	16
 230              		.thumb_func
 231              		.type	I2C_INA_ReadData, %function
 232              	I2C_INA_ReadData:
 233              	.LFB34:
  62:INA219.c      ****     uint32 errStatus;
 234              		.loc 1 62 0
 235              		.cfi_startproc
 236              		@ args = 0, pretend = 0, frame = 0
 237              		@ frame_needed = 0, uses_anonymous_args = 0
 238              	.LVL16:
 239 0000 10B5     		push	{r4, lr}
 240              		.cfi_def_cfa_offset 8
 241              		.cfi_offset 4, -8
 242              		.cfi_offset 14, -4
  65:INA219.c      ****     I2C_INA_buffIndex = 1;
 243              		.loc 1 65 0
 244 0002 054B     		ldr	r3, .L20
 245 0004 1871     		strb	r0, [r3, #4]
  66:INA219.c      ****     
 246              		.loc 1 66 0
 247 0006 0122     		movs	r2, #1
 248 0008 1A60     		str	r2, [r3]
  68:INA219.c      ****     if (errStatus != I2C_I2C_MSTR_NO_ERROR)
 249              		.loc 1 68 0
 250 000a FFF7FEFF 		bl	I2C_INA_SendSequence
 251              	.LVL17:
  69:INA219.c      ****         return errStatus;
 252              		.loc 1 69 0
 253 000e 0028     		cmp	r0, #0
 254 0010 01D1     		bne	.L18
  72:INA219.c      ****     return errStatus;    
 255              		.loc 1 72 0
 256 0012 FFF7FEFF 		bl	I2C_INA_ReadSequence
 257              	.LVL18:
 258              	.L18:
  74:INA219.c      **** 
 259              		.loc 1 74 0
ARM GAS  C:\Users\PRICHA~1\AppData\Local\Temp\cc61TXtm.s 			page 8


 260              		@ sp needed
 261 0016 10BD     		pop	{r4, pc}
 262              	.L21:
 263              		.align	2
 264              	.L20:
 265 0018 00000000 		.word	.LANCHOR1
 266              		.cfi_endproc
 267              	.LFE34:
 268              		.size	I2C_INA_ReadData, .-I2C_INA_ReadData
 269              		.section	.text.getCurrent_raw,"ax",%progbits
 270              		.align	2
 271              		.global	getCurrent_raw
 272              		.code	16
 273              		.thumb_func
 274              		.type	getCurrent_raw, %function
 275              	getCurrent_raw:
 276              	.LFB37:
 122:INA219.c      **** 
 123:INA219.c      **** int16_t getCurrent_raw(uint32 INA_addr)  {
 277              		.loc 1 123 0
 278              		.cfi_startproc
 279              		@ args = 0, pretend = 0, frame = 0
 280              		@ frame_needed = 0, uses_anonymous_args = 0
 281              	.LVL19:
 282 0000 10B5     		push	{r4, lr}
 283              		.cfi_def_cfa_offset 8
 284              		.cfi_offset 4, -8
 285              		.cfi_offset 14, -4
 124:INA219.c      ****     
 125:INA219.c      ****     uint32 errStatus;
 126:INA219.c      ****     I2C_INA_address = INA_addr;
 286              		.loc 1 126 0
 287 0002 0F4B     		ldr	r3, .L26
 288 0004 1860     		str	r0, [r3]
 127:INA219.c      ****     
 128:INA219.c      ****     int16_t value;
 129:INA219.c      **** 
 130:INA219.c      ****     // Sometimes a sharp load will reset the INA219, which will
 131:INA219.c      ****     // reset the cal register, meaning CURRENT and POWER will
 132:INA219.c      ****     // not be available ... avoid this by always setting a cal
 133:INA219.c      ****     // value even if it's an unfortunate extra step
 134:INA219.c      ****     
 135:INA219.c      ****     errStatus = I2C_INA_SendData(INA219_REG_CALIBRATION, (ina219_calValue >> 8) & 0xFF, ina219_calV
 289              		.loc 1 135 0
 290 0006 5A68     		ldr	r2, [r3, #4]
 291 0008 110A     		lsrs	r1, r2, #8
 292 000a C9B2     		uxtb	r1, r1
 293 000c D2B2     		uxtb	r2, r2
 294 000e 0520     		movs	r0, #5
 295              	.LVL20:
 296 0010 FFF7FEFF 		bl	I2C_INA_SendData
 297              	.LVL21:
 136:INA219.c      ****     if (errStatus != I2C_I2C_MSTR_NO_ERROR)
 298              		.loc 1 136 0
 299 0014 0028     		cmp	r0, #0
 300 0016 0ED1     		bne	.L24
 137:INA219.c      ****         return 0;
ARM GAS  C:\Users\PRICHA~1\AppData\Local\Temp\cc61TXtm.s 			page 9


 138:INA219.c      ****         
 139:INA219.c      ****     // Now we can safely read the CURRENT register!
 140:INA219.c      ****     errStatus = I2C_INA_ReadData(INA219_REG_CURRENT);
 301              		.loc 1 140 0
 302 0018 0430     		adds	r0, r0, #4
 303              	.LVL22:
 304 001a FFF7FEFF 		bl	I2C_INA_ReadData
 305              	.LVL23:
 141:INA219.c      ****     if (errStatus != I2C_I2C_MSTR_NO_ERROR)
 306              		.loc 1 141 0
 307 001e 0028     		cmp	r0, #0
 308 0020 0BD1     		bne	.L25
 142:INA219.c      ****         return 0;
 143:INA219.c      **** 
 144:INA219.c      ****     CyDelay(1u);
 309              		.loc 1 144 0
 310 0022 0130     		adds	r0, r0, #1
 311              	.LVL24:
 312 0024 FFF7FEFF 		bl	CyDelay
 313              	.LVL25:
 145:INA219.c      ****     
 146:INA219.c      ****     // Reassemble raw/unscaled current value from the buffer
 147:INA219.c      ****     value = (int16_t) ((I2C_INA_buff[0] << 8) | I2C_INA_buff[1]);
 314              		.loc 1 147 0
 315 0028 064B     		ldr	r3, .L26+4
 316 002a 1879     		ldrb	r0, [r3, #4]
 317 002c 0002     		lsls	r0, r0, #8
 318 002e 00B2     		sxth	r0, r0
 319 0030 5B79     		ldrb	r3, [r3, #5]
 320              	.LVL26:
 148:INA219.c      ****     
 149:INA219.c      ****     return value;
 321              		.loc 1 149 0
 322 0032 1843     		orrs	r0, r3
 323              	.LVL27:
 324 0034 02E0     		b	.L23
 325              	.LVL28:
 326              	.L24:
 137:INA219.c      ****         
 327              		.loc 1 137 0
 328 0036 0020     		movs	r0, #0
 329              	.LVL29:
 330 0038 00E0     		b	.L23
 331              	.LVL30:
 332              	.L25:
 142:INA219.c      **** 
 333              		.loc 1 142 0
 334 003a 0020     		movs	r0, #0
 335              	.LVL31:
 336              	.L23:
 150:INA219.c      **** }
 337              		.loc 1 150 0
 338              		@ sp needed
 339 003c 10BD     		pop	{r4, pc}
 340              	.L27:
 341 003e C046     		.align	2
 342              	.L26:
ARM GAS  C:\Users\PRICHA~1\AppData\Local\Temp\cc61TXtm.s 			page 10


 343 0040 00000000 		.word	.LANCHOR0
 344 0044 00000000 		.word	.LANCHOR1
 345              		.cfi_endproc
 346              	.LFE37:
 347              		.size	getCurrent_raw, .-getCurrent_raw
 348              		.global	__aeabi_i2f
 349              		.global	__aeabi_fmul
 350              		.section	.text.getCurrent_mA,"ax",%progbits
 351              		.align	2
 352              		.global	getCurrent_mA
 353              		.code	16
 354              		.thumb_func
 355              		.type	getCurrent_mA, %function
 356              	getCurrent_mA:
 357              	.LFB38:
 151:INA219.c      **** 
 152:INA219.c      **** float getCurrent_mA(uint32 INA_Addr)  {
 358              		.loc 1 152 0
 359              		.cfi_startproc
 360              		@ args = 0, pretend = 0, frame = 0
 361              		@ frame_needed = 0, uses_anonymous_args = 0
 362              	.LVL32:
 363 0000 10B5     		push	{r4, lr}
 364              		.cfi_def_cfa_offset 8
 365              		.cfi_offset 4, -8
 366              		.cfi_offset 14, -4
 153:INA219.c      ****   float valueScaled = getCurrent_raw(INA_Addr) * ina219_calScale;
 367              		.loc 1 153 0
 368 0002 FFF7FEFF 		bl	getCurrent_raw
 369              	.LVL33:
 370 0006 FFF7FEFF 		bl	__aeabi_i2f
 371              	.LVL34:
 372 000a 024B     		ldr	r3, .L29
 373 000c 9968     		ldr	r1, [r3, #8]
 374 000e FFF7FEFF 		bl	__aeabi_fmul
 375              	.LVL35:
 154:INA219.c      ****   return valueScaled;
 155:INA219.c      **** }
 376              		.loc 1 155 0
 377              		@ sp needed
 378 0012 10BD     		pop	{r4, pc}
 379              	.L30:
 380              		.align	2
 381              	.L29:
 382 0014 00000000 		.word	.LANCHOR0
 383              		.cfi_endproc
 384              	.LFE38:
 385              		.size	getCurrent_mA, .-getCurrent_mA
 386              		.section	.text.getBusVoltage_raw,"ax",%progbits
 387              		.align	2
 388              		.global	getBusVoltage_raw
 389              		.code	16
 390              		.thumb_func
 391              		.type	getBusVoltage_raw, %function
 392              	getBusVoltage_raw:
 393              	.LFB39:
 156:INA219.c      **** 
ARM GAS  C:\Users\PRICHA~1\AppData\Local\Temp\cc61TXtm.s 			page 11


 157:INA219.c      **** int16_t getBusVoltage_raw(uint32 INA_addr)  {
 394              		.loc 1 157 0
 395              		.cfi_startproc
 396              		@ args = 0, pretend = 0, frame = 0
 397              		@ frame_needed = 0, uses_anonymous_args = 0
 398              	.LVL36:
 399 0000 10B5     		push	{r4, lr}
 400              		.cfi_def_cfa_offset 8
 401              		.cfi_offset 4, -8
 402              		.cfi_offset 14, -4
 158:INA219.c      ****     I2C_INA_address = INA_addr;      
 403              		.loc 1 158 0
 404 0002 0A4B     		ldr	r3, .L32
 405 0004 1860     		str	r0, [r3]
 406              	.LVL37:
 159:INA219.c      ****     uint16_t value=0;
 160:INA219.c      ****     I2C_INA_ReadData(INA219_REG_BUSVOLTAGE);
 407              		.loc 1 160 0
 408 0006 0220     		movs	r0, #2
 409              	.LVL38:
 410 0008 FFF7FEFF 		bl	I2C_INA_ReadData
 411              	.LVL39:
 161:INA219.c      ****     
 162:INA219.c      ****     CyDelay(1u);
 412              		.loc 1 162 0
 413 000c 0120     		movs	r0, #1
 414 000e FFF7FEFF 		bl	CyDelay
 415              	.LVL40:
 163:INA219.c      ****     value = (uint16_t)(I2C_INA_buff[0]<<8) + I2C_INA_buff[1];
 416              		.loc 1 163 0
 417 0012 074B     		ldr	r3, .L32+4
 418 0014 1C79     		ldrb	r4, [r3, #4]
 419 0016 2402     		lsls	r4, r4, #8
 420 0018 5B79     		ldrb	r3, [r3, #5]
 421 001a E418     		adds	r4, r4, r3
 422 001c A4B2     		uxth	r4, r4
 423              	.LVL41:
 164:INA219.c      ****     CyDelay(1u);    
 424              		.loc 1 164 0
 425 001e 0120     		movs	r0, #1
 426 0020 FFF7FEFF 		bl	CyDelay
 427              	.LVL42:
 165:INA219.c      **** 
 166:INA219.c      ****     // Shift to the right 3 to drop CNVR and OVF and multiply by LSB
 167:INA219.c      ****     return (int16_t)((value >> 3) * 4);
 428              		.loc 1 167 0
 429 0024 E008     		lsrs	r0, r4, #3
 430 0026 8000     		lsls	r0, r0, #2
 168:INA219.c      **** }
 431              		.loc 1 168 0
 432              		@ sp needed
 433              	.LVL43:
 434 0028 10BD     		pop	{r4, pc}
 435              	.L33:
 436 002a C046     		.align	2
 437              	.L32:
 438 002c 00000000 		.word	.LANCHOR0
ARM GAS  C:\Users\PRICHA~1\AppData\Local\Temp\cc61TXtm.s 			page 12


 439 0030 00000000 		.word	.LANCHOR1
 440              		.cfi_endproc
 441              	.LFE39:
 442              		.size	getBusVoltage_raw, .-getBusVoltage_raw
 443              		.global	__aeabi_i2d
 444              		.global	__aeabi_dmul
 445              		.global	__aeabi_d2f
 446              		.section	.text.getBusVoltage_V,"ax",%progbits
 447              		.align	2
 448              		.global	getBusVoltage_V
 449              		.code	16
 450              		.thumb_func
 451              		.type	getBusVoltage_V, %function
 452              	getBusVoltage_V:
 453              	.LFB40:
 169:INA219.c      **** 
 170:INA219.c      **** float getBusVoltage_V(uint32 INA_addr)  {    
 454              		.loc 1 170 0
 455              		.cfi_startproc
 456              		@ args = 0, pretend = 0, frame = 0
 457              		@ frame_needed = 0, uses_anonymous_args = 0
 458              	.LVL44:
 459 0000 10B5     		push	{r4, lr}
 460              		.cfi_def_cfa_offset 8
 461              		.cfi_offset 4, -8
 462              		.cfi_offset 14, -4
 171:INA219.c      ****     int16_t value = getBusVoltage_raw(INA_addr);
 463              		.loc 1 171 0
 464 0002 FFF7FEFF 		bl	getBusVoltage_raw
 465              	.LVL45:
 172:INA219.c      ****     return value * 0.001;
 466              		.loc 1 172 0
 467 0006 FFF7FEFF 		bl	__aeabi_i2d
 468              	.LVL46:
 469 000a 034A     		ldr	r2, .L35
 470 000c 034B     		ldr	r3, .L35+4
 471 000e FFF7FEFF 		bl	__aeabi_dmul
 472              	.LVL47:
 473 0012 FFF7FEFF 		bl	__aeabi_d2f
 474              	.LVL48:
 173:INA219.c      **** }
 475              		.loc 1 173 0
 476              		@ sp needed
 477 0016 10BD     		pop	{r4, pc}
 478              	.L36:
 479              		.align	2
 480              	.L35:
 481 0018 FCA9F1D2 		.word	-755914244
 482 001c 4D62503F 		.word	1062232653
 483              		.cfi_endproc
 484              	.LFE40:
 485              		.size	getBusVoltage_V, .-getBusVoltage_V
 486              		.comm	ReadData,4,4
 487              		.global	ina219_calScale
 488              		.global	ina219_calValue
 489              		.data
 490              		.align	2
ARM GAS  C:\Users\PRICHA~1\AppData\Local\Temp\cc61TXtm.s 			page 13


 491              		.set	.LANCHOR0,. + 0
 492              		.type	I2C_INA_address, %object
 493              		.size	I2C_INA_address, 4
 494              	I2C_INA_address:
 495 0000 40000000 		.word	64
 496              		.type	ina219_calValue, %object
 497              		.size	ina219_calValue, 4
 498              	ina219_calValue:
 499 0004 00A00000 		.word	40960
 500              		.type	ina219_calScale, %object
 501              		.size	ina219_calScale, 4
 502              	ina219_calScale:
 503 0008 0AD7233C 		.word	1008981770
 504              		.bss
 505              		.align	2
 506              		.set	.LANCHOR1,. + 0
 507              		.type	I2C_INA_buffIndex, %object
 508              		.size	I2C_INA_buffIndex, 4
 509              	I2C_INA_buffIndex:
 510 0000 00000000 		.space	4
 511              		.type	I2C_INA_buff, %object
 512              		.size	I2C_INA_buff, 10
 513              	I2C_INA_buff:
 514 0004 00000000 		.space	10
 514      00000000 
 514      0000
 515              		.text
 516              	.Letext0:
 517              		.file 2 "c:\\program files (x86)\\cypress\\psoc creator\\4.3\\psoc creator\\import\\gnu\\arm\\5.4.
 518              		.file 3 "c:\\program files (x86)\\cypress\\psoc creator\\4.3\\psoc creator\\import\\gnu\\arm\\5.4.
 519              		.file 4 "Generated_Source\\PSoC4/cytypes.h"
 520              		.file 5 "Generated_Source\\PSoC4/I2C_I2C.h"
 521              		.file 6 "Generated_Source\\PSoC4/CyLib.h"