ARM GAS  C:\Users\PRICHA~1\AppData\Local\Temp\ccFt17DU.s 			page 1


   1              		.syntax unified
   2              		.cpu cortex-m0
   3              		.fpu softvfp
   4              		.eabi_attribute 20, 1
   5              		.eabi_attribute 21, 1
   6              		.eabi_attribute 23, 3
   7              		.eabi_attribute 24, 1
   8              		.eabi_attribute 25, 1
   9              		.eabi_attribute 26, 1
  10              		.eabi_attribute 30, 1
  11              		.eabi_attribute 34, 0
  12              		.eabi_attribute 18, 4
  13              		.thumb
  14              		.syntax unified
  15              		.file	"main.c"
  16              		.text
  17              	.Ltext0:
  18              		.cfi_sections	.debug_frame
  19              		.section	.text.RSTIsrHandler,"ax",%progbits
  20              		.align	2
  21              		.global	RSTIsrHandler
  22              		.code	16
  23              		.thumb_func
  24              		.type	RSTIsrHandler, %function
  25              	RSTIsrHandler:
  26              	.LFB46:
  27              		.file 1 "main.c"
   1:main.c        **** /*******************************************************************************
   2:main.c        **** * File Name: main.c
   3:main.c        **** * Author: Paul Richards, W.M. Keck Observatory
   4:main.c        **** *   (Adapted from original non-RTOS version from Kona Scientific, JP Fumo)
   5:main.c        **** *
   6:main.c        **** * Description:
   7:main.c        **** *  This file provides a SPI interface for the Quadrature Encoder for the ACS project.
   8:main.c        **** *  The I2C device provides readback of motor current consumption.
   9:main.c        **** *
  10:main.c        **** * History:
  11:main.c        **** * 03/22/19 PMR  Rev: 0-0-3 add PID separate I limit and simplify limiting code
  12:main.c        **** * 02/07/19 PMR  Rev: 0-0-2 implement revision numbering in protocol
  13:main.c        **** * 12/18/18 PMR  Rev: B  Implement checksummed messaging and max PWM limiting
  14:main.c        **** * 10/11/18 PMR  Rev: A  Implement PWM functions for PDI control
  15:main.c        **** * 07/31/18 PMR  Rev: NC Initial Release after port from Kona Scientific code
  16:main.c        **** *******************************************************************************/
  17:main.c        **** #include <FreeRTOS.h>
  18:main.c        **** #include <semphr.h>
  19:main.c        **** #include <task.h>
  20:main.c        **** #include <I2C_I2C.h>
  21:main.c        **** #include <stdbool.h>
  22:main.c        **** #include <stdlib.h>
  23:main.c        **** #include <math.h>
  24:main.c        **** #include "INA219.h"
  25:main.c        **** 
  26:main.c        **** /* Firmware revision as of 2019-05-09 PMR */
  27:main.c        **** #define FIRMWARE_REV_0 0
  28:main.c        **** #define FIRMWARE_REV_1 0
  29:main.c        **** #define FIRMWARE_REV_2 5
  30:main.c        **** 
ARM GAS  C:\Users\PRICHA~1\AppData\Local\Temp\ccFt17DU.s 			page 2


  31:main.c        **** /* Debugging - undefine this for a production system that needs to watchdog */
  32:main.c        **** #define DEBUG_PROBE_ATTACHED 1
  33:main.c        **** 
  34:main.c        **** /* --------------------------------------------------------------------- 
  35:main.c        ****  * CONSTANTS
  36:main.c        ****  * --------------------------------------------------------------------- */
  37:main.c        **** 
  38:main.c        **** /* Interrupt priorities (not to be confused with RTOS task priorities) */
  39:main.c        **** #define NESTED_ISR                             (1u)
  40:main.c        **** #define DEFAULT_PRIORITY                       (3u)
  41:main.c        **** #define HIGHER_PRIORITY                        (2u)
  42:main.c        **** 
  43:main.c        **** /* Interrupt prototypes */
  44:main.c        **** CY_ISR_PROTO(HomeIsrHandler);
  45:main.c        **** CY_ISR_PROTO(RSTIsrHandler);
  46:main.c        **** CY_ISR_PROTO(SPI_IsrHandler);
  47:main.c        **** CY_ISR_PROTO(SPI_SS_IsrHandler);
  48:main.c        **** 
  49:main.c        **** /* --------------------------------------------------------------------- 
  50:main.c        ****  * WDT Defines
  51:main.c        ****  *
  52:main.c        ****  * ILO clock is 32KHz (approx. 31ms/count)
  53:main.c        ****  * We will allow the CPU to stall for 2 full seconds before forcibly
  54:main.c        ****  * resetting.  That comes to 64,000 counts for that 2 seconds.
  55:main.c        ****  * --------------------------------------------------------------------- */
  56:main.c        **** #define WDT_COUNT1_REFRESH()                   CySysWdtResetCounters(CY_SYS_WDT_COUNTER1_RESET)
  57:main.c        **** #define WDT_COUNT1_MATCH_RESET                 (0xFA00u)
  58:main.c        **** 
  59:main.c        **** /* --------------------------------------------------------------------- 
  60:main.c        ****  * PWM Defines
  61:main.c        ****  * --------------------------------------------------------------------- */
  62:main.c        **** #define PWM_15KHZ_PERIOD                       (1600)
  63:main.c        **** #define PWM_PCT_TO_COMPARE(x)                  trunc((float) x * (PWM_15KHZ_PERIOD/100))
  64:main.c        **** #define PWM_IDLE                               (50.0)
  65:main.c        **** 
  66:main.c        **** /* TI INA219 Zero-Drift, Bidirectional Current/Power Monitor With I2C Interface */
  67:main.c        **** #define INA219_I2C_ADDR                        (0x40)
  68:main.c        **** #define INA219_CAL_VALUE                       (8192)
  69:main.c        **** 
  70:main.c        **** 
  71:main.c        **** /* Neutral PWM jog is a 50% duty cycle */
  72:main.c        **** #define PWM_JOG_NEUTRAL                        (50)
  73:main.c        **** 
  74:main.c        **** /* PWM maximum current value clipped to +/- X% duty cycle around the center (50 by default, full po
  75:main.c        **** #define PWM_MAX_MAGNITUDE                      (50) 
  76:main.c        **** 
  77:main.c        **** /* --------------------------------------------------------------------- 
  78:main.c        ****  * PID Defines
  79:main.c        ****  * --------------------------------------------------------------------- */
  80:main.c        **** #define PID_MANUAL                             (0)
  81:main.c        **** #define PID_AUTOMATIC                          (1)
  82:main.c        **** #define PID_EFFECTIVE_SETPOINT_DELTA_DEFAULT   (25)
  83:main.c        **** bool inAuto = false;
  84:main.c        **** 
  85:main.c        **** volatile int8 Jog, LastJog;
  86:main.c        **** bool PID_Enabled, PID_Was_Enabled;
  87:main.c        **** int32 PID_Setpoint, PID_EffectiveSetpoint;
ARM GAS  C:\Users\PRICHA~1\AppData\Local\Temp\ccFt17DU.s 			page 3


  88:main.c        **** uint8 PID_EffSetDelta;
  89:main.c        **** uint32 lastTime;
  90:main.c        **** float Output;
  91:main.c        **** float ITerm;
  92:main.c        **** volatile int32 Position, LastPosition;
  93:main.c        **** float refKp, refKi, refKd;
  94:main.c        **** float kp, ki, kd;
  95:main.c        **** uint32 refSampleTime = 5; // Default to 5ms
  96:main.c        **** float outMax_Total, outMax_ITerm;
  97:main.c        **** float pwmLimit, pwmMax, pwmMin;    
  98:main.c        **** 
  99:main.c        **** /* --------------------------------------------------------------------- 
 100:main.c        ****  * ENCODER PROPERTIES
 101:main.c        ****  *
 102:main.c        ****  * The encoder counts up and down in Counter_1, which is unsigned 24 bit
 103:main.c        ****  *
 104:main.c        ****  * Note: the negative boundary is defined as 1,048,576 counts of underflow
 105:main.c        ****  * in the Counter_1 value.  This allows us to start at max travel, reset 
 106:main.c        ****  * encoder to 0 and count negative the full travel before hitting the home
 107:main.c        ****  * flag and resetting the counter to 0 again.
 108:main.c        ****  *
 109:main.c        ****  * (0x100000 or 1.048M is >3x the entire actuator travel)
 110:main.c        ****  * --------------------------------------------------------------------- */
 111:main.c        **** #define ENCODER_MAX                            (0xFFFFFF)             
 112:main.c        **** #define ENCODER_NEGATIVE_BOUNDARY              (0xFFFFFF - 0x100000)  
 113:main.c        **** #define ENCODER_COUNTS_PER_INDEX               (10000)
 114:main.c        **** 
 115:main.c        **** /* --------------------------------------------------------------------- 
 116:main.c        ****  * INA219 REGISTERS
 117:main.c        ****  * --------------------------------------------------------------------- */
 118:main.c        **** #define INA219_REG_CONFIG                      (0x00)
 119:main.c        **** #define INA219_REG_SHUNTVOLTAGE                (0x01)
 120:main.c        **** #define INA219_REG_BUSVOLTAGE                  (0x02)
 121:main.c        **** #define INA219_REG_POWER                       (0x03)
 122:main.c        **** #define INA219_REG_CURRENT                     (0x04)
 123:main.c        **** #define INA219_REG_CALIBRATION                 (0x05)
 124:main.c        **** 
 125:main.c        **** /* ****************************
 126:main.c        ****  * INA219 CONFIG REGISTER (R/W)
 127:main.c        ****  * **************************** */
 128:main.c        **** #define INA219_CONFIG_RESET                    (0x8000)  // Reset Bit
 129:main.c        **** 
 130:main.c        **** #define INA219_CONFIG_BVOLTAGERANGE_MASK       (0x2000)  // Bus Voltage Range Mask
 131:main.c        **** #define INA219_CONFIG_BVOLTAGERANGE_16V        (0x0000)  // 0-16V Range
 132:main.c        **** #define INA219_CONFIG_BVOLTAGERANGE_32V        (0x2000)  // 0-32V Range
 133:main.c        **** 
 134:main.c        **** #define INA219_CONFIG_GAIN_MASK                (0x1800)  // Gain Mask
 135:main.c        **** #define INA219_CONFIG_GAIN_1_40MV              (0x0000)  // Gain 1, 40mV Range
 136:main.c        **** #define INA219_CONFIG_GAIN_2_80MV              (0x0800)  // Gain 2, 80mV Range
 137:main.c        **** #define INA219_CONFIG_GAIN_4_160MV             (0x1000)  // Gain 4, 160mV Range
 138:main.c        **** #define INA219_CONFIG_GAIN_8_320MV             (0x1800)  // Gain 8, 320mV Range
 139:main.c        **** 
 140:main.c        **** #define INA219_CONFIG_BADCRES_MASK             (0x0780)  // Bus ADC Resolution Mask
 141:main.c        **** #define INA219_CONFIG_BADCRES_9BIT             (0x0080)  // 9-bit bus res = 0..511
 142:main.c        **** #define INA219_CONFIG_BADCRES_10BIT            (0x0100)  // 10-bit bus res = 0..1023
 143:main.c        **** #define INA219_CONFIG_BADCRES_11BIT            (0x0200)  // 11-bit bus res = 0..2047
 144:main.c        **** #define INA219_CONFIG_BADCRES_12BIT            (0x0400)  // 12-bit bus res = 0..4097
ARM GAS  C:\Users\PRICHA~1\AppData\Local\Temp\ccFt17DU.s 			page 4


 145:main.c        **** 
 146:main.c        **** #define INA219_CONFIG_SADCRES_MASK             (0x0078)  // Shunt ADC Resolution and Averaging Mask
 147:main.c        **** #define INA219_CONFIG_SADCRES_9BIT_1S_84US     (0x0000)  // 1 x 9-bit shunt sample
 148:main.c        **** #define INA219_CONFIG_SADCRES_10BIT_1S_148US   (0x0008)  // 1 x 10-bit shunt sample
 149:main.c        **** #define INA219_CONFIG_SADCRES_11BIT_1S_276US   (0x0010)  // 1 x 11-bit shunt sample
 150:main.c        **** #define INA219_CONFIG_SADCRES_12BIT_1S_532US   (0x0018)  // 1 x 12-bit shunt sample
 151:main.c        **** #define INA219_CONFIG_SADCRES_12BIT_2S_1060US  (0x0048)	 // 2 x 12-bit shunt samples averaged toget
 152:main.c        **** #define INA219_CONFIG_SADCRES_12BIT_4S_2130US  (0x0050)  // 4 x 12-bit shunt samples averaged toget
 153:main.c        **** #define INA219_CONFIG_SADCRES_12BIT_8S_4260US  (0x0058)  // 8 x 12-bit shunt samples averaged toget
 154:main.c        **** #define INA219_CONFIG_SADCRES_12BIT_16S_8510US (0x0060)  // 16 x 12-bit shunt samples averaged toge
 155:main.c        **** #define INA219_CONFIG_SADCRES_12BIT_32S_17MS   (0x0068)  // 32 x 12-bit shunt samples averaged toge
 156:main.c        **** #define INA219_CONFIG_SADCRES_12BIT_64S_34MS   (0x0070)  // 64 x 12-bit shunt samples averaged toge
 157:main.c        **** #define INA219_CONFIG_SADCRES_12BIT_128S_69MS  (0x0078)  // 128 x 12-bit shunt samples averaged tog
 158:main.c        **** 
 159:main.c        **** #define INA219_CONFIG_MODE_MASK                (0x0007)  // Operating Mode Mask
 160:main.c        **** #define INA219_CONFIG_MODE_POWERDOWN           (0x0000)
 161:main.c        **** #define INA219_CONFIG_MODE_SVOLT_TRIGGERED     (0x0001)
 162:main.c        **** #define INA219_CONFIG_MODE_BVOLT_TRIGGERED     (0x0002)
 163:main.c        **** #define INA219_CONFIG_MODE_SANDBVOLT_TRIGGERED (0x0003)
 164:main.c        **** #define INA219_CONFIG_MODE_ADCOFF              (0x0004)
 165:main.c        **** #define INA219_CONFIG_MODE_SVOLT_CONTINUOUS    (0x0005)
 166:main.c        **** #define INA219_CONFIG_MODE_BVOLT_CONTINUOUS    (0x0006)
 167:main.c        **** #define INA219_CONFIG_MODE_SANDBVOLT_CONTINUOUS (0x0007)	
 168:main.c        **** 
 169:main.c        **** 
 170:main.c        **** /* --------------------------------------------------------------------- 
 171:main.c        ****  * RTOS INTERFACES
 172:main.c        ****  * --------------------------------------------------------------------- */
 173:main.c        **** /* Define macros for delaying a task by an amount, returning control back to the OS.
 174:main.c        ****    We have to sleep in OS ticks, so compute how many that is and sleep that long.
 175:main.c        ****    Minimum sleep time is 1ms. */
 176:main.c        **** #define Sleep(MSToSleep)    vTaskDelay( ( MSToSleep * 1000 ) / configTICK_RATE_HZ )
 177:main.c        **** 
 178:main.c        **** 
 179:main.c        **** /* --------------------------------------------------------------------- 
 180:main.c        ****  * GLOBALS
 181:main.c        ****  * --------------------------------------------------------------------- */
 182:main.c        **** /* Coarse reporting of state back to the node box software */
 183:main.c        **** typedef enum {    
 184:main.c        ****     csUNDEFINED   = 0,  /* Invalid state */
 185:main.c        ****     csUnconfig    = 1,  /* Unconfigured, freshly rebooted */
 186:main.c        ****     csReady       = 2,  /* Configuration complete and ready for commands */
 187:main.c        ****     csMAX    
 188:main.c        **** } ConfigStates_t;
 189:main.c        **** 
 190:main.c        **** #define configStateValid(s) ( ((ConfigStates_t) s > csUNDEFINED) && ((ConfigStates_t) s < csMAX) )
 191:main.c        **** 
 192:main.c        **** /* Fault codes, these are bit encoded into a uint8 */
 193:main.c        **** typedef enum {
 194:main.c        ****     fsNONE         = 0b00000000,    /* No faults detected */
 195:main.c        ****     fsUnconfigured = 0b00000001,    /* Attempt to move an unconfigured system */
 196:main.c        ****     fsEncoder      = 0b00000010,    /* One or more encoder phases not changing during a move */
 197:main.c        ****     fsIndex        = 0b00000100,    /* Index marks not seen during a move */
 198:main.c        ****     fsCurrentRead  = 0b00001000,    /* Unable to read current from INA219 device */
 199:main.c        ****     fsChecksum     = 0b00010000,    /* Too many checksum faults */
 200:main.c        ****     fsX2           = 0b00100000,    /* */
 201:main.c        ****     fsX3           = 0b01000000,    /* */
ARM GAS  C:\Users\PRICHA~1\AppData\Local\Temp\ccFt17DU.s 			page 5


 202:main.c        ****     fsX4           = 0b10000000     /* */
 203:main.c        **** } FaultStates_t;
 204:main.c        **** 
 205:main.c        **** volatile ConfigStates_t ConfigState;
 206:main.c        **** volatile uint8 FaultState;
 207:main.c        **** volatile uint8 ConfigSequence;
 208:main.c        **** volatile uint16 ChecksumErrors;
 209:main.c        **** volatile int16 Current;
 210:main.c        **** volatile float PWM;
 211:main.c        **** uint8 CurrentI2Cinbuf[20];
 212:main.c        **** 
 213:main.c        **** /* Task stack information */
 214:main.c        **** volatile UBaseType_t uxHighWaterMark_PID;
 215:main.c        **** volatile UBaseType_t uxHighWaterMark_Current;
 216:main.c        **** volatile UBaseType_t uxHighWaterMark_Comm;
 217:main.c        **** 
 218:main.c        **** /* Message buffer lock */
 219:main.c        **** SemaphoreHandle_t Lock;
 220:main.c        **** 
 221:main.c        **** /* --------------------------------------------------------------------- 
 222:main.c        ****  * SPI MESSAGING
 223:main.c        ****  * --------------------------------------------------------------------- */
 224:main.c        **** /* V2 protocol 
 225:main.c        **** 
 226:main.c        ****    1) Messages have opcodes (configuration, position, get status)
 227:main.c        ****    2) Messages are validated by a checksum instead of an arbitrary signature pattern.
 228:main.c        ****    3) Transfer the max message size every time, regardless of all bytes used or not.
 229:main.c        **** */
 230:main.c        ****     
 231:main.c        **** /* Set this to match the size of the status response message, 18 bytes */    
 232:main.c        **** #define MAX_MESSAGE_SIZE 30
 233:main.c        ****     
 234:main.c        **** /* Remember the last time a message came in so we can timeout moves if the node box stops 
 235:main.c        ****    talking.  1000 ticks is 1 second of not talking. */
 236:main.c        **** #define MAX_LAST_MESSAGE_TIME_TICKS 1000
 237:main.c        **** uint32 LastMessageTimeTick;
 238:main.c        **** 
 239:main.c        **** /* Opcodes that can come from the node box software */
 240:main.c        **** typedef enum {
 241:main.c        ****     opUNDEFINED = 0,
 242:main.c        ****     opConfig    = 1,
 243:main.c        ****     opStatus    = 2,
 244:main.c        ****     opError     = 3,
 245:main.c        ****     opMAX       
 246:main.c        **** } rxMessage_opcodes_t;    
 247:main.c        **** 
 248:main.c        **** /* Sanity check for opcodes */
 249:main.c        **** #define rxMessageOpcodeValid(op) ( ((rxMessage_opcodes_t) op > opUNDEFINED) && ((rxMessage_opcodes_
 250:main.c        **** 
 251:main.c        **** typedef struct { 
 252:main.c        ****     uint8 checksum;        
 253:main.c        ****     uint8 size;       /* Size of the message bytes, including opcode and size and checksum */
 254:main.c        ****     uint8 opcode;     /* Operation (generic overlay for previewing opcode value) */
 255:main.c        **** } __attribute__ ((__packed__)) rxMessage_overlay_t;
 256:main.c        **** 
 257:main.c        **** /* Configuration message, 19 bytes */
 258:main.c        **** typedef struct {
ARM GAS  C:\Users\PRICHA~1\AppData\Local\Temp\ccFt17DU.s 			page 6


 259:main.c        ****     uint8 checksum;        
 260:main.c        ****     uint8 size;       /* Size of the message bytes, including opcode and size and checksum */
 261:main.c        ****     uint8 opcode;     /* Operation: 01 == config */        
 262:main.c        ****     uint8 sequence;   /* Configuration message sequence number */
 263:main.c        ****     float Kp;         /* PID constants to be used in calculation */
 264:main.c        ****     float Ki;
 265:main.c        ****     float Kd;
 266:main.c        ****     uint8 limit_Total;/* Total drive output limit, +/- percentage */
 267:main.c        ****     uint8 limit_ITerm;/* PID I term output limit, also +/- percentage */
 268:main.c        ****     uint8 effsetdelta;/* PID effective setpoint increment delta, nominally 25 steps */
 269:main.c        **** } __attribute__ ((__packed__)) rxMessage_config_t;
 270:main.c        **** 
 271:main.c        **** /* Status message, contains desired position and such values, 12 bytes */
 272:main.c        **** typedef struct {
 273:main.c        ****     uint8  checksum;        
 274:main.c        ****     uint8  size;       /* Size of the message bytes, including opcode and size and checksum */
 275:main.c        ****     uint8  opcode;     /* Operation: 02 == status */
 276:main.c        ****     uint8  enable;     /* Enable/disable PID algorithm */
 277:main.c        ****     int32 setpoint;    /* Setpoint (desired actuator position) */
 278:main.c        ****     int8   jog;        /* Jog value, to manually move the motor; valid range -100 to 100 */ 
 279:main.c        ****     uint8  clearfaults;/* Set to nonzero to clear all the current faults */
 280:main.c        **** } __attribute__ ((__packed__)) rxMessage_status_t;
 281:main.c        ****    
 282:main.c        **** 
 283:main.c        **** 
 284:main.c        **** /* Wrap the message with an array of bytes */
 285:main.c        **** union {
 286:main.c        ****     uint8               buf[MAX_MESSAGE_SIZE];
 287:main.c        ****     rxMessage_overlay_t overlay;
 288:main.c        ****     rxMessage_config_t  config;
 289:main.c        ****     rxMessage_status_t  status;  
 290:main.c        **** } rxMessage;
 291:main.c        **** 
 292:main.c        **** /* Message back to the BBB, watch out for alignment here by packing the structure (should be 18 byt
 293:main.c        **** typedef struct  {  
 294:main.c        ****     uint8  checksum;   /* Message checksum */    
 295:main.c        ****     uint8  version0;   /* Version byte 0 */ 
 296:main.c        ****     uint8  version1;   /* Version byte 1 */
 297:main.c        ****     uint8  version2;   /* Version byte 2 */
 298:main.c        ****     uint8  size;       /* Size of the message bytes, including opcode and size and checksum */
 299:main.c        ****     uint8  opcode;     /* Echo back of the opcode this response is for, operation: 02 == status */
 300:main.c        ****     uint8  state;      /* Enum value for current device configuration state */ 
 301:main.c        ****     uint8  fault;      /* Bit encoded fields for current fault status */
 302:main.c        ****     uint8  sequence;   /* Echo back the config sequence number currently set */
 303:main.c        ****     uint16 checksum_errors; /* Count of checksum errors */
 304:main.c        ****     int16 current;     /* Motor current consumption (mA) */
 305:main.c        ****     int32 position;    /* Actual actuator position, signed value */ 
 306:main.c        ****     float pwm;         /* PWM value the motor is moving at */     
 307:main.c        **** } __attribute__ ((__packed__)) txMessage_t;
 308:main.c        **** 
 309:main.c        **** /* Wrap the message with an array of bytes */
 310:main.c        **** union {    
 311:main.c        ****     uint8       buf[MAX_MESSAGE_SIZE];
 312:main.c        ****     txMessage_t msg;
 313:main.c        **** } txMessage;
 314:main.c        **** 
 315:main.c        **** /* State machine definition for transmit side of messaging */
ARM GAS  C:\Users\PRICHA~1\AppData\Local\Temp\ccFt17DU.s 			page 7


 316:main.c        **** typedef enum {
 317:main.c        ****     txmsClear,    /* Transmit message buffer is empty and needs loading */
 318:main.c        ****     txmsLoaded    /* Transmit message buffer has been loaded by the message thread for sending */
 319:main.c        **** } txMessageStates_t;
 320:main.c        **** 
 321:main.c        **** txMessageStates_t txMessageState;
 322:main.c        **** 
 323:main.c        **** 
 324:main.c        **** /******************************************************************************/
 325:main.c        **** /* Function prototypes */
 326:main.c        **** int32 GetPosition(void);
 327:main.c        **** /******************************************************************************/
 328:main.c        **** 
 329:main.c        **** 
 330:main.c        **** 
 331:main.c        **** /*******************************************************************************
 332:main.c        **** * Function Name: setupFreeRTOS
 333:main.c        **** ********************************************************************************
 334:main.c        **** * Summary:
 335:main.c        **** *  Hooks the tick and service handlers for the RTOS at runtime.
 336:main.c        **** *
 337:main.c        **** * Parameters: None
 338:main.c        **** * Return: None
 339:main.c        **** *******************************************************************************/
 340:main.c        **** 
 341:main.c        **** extern void xPortPendSVHandler(void);
 342:main.c        **** extern void xPortSysTickHandler(void);
 343:main.c        **** extern void vPortSVCHandler(void);
 344:main.c        **** 
 345:main.c        **** void setupFreeRTOS(void) {
 346:main.c        **** #define CORTEX_INTERRUPT_BASE (16)
 347:main.c        ****     
 348:main.c        ****     /* Handler for Cortex Supervisor Call (SVC, formerly SWI) - address 11 */
 349:main.c        ****     CyIntSetSysVector( CORTEX_INTERRUPT_BASE + SVCall_IRQn, (cyisraddress)vPortSVCHandler );
 350:main.c        ****     
 351:main.c        ****     /* Handler for Cortex PendSV Call - address 14 */
 352:main.c        ****     CyIntSetSysVector( CORTEX_INTERRUPT_BASE + PendSV_IRQn, (cyisraddress)xPortPendSVHandler );    
 353:main.c        ****     
 354:main.c        ****     /* Handler for Cortex SYSTICK - address 15 */
 355:main.c        ****     CyIntSetSysVector( CORTEX_INTERRUPT_BASE + SysTick_IRQn, (cyisraddress)xPortSysTickHandler );
 356:main.c        **** }
 357:main.c        **** 
 358:main.c        **** 
 359:main.c        **** /*******************************************************************************
 360:main.c        **** * Function Name: AssertFault
 361:main.c        **** ********************************************************************************
 362:main.c        **** * Summary:
 363:main.c        **** *  Sets a flag that a particular fault has been detected.  Assert fsNONE to clear
 364:main.c        **** *  all faults.
 365:main.c        **** *
 366:main.c        **** * Parameters: FaultStates_t of the fault detected.
 367:main.c        **** * Return: None
 368:main.c        **** *******************************************************************************/
 369:main.c        **** void AssertFault(FaultStates_t fault) {
 370:main.c        ****  
 371:main.c        ****     switch (fault) {
 372:main.c        ****      
ARM GAS  C:\Users\PRICHA~1\AppData\Local\Temp\ccFt17DU.s 			page 8


 373:main.c        ****         /* Clears all asserted faults */
 374:main.c        ****         case fsNONE:
 375:main.c        ****             FaultState = fsNONE;
 376:main.c        ****             break;        
 377:main.c        ****         
 378:main.c        ****         /* Any other fault has its bit turned on in the fault status */
 379:main.c        ****         default:
 380:main.c        ****             FaultState |= fault;
 381:main.c        ****             break;        
 382:main.c        ****     }    
 383:main.c        **** }
 384:main.c        **** 
 385:main.c        **** 
 386:main.c        **** /*******************************************************************************
 387:main.c        **** * Function Name: ClearFault
 388:main.c        **** ********************************************************************************
 389:main.c        **** * Summary:
 390:main.c        **** *  Clears a flag that a particular fault has been detected.  Assert fsNONE to clear
 391:main.c        **** *  all faults.
 392:main.c        **** *
 393:main.c        **** * Parameters: FaultStates_t of the fault to be cleared.
 394:main.c        **** * Return: None
 395:main.c        **** *******************************************************************************/
 396:main.c        **** void ClearFault(FaultStates_t fault) {
 397:main.c        ****  
 398:main.c        ****     switch (fault) {
 399:main.c        ****      
 400:main.c        ****         /* Clears all asserted faults */
 401:main.c        ****         case fsNONE:
 402:main.c        ****             FaultState = fsNONE;
 403:main.c        ****             break;        
 404:main.c        ****         
 405:main.c        ****         /* Any other fault has its bit turned off in the fault status */
 406:main.c        ****         default:
 407:main.c        ****             FaultState &= ~fault;
 408:main.c        ****             break;        
 409:main.c        ****     }    
 410:main.c        **** }
 411:main.c        **** 
 412:main.c        **** 
 413:main.c        **** /*******************************************************************************
 414:main.c        **** * Function Name: Current_Read_Task
 415:main.c        **** ********************************************************************************
 416:main.c        **** * Summary:
 417:main.c        **** *  RTOS task to read the motor current consumption.
 418:main.c        **** *
 419:main.c        **** * Parameters: None
 420:main.c        **** * Return: None
 421:main.c        **** *******************************************************************************/
 422:main.c        **** void Current_Read_Task(void *arg) {
 423:main.c        ****     
 424:main.c        ****     volatile uint32 err;
 425:main.c        ****     uint8 byteMSB;
 426:main.c        ****     uint8 byteLSB;
 427:main.c        ****     volatile int16 CurrentTemp;
 428:main.c        ****     
 429:main.c        ****     
ARM GAS  C:\Users\PRICHA~1\AppData\Local\Temp\ccFt17DU.s 			page 9


 430:main.c        ****     /* Initial high water mark reading */
 431:main.c        ****     uxHighWaterMark_Current = uxTaskGetStackHighWaterMark( NULL );
 432:main.c        ****     
 433:main.c        ****     //TODO Init_INA(INA219_I2C_ADDR);
 434:main.c        ****     
 435:main.c        ****     while (1) {
 436:main.c        **** 
 437:main.c        ****         //TODO CurrentTemp = getCurrent_raw(INA219_I2C_ADDR);
 438:main.c        ****         
 439:main.c        ****         err = I2C_I2CMasterSendStart(INA219_I2C_ADDR, 0x00, 10); // send start condition for the IN
 440:main.c        ****         if (err == I2C_I2C_MSTR_NO_ERROR) {
 441:main.c        ****             
 442:main.c        ****             I2C_I2CMasterWriteByte(INA219_REG_CALIBRATION, 10);
 443:main.c        ****             
 444:main.c        ****             byteMSB = (uint8)((INA219_CAL_VALUE & 0xFF00) >> 8);
 445:main.c        ****             I2C_I2CMasterWriteByte(byteMSB, 10);
 446:main.c        ****             
 447:main.c        ****             byteLSB = (uint8)(INA219_CAL_VALUE & 0x00FF);
 448:main.c        ****             I2C_I2CMasterWriteByte(byteLSB, 10);
 449:main.c        ****             I2C_I2CMasterSendStop(10);
 450:main.c        ****             
 451:main.c        ****         } else {
 452:main.c        ****             Current = 0;
 453:main.c        ****             AssertFault(fsCurrentRead);
 454:main.c        ****         }
 455:main.c        ****         
 456:main.c        ****         err = I2C_I2CMasterSendStart(INA219_I2C_ADDR, 0x00, 10); // send start condition for the IN
 457:main.c        ****         if (err == I2C_I2C_MSTR_NO_ERROR) {
 458:main.c        ****             
 459:main.c        ****             I2C_I2CMasterWriteByte(INA219_REG_CURRENT, 10);
 460:main.c        ****             I2C_I2CMasterSendStop(10);
 461:main.c        ****             
 462:main.c        ****             /* Read back the value for the current usage */
 463:main.c        ****             err = I2C_I2CMasterReadBuf(INA219_I2C_ADDR, CurrentI2Cinbuf, 5, 1);
 464:main.c        ****             
 465:main.c        ****             /* Reassemble the current value into a signed 16 bit value */
 466:main.c        ****             if (err == I2C_I2C_MSTR_NO_ERROR) {
 467:main.c        ****                 CurrentTemp = (int16)(CurrentI2Cinbuf[0] << 8) + CurrentI2Cinbuf[1];
 468:main.c        ****             } else {
 469:main.c        ****                 CurrentTemp = 0;   
 470:main.c        ****                 AssertFault(fsCurrentRead);
 471:main.c        ****             }
 472:main.c        ****         } else {
 473:main.c        ****             CurrentTemp = 0; 
 474:main.c        ****             AssertFault(fsCurrentRead);
 475:main.c        ****         }
 476:main.c        **** 
 477:main.c        ****         /* Perform the assignment as one operation, to make it as atomic as possible (may need more
 478:main.c        ****         Current = CurrentTemp;
 479:main.c        **** 
 480:main.c        ****         /* Read the current at 2Hz */        
 481:main.c        ****         Sleep(500);
 482:main.c        ****         
 483:main.c        ****         /* Get our task stack usage high water mark */    
 484:main.c        ****         uxHighWaterMark_Current = uxTaskGetStackHighWaterMark( NULL );
 485:main.c        ****     }
 486:main.c        ****    
ARM GAS  C:\Users\PRICHA~1\AppData\Local\Temp\ccFt17DU.s 			page 10


 487:main.c        **** }
 488:main.c        **** 
 489:main.c        **** /*******************************************************************************
 490:main.c        **** * Function Name: Comm_Task
 491:main.c        **** ********************************************************************************
 492:main.c        **** * Summary:
 493:main.c        **** *  RTOS task to perform the SPI communications.
 494:main.c        **** *
 495:main.c        **** * Parameters: None
 496:main.c        **** * Return: None
 497:main.c        **** *******************************************************************************/
 498:main.c        **** void Comm_Task(void *arg) {
 499:main.c        ****  
 500:main.c        ****     rxMessage_opcodes_t opcode;
 501:main.c        ****     uint8 size;
 502:main.c        ****     uint8 i;
 503:main.c        ****     uint8 checksum;
 504:main.c        ****     uint8 limit;    
 505:main.c        ****     
 506:main.c        ****     /* Initial high water mark reading */
 507:main.c        ****     uxHighWaterMark_Comm = uxTaskGetStackHighWaterMark( NULL );  
 508:main.c        ****     
 509:main.c        ****     while (1) {
 510:main.c        ****         //PROBE_Write(1);
 511:main.c        ****         
 512:main.c        ****         /* If the SPI is moving data out right now, skip any touching of the message buffer */
 513:main.c        ****         if (!SPI_1_SpiIsBusBusy()) {
 514:main.c        ****         
 515:main.c        ****             /* In certain states, this thread is responsible for loading the outbound messaging */
 516:main.c        ****             switch (txMessageState) {
 517:main.c        ****              
 518:main.c        ****                 /* Output buffer is clear and ready for loading, rxMessage is (probably) good and n
 519:main.c        ****                 case txmsClear:
 520:main.c        **** 
 521:main.c        ****                     /* Take the lock, set the fields, and release the lock.  If we can't get the lo
 522:main.c        ****                        we have missed this messaging cycle have to skip it.
 523:main.c        ****                        2018-12-18 PMR: At the moment, this is the only task taking the lock so it w
 524:main.c        ****                                        Sometime in the future we might need the lock so I am leavin
 525:main.c        ****                     */
 526:main.c        ****                     if( xSemaphoreTake( Lock, ( TickType_t ) 4 ) == pdTRUE ) {
 527:main.c        ****                         
 528:main.c        ****                         /* Get a few items out of the message before checking the sum */
 529:main.c        ****                         size     = rxMessage.overlay.size;
 530:main.c        ****                         opcode   = (rxMessage_opcodes_t) rxMessage.overlay.opcode;
 531:main.c        ****                         
 532:main.c        ****                         /* Make sure the size makes sense.  If we have to reset the size it's proba
 533:main.c        ****                         if (size > sizeof(txMessage.buf))
 534:main.c        ****                             size = sizeof(txMessage.buf);                            
 535:main.c        ****                     
 536:main.c        ****                         /* Calculate the checksum by summing the bytes of the entire message, it sh
 537:main.c        ****                         for (i = 0, checksum = 0; i < size; i++)
 538:main.c        ****                             checksum += rxMessage.buf[i]; 
 539:main.c        **** 
 540:main.c        ****                         /* Checksum fault, don't try to process the messgage */
 541:main.c        ****                         if ((checksum & 0xFF) != 0) {
 542:main.c        ****                             
 543:main.c        ****                             txMessage.msg.opcode = opcode;
ARM GAS  C:\Users\PRICHA~1\AppData\Local\Temp\ccFt17DU.s 			page 11


 544:main.c        ****                             txMessage.msg.size = sizeof(txMessage_t);
 545:main.c        ****                             ChecksumErrors++;
 546:main.c        ****                             
 547:main.c        ****                         /* Message looks fine, process it */
 548:main.c        ****                         } else {
 549:main.c        **** 
 550:main.c        ****                             /* Message opcode must be valid before trying to process the message co
 551:main.c        ****                             if ( rxMessageOpcodeValid(opcode) ) {                            
 552:main.c        ****                             
 553:main.c        ****                                 switch (opcode) {
 554:main.c        ****                                 
 555:main.c        ****                                     case opConfig:
 556:main.c        ****                                         /* Special message to establish settings on the device such
 557:main.c        ****                                     
 558:main.c        ****                                         /* Update the 'reference' values passed down from the serve
 559:main.c        ****                                            values are time interval adjusted */
 560:main.c        ****                                         refKp = rxMessage.config.Kp;
 561:main.c        ****                                         refKi = rxMessage.config.Ki;
 562:main.c        ****                                         refKd = rxMessage.config.Kd;      
 563:main.c        ****                                     
 564:main.c        ****                                         /* PID effective setpoint increment delta value */         
 565:main.c        ****                                         PID_EffSetDelta = rxMessage.config.effsetdelta;
 566:main.c        ****                                            
 567:main.c        ****                                         /* Setup the output limits and stop a jog if one was in pro
 568:main.c        ****                                         Jog = 0;
 569:main.c        ****                                     
 570:main.c        ****                                         /* Clip the limits to 100% duty cycle */
 571:main.c        ****                                         limit = rxMessage.config.limit_Total;
 572:main.c        ****                                         if (limit > 100)
 573:main.c        ****                                             limit = 100;
 574:main.c        ****                                     
 575:main.c        ****                                         outMax_Total = limit;                                      
 576:main.c        ****                                         
 577:main.c        ****                                         limit = rxMessage.config.limit_ITerm;                      
 578:main.c        ****                                         if (limit > 100)
 579:main.c        ****                                             limit = 100;
 580:main.c        ****                                         
 581:main.c        ****                                         outMax_ITerm = limit;
 582:main.c        ****                                         
 583:main.c        ****                                         /* Convert the configured output maximum also into a PWM va
 584:main.c        ****                                         could be set from manual control of the PWM.  
 585:main.c        **** 
 586:main.c        ****                                         outMax_Total ranges from 0 to 100% of power delivery, which
 587:main.c        ****                                         convert it into a value symmetrically above and below the "
 588:main.c        ****                                         point value of 50 */    
 589:main.c        ****                                         pwmLimit = (outMax_Total/100 * 50);
 590:main.c        ****                                         pwmMax = 50 + pwmLimit;
 591:main.c        ****                                         pwmMin = 50 - pwmLimit;
 592:main.c        ****                                     
 593:main.c        ****                                         /* We have received a config message, so signal to the PID 
 594:main.c        ****                                         ConfigState = csReady;  
 595:main.c        ****                                         ConfigSequence = rxMessage.config.sequence;
 596:main.c        ****                                     
 597:main.c        ****                                         /* Clear all the faults when reconfigured */
 598:main.c        ****                                         ClearFault(fsNONE);
 599:main.c        ****                                         break;
 600:main.c        **** 
ARM GAS  C:\Users\PRICHA~1\AppData\Local\Temp\ccFt17DU.s 			page 12


 601:main.c        ****                                     case opStatus:
 602:main.c        ****                                         /* The normal message telling us where to go, how much to j
 603:main.c        ****                                         PID_Enabled = (bool) rxMessage.status.enable;
 604:main.c        ****                                         
 605:main.c        ****                                         /* If we are commanded to move somewhere else, remember whe
 606:main.c        ****                                         if (PID_Setpoint != rxMessage.status.setpoint) {
 607:main.c        ****                                             
 608:main.c        ****                                             /* Remember where we started */
 609:main.c        ****                                             LastPosition = GetPosition();
 610:main.c        ****                                             
 611:main.c        ****                                             /* Update destination */
 612:main.c        ****                                             PID_Setpoint = rxMessage.status.setpoint;
 613:main.c        ****                                             
 614:main.c        ****                                             /* Initialize the effective setpoint to be equal to whe
 615:main.c        ****                                             it will be incremented/decremented when the PID algorit
 616:main.c        ****                                             PID_EffectiveSetpoint = LastPosition;                  
 617:main.c        ****                                             
 618:main.c        ****                                             /* Reset counting of index marks */
 619:main.c        ****                                             Index_Counter_1_WriteCounter(0);
 620:main.c        ****                                         }                                        
 621:main.c        ****                                     
 622:main.c        ****                                         /* PWM jog value ranges from -50 to 50, where -50 is max-re
 623:main.c        ****                                         Jog = rxMessage.status.jog;                                
 624:main.c        ****                                         break;
 625:main.c        ****                                     
 626:main.c        ****                                     /* No other opcodes are valid */
 627:main.c        ****                                     default:
 628:main.c        ****                                         break;
 629:main.c        ****                                 }                           
 630:main.c        ****                             }                            
 631:main.c        ****                         }
 632:main.c        ****                         
 633:main.c        ****                         /* Get a fresh copy of the position information */
 634:main.c        ****                         Position = GetPosition();
 635:main.c        ****                         
 636:main.c        ****                         /* Fill out the common reponse the same way every time, as a status respons
 637:main.c        ****                         txMessage.msg.checksum = 0;
 638:main.c        ****                         txMessage.msg.version0 = FIRMWARE_REV_0;
 639:main.c        ****                         txMessage.msg.version1 = FIRMWARE_REV_1;
 640:main.c        ****                         txMessage.msg.version2 = FIRMWARE_REV_2;
 641:main.c        ****                         txMessage.msg.size     = sizeof(txMessage_t);
 642:main.c        ****                         txMessage.msg.opcode   = opStatus;
 643:main.c        ****                         txMessage.msg.state    = (uint8) ConfigState;
 644:main.c        ****                         txMessage.msg.fault    = (uint8) FaultState;
 645:main.c        ****                         txMessage.msg.checksum_errors = ChecksumErrors;
 646:main.c        ****                         txMessage.msg.sequence = ConfigSequence;
 647:main.c        ****                         txMessage.msg.position = Position;
 648:main.c        ****                         txMessage.msg.pwm      = PWM;
 649:main.c        ****                         txMessage.msg.current  = Current;                            
 650:main.c        ****                         
 651:main.c        ****                         /* Set the checksum in the response */
 652:main.c        ****                         for (i = 0, checksum = 0; i < sizeof(txMessage_t); i++)
 653:main.c        ****                             checksum += txMessage.buf[i]; 
 654:main.c        ****                             
 655:main.c        ****                         /* Take the 2's complement of the sum and put it back in the message */
 656:main.c        ****                         txMessage.msg.checksum = ~checksum + 1;
 657:main.c        ****                             
ARM GAS  C:\Users\PRICHA~1\AppData\Local\Temp\ccFt17DU.s 			page 13


 658:main.c        ****                         /* Copy the readied buffer out to the FIFO */
 659:main.c        ****                         //TODO: should we clear this here, or at the end of the transmit complete i
 660:main.c        ****                         SPI_1_SpiUartPutArray(txMessage.buf, sizeof(txMessage.buf)); 
 661:main.c        **** 
 662:main.c        ****                         /* Indicate it's loaded for use */
 663:main.c        ****                         txMessageState = txmsLoaded;
 664:main.c        ****                         
 665:main.c        ****                         /* Clear all the faults if told to */
 666:main.c        ****                         if ((bool) rxMessage.status.clearfaults)
 667:main.c        ****                             ClearFault(fsNONE);
 668:main.c        ****                     
 669:main.c        ****                         /* Release the lock */
 670:main.c        ****                         xSemaphoreGive( Lock );
 671:main.c        ****                     }            
 672:main.c        ****                 
 673:main.c        ****                     break;
 674:main.c        ****             
 675:main.c        ****                 /* A message was already readied for transmission, nothing to do here */
 676:main.c        ****                 case txmsLoaded:
 677:main.c        ****                     
 678:main.c        ****                     break;
 679:main.c        ****             }
 680:main.c        ****             
 681:main.c        ****         }
 682:main.c        ****         
 683:main.c        ****         //PROBE_Write(0);
 684:main.c        ****         
 685:main.c        ****         /* Quick sleep, a whole messaging sequence will take maybe 1.5ms */
 686:main.c        ****         Sleep(1);
 687:main.c        ****         
 688:main.c        ****         /* Get our task stack usage high water mark */    
 689:main.c        ****         uxHighWaterMark_Comm = uxTaskGetStackHighWaterMark( NULL );
 690:main.c        ****     }
 691:main.c        **** }
 692:main.c        ****     
 693:main.c        **** 
 694:main.c        **** 
 695:main.c        **** 
 696:main.c        **** /*******************************************************************************
 697:main.c        **** * Function Name: PWM_Set
 698:main.c        **** ********************************************************************************
 699:main.c        **** * Summary:
 700:main.c        **** *  Sets the duty cycle of the PWM at the output pin.
 701:main.c        **** *
 702:main.c        **** * Parameters: Duty cycle, in percent.  A value of 50 is "neutral", values up 
 703:main.c        **** *             to 100 is forward drive, and below 50 down to 0 is backward drive.
 704:main.c        **** * Return: None
 705:main.c        **** *******************************************************************************/
 706:main.c        **** void PWM_Set(float dutycycle) {
 707:main.c        ****     
 708:main.c        ****     float drive = dutycycle;
 709:main.c        ****     
 710:main.c        ****     /* Clip to the max PWM drive +/- around 50 */
 711:main.c        ****     if (drive > pwmMax) {
 712:main.c        ****         drive = pwmMax;
 713:main.c        ****     } else if (drive < pwmMin) {
 714:main.c        ****         drive = pwmMin;
ARM GAS  C:\Users\PRICHA~1\AppData\Local\Temp\ccFt17DU.s 			page 14


 715:main.c        ****     }
 716:main.c        ****     
 717:main.c        ****     PWM_1_WriteCompare(PWM_PCT_TO_COMPARE(drive));    
 718:main.c        **** }
 719:main.c        **** 
 720:main.c        **** /*******************************************************************************
 721:main.c        **** * Function Name: GetPosition
 722:main.c        **** ********************************************************************************
 723:main.c        **** * Summary:
 724:main.c        **** *  Get the physical position value and compensate for negative locations.
 725:main.c        **** *
 726:main.c        **** * Parameters: None
 727:main.c        **** * Return: int32 (signed!) position value
 728:main.c        **** *******************************************************************************/
 729:main.c        **** int32 GetPosition(void) {
 730:main.c        ****     
 731:main.c        ****     static volatile uint32 RawPosition;
 732:main.c        ****     static volatile int32 result;
 733:main.c        ****     
 734:main.c        ****     /* Get up-to-date position from the 24 bit unsigned counter*/
 735:main.c        ****     RawPosition = Counter_1_ReadCounter();   
 736:main.c        ****     
 737:main.c        ****     /* If the raw position is higher than some extremely high number, treat it as 
 738:main.c        ****        underflow and make that into a negative value */
 739:main.c        ****     if (RawPosition > ENCODER_NEGATIVE_BOUNDARY) {
 740:main.c        ****         
 741:main.c        ****         result = (-1) * ((int32) ENCODER_MAX - (int32) RawPosition);
 742:main.c        ****         
 743:main.c        ****     } else {
 744:main.c        ****      
 745:main.c        ****         /* Value is "positive", treat it normally */
 746:main.c        ****         result = (int32) RawPosition;
 747:main.c        ****     }
 748:main.c        ****     
 749:main.c        ****     /* Update the master copy of position information */
 750:main.c        ****     Position = result;
 751:main.c        ****     return result;
 752:main.c        **** }
 753:main.c        **** 
 754:main.c        **** 
 755:main.c        **** 
 756:main.c        **** /*******************************************************************************
 757:main.c        **** * Function Name: PID_Initialize
 758:main.c        **** ********************************************************************************
 759:main.c        **** * Summary:
 760:main.c        **** *  Setup and reset the PID terms.
 761:main.c        **** *
 762:main.c        **** * Parameters: None
 763:main.c        **** * Return: None
 764:main.c        **** *******************************************************************************/
 765:main.c        **** void PID_Initialize(void) {
 766:main.c        ****     
 767:main.c        ****     /* Get up-to-date position */
 768:main.c        ****     Position = GetPosition();
 769:main.c        ****     LastPosition = Position;
 770:main.c        ****     
 771:main.c        ****     /* Initialize the effective setpoint to be equal to where we are right now,
ARM GAS  C:\Users\PRICHA~1\AppData\Local\Temp\ccFt17DU.s 			page 15


 772:main.c        ****     it will be incremented/decremented when the PID algorithm runs next time */
 773:main.c        ****     PID_EffectiveSetpoint = LastPosition;
 774:main.c        ****     
 775:main.c        ****     /* 2019-03-13 PMR: Init to zero instead of the output value, since we are not
 776:main.c        ****        switching from manual to auto frequently */
 777:main.c        ****     ITerm = 0;
 778:main.c        **** }    
 779:main.c        **** 
 780:main.c        **** 
 781:main.c        **** /*******************************************************************************
 782:main.c        **** * Function Name: PID_SetTunings
 783:main.c        **** ********************************************************************************
 784:main.c        **** * Summary:
 785:main.c        **** *  Setup the p, i, and d gain values and scale to the sample time.
 786:main.c        **** *
 787:main.c        **** * Parameters: Sample time in ms, and Kp, Ki, Kd gains.
 788:main.c        **** * Return: None
 789:main.c        **** *******************************************************************************/
 790:main.c        **** void PID_SetTunings(uint32 newSampleTime, float newKp, float newKi, float newKd) {
 791:main.c        ****     
 792:main.c        ****     if (newSampleTime > 0) {
 793:main.c        ****     
 794:main.c        ****         float sampleTimeInSec = ((float) newSampleTime) / 1000;
 795:main.c        ****     
 796:main.c        ****         kp = newKp;
 797:main.c        ****         ki = newKi * sampleTimeInSec;
 798:main.c        ****         kd = newKd / sampleTimeInSec;        
 799:main.c        ****     }
 800:main.c        **** }
 801:main.c        **** 
 802:main.c        **** 
 803:main.c        **** /*******************************************************************************
 804:main.c        **** * Function Name: PID_Compute
 805:main.c        **** ********************************************************************************
 806:main.c        **** * Summary:
 807:main.c        **** *  Execute a pass through the PID process to create a duty cycle output.
 808:main.c        **** *
 809:main.c        **** * Parameters: Current time and current destination.
 810:main.c        **** * Return: PWM output, in percentage.
 811:main.c        **** *******************************************************************************/
 812:main.c        **** float PID_Compute(uint32 now, uint32 setpoint) {
 813:main.c        ****     
 814:main.c        ****     int32 error, dPosition;
 815:main.c        ****     uint32 timeChange;
 816:main.c        ****         
 817:main.c        ****     if(!inAuto) 
 818:main.c        ****         return 0;
 819:main.c        ****     
 820:main.c        ****     /* Get most up-to-date current position */
 821:main.c        ****     Position = GetPosition();
 822:main.c        ****     
 823:main.c        ****     /* How much time has elapsed since the last pass? */
 824:main.c        ****     timeChange = (now - lastTime);
 825:main.c        ****     
 826:main.c        ****     /* Only do the PID calc if at LEAST 5ms has elapsed */
 827:main.c        ****     if (timeChange >= refSampleTime) {
 828:main.c        **** 
ARM GAS  C:\Users\PRICHA~1\AppData\Local\Temp\ccFt17DU.s 			page 16


 829:main.c        ****         /* Adjust the gains to the most recent sampling time.  Do it continuously to make sure the 
 830:main.c        ****            in case the cycle runs longer than the normal 5ms. */
 831:main.c        ****         PID_SetTunings(timeChange, refKp, refKi, refKd);
 832:main.c        ****         
 833:main.c        ****         /* Compute all the working error variables */
 834:main.c        ****         error = setpoint - Position;
 835:main.c        ****         ITerm += (ki * error);
 836:main.c        ****         
 837:main.c        ****         /* Clip the I term at a max value for just that term (windup guard) */
 838:main.c        ****         if (ITerm > outMax_ITerm) {
 839:main.c        ****             ITerm = outMax_ITerm;
 840:main.c        ****         } else if (ITerm < -outMax_ITerm) {
 841:main.c        ****             ITerm = -outMax_ITerm;
 842:main.c        ****         }
 843:main.c        ****         
 844:main.c        ****         /* Calculate the error term */
 845:main.c        ****         dPosition = (Position - LastPosition);
 846:main.c        **** 
 847:main.c        ****         /* Compute PID Output */
 848:main.c        ****         Output = (kp * error) + ITerm - (kd * dPosition);
 849:main.c        ****         
 850:main.c        ****         /* Clip the output */
 851:main.c        ****         if (Output> outMax_Total) {
 852:main.c        ****             Output = outMax_Total;
 853:main.c        ****         } else if (Output < -outMax_Total) {
 854:main.c        ****             Output = -outMax_Total;
 855:main.c        ****         }
 856:main.c        **** 
 857:main.c        ****         /* Remember some variables for next time */
 858:main.c        ****         LastPosition = Position;
 859:main.c        ****         lastTime = now;        
 860:main.c        ****     }
 861:main.c        ****     
 862:main.c        ****     return Output;    
 863:main.c        **** }
 864:main.c        ****  
 865:main.c        **** /*******************************************************************************
 866:main.c        **** * Function Name: PID_SetMode
 867:main.c        **** ********************************************************************************
 868:main.c        **** * Summary:
 869:main.c        **** *  Sets the PID into automatic or manual mode.
 870:main.c        **** *
 871:main.c        **** * Parameters: Mode, either PID_AUTOMATIC or PID_MANUAL.
 872:main.c        **** * Return: None
 873:main.c        **** *******************************************************************************/
 874:main.c        **** void PID_SetMode(uint32 Mode) {
 875:main.c        ****     
 876:main.c        ****     bool newAuto = (Mode == PID_AUTOMATIC);
 877:main.c        ****     
 878:main.c        ****     if (newAuto && !inAuto) {  
 879:main.c        ****         /*we just went from manual to auto*/
 880:main.c        ****         PID_Initialize();
 881:main.c        ****     }
 882:main.c        ****     
 883:main.c        ****     inAuto = newAuto;
 884:main.c        **** } 
 885:main.c        ****     
ARM GAS  C:\Users\PRICHA~1\AppData\Local\Temp\ccFt17DU.s 			page 17


 886:main.c        **** /*******************************************************************************
 887:main.c        **** * Function Name: PID_SetDrive
 888:main.c        **** ********************************************************************************
 889:main.c        **** * Summary:
 890:main.c        **** *  Convert the output of PID into a duty cycle for use on the PWM.
 891:main.c        **** *
 892:main.c        **** * Parameters: Percentage output to drive the PWM.
 893:main.c        **** * Return: None
 894:main.c        **** *******************************************************************************/
 895:main.c        **** void PID_SetDrive(float percent) {
 896:main.c        **** 
 897:main.c        ****     /* Valid percentage range coming out of the PID algorithm is -100.0 to +100.0 
 898:main.c        ****        which needs to be translated into a duty cycle value of 0.0 to 100.0 */
 899:main.c        ****     float dutycycle = (percent + 100) / 2;    
 900:main.c        ****     
 901:main.c        ****     /* The duty cycle can now be written to the PWM device itself */
 902:main.c        ****     PWM_Set(dutycycle);  
 903:main.c        **** }
 904:main.c        **** 
 905:main.c        **** 
 906:main.c        **** 
 907:main.c        **** 
 908:main.c        **** /*******************************************************************************
 909:main.c        **** * Function Name: PID_Task
 910:main.c        **** ********************************************************************************
 911:main.c        **** * Summary:
 912:main.c        **** *  RTOS task to perform the PID calculations.
 913:main.c        **** *
 914:main.c        **** * Parameters: None
 915:main.c        **** * Return: None
 916:main.c        **** *******************************************************************************/
 917:main.c        **** void PID_Task(void *arg) {
 918:main.c        ****     
 919:main.c        ****     /* Sleep this thread 5ms at a time */
 920:main.c        ****     uint32 sleeptime = 5;    
 921:main.c        ****     uint32 now;
 922:main.c        ****     float percent; 
 923:main.c        ****     int32 CurrentPosition, DeltaPosition;
 924:main.c        ****     uint32 CurrentIndexCount;
 925:main.c        ****     
 926:main.c        ****     /* Initial high water mark reading */
 927:main.c        ****     uxHighWaterMark_PID = uxTaskGetStackHighWaterMark( NULL );
 928:main.c        ****     
 929:main.c        ****     /* Initial values */
 930:main.c        **** 
 931:main.c        ****     /* These are the 'reference' values passed down from the server, not to be used in-the-raw beca
 932:main.c        ****        values are time interval adjusted */
 933:main.c        ****     refKp = 0;
 934:main.c        ****     refKi = 0;
 935:main.c        ****     refKd = 0;
 936:main.c        ****     
 937:main.c        ****     /* Setup the PID subsystem */
 938:main.c        ****     PID_Initialize();
 939:main.c        ****     PID_SetTunings(sleeptime, refKp, refKi, refKd);    
 940:main.c        ****     PID_SetMode(PID_MANUAL);
 941:main.c        ****     
 942:main.c        ****     /* Initially default to 100% output max until config tells us otherwise */
ARM GAS  C:\Users\PRICHA~1\AppData\Local\Temp\ccFt17DU.s 			page 18


 943:main.c        ****     outMax_Total = 100;
 944:main.c        ****     outMax_ITerm = 100;
 945:main.c        **** 
 946:main.c        ****     /* Init the PWM limits the same way, full maximums */
 947:main.c        ****     pwmLimit = 50;   // This is a + or - value
 948:main.c        ****     pwmMax = PWM_JOG_NEUTRAL + pwmLimit;
 949:main.c        ****     pwmMin = PWM_JOG_NEUTRAL - pwmLimit;    
 950:main.c        ****     
 951:main.c        ****     /* Start counting time at 0ms */
 952:main.c        ****     now = 0;
 953:main.c        ****     
 954:main.c        ****     /* Start off disabled */
 955:main.c        ****     PID_Setpoint = 0;  
 956:main.c        ****     PID_EffectiveSetpoint = 0;
 957:main.c        ****     PID_EffSetDelta = PID_EFFECTIVE_SETPOINT_DELTA_DEFAULT;
 958:main.c        ****     PID_Was_Enabled = false;
 959:main.c        ****     PID_Enabled = false;
 960:main.c        ****     
 961:main.c        ****     while (1) {
 962:main.c        ****         
 963:main.c        ****         PROBE_Write(1);
 964:main.c        ****               
 965:main.c        ****         /* ------------------------------------------------------------------------------------ */
 966:main.c        ****         /* At the top of the PID loop, refresh the counter of the watchdog to indicate the RTOS 
 967:main.c        ****            thread is still alive.  Were the RTOS to crash or the motion thread to die, the CPU 
 968:main.c        ****            will be reset after 2 seconds. */
 969:main.c        ****         WDT_COUNT1_REFRESH();        
 970:main.c        ****         /* ------------------------------------------------------------------------------------ */
 971:main.c        **** 
 972:main.c        ****         
 973:main.c        ****         /* If the server hasn't talked to us in a while (no messages on the SPI), 
 974:main.c        ****            take preventative action and abandon any moves in progress.  When the uint32
 975:main.c        ****            overflows, "now" will be (temporarily) less than the last timestamped message,
 976:main.c        ****            so handle that too */
 977:main.c        ****         now = xTaskGetTickCount();
 978:main.c        ****         if ( (now > (LastMessageTimeTick + MAX_LAST_MESSAGE_TIME_TICKS)) ||
 979:main.c        ****              (now < LastMessageTimeTick) ) {
 980:main.c        ****             
 981:main.c        ****             /* Stop all motion */
 982:main.c        ****             PWM_Set(PWM_JOG_NEUTRAL);
 983:main.c        ****             PID_Enabled = false;
 984:main.c        ****             
 985:main.c        ****             /* Clear the values that would drive motion on the next message arrival.  Assume the ne
 986:main.c        ****                in which case we want to be neutral. */
 987:main.c        ****             Jog = 0;
 988:main.c        **** 
 989:main.c        ****         /* Only run the PID algorithm if we have been configured by the nodebox software */
 990:main.c        ****         } else if (ConfigState == csReady) {
 991:main.c        ****             
 992:main.c        ****             /* Enable the drive outputs for the home and index once configured, otherwise they
 993:main.c        ****                can screw up the boot pins on the BeagleBoneBlack */
 994:main.c        ****             HOME_OUT_SetDriveMode(HOME_OUT_DM_STRONG); 
 995:main.c        ****             INDEX_OUT_SetDriveMode(INDEX_OUT_DM_STRONG); 
 996:main.c        ****         
 997:main.c        ****             /* If the server is asking us to jog, do that instead of PID */
 998:main.c        ****             if (!PID_Enabled) {                   
 999:main.c        ****                 
ARM GAS  C:\Users\PRICHA~1\AppData\Local\Temp\ccFt17DU.s 			page 19


1000:main.c        ****                 /* When we start homing, it looks like a big negative jog.  Setup to watch the inde
1001:main.c        ****                    so we can assert faults if they aren't changing. */                
1002:main.c        ****                 if ((Jog != LastJog) && (Jog != 0)) {
1003:main.c        ****                     
1004:main.c        ****                     /* Update the 'last' jog value, so we don't fall into this reset code over and 
1005:main.c        ****                     LastJog = Jog;
1006:main.c        ****                     
1007:main.c        ****                     /* Remember where we started */
1008:main.c        ****                     LastPosition = GetPosition();
1009:main.c        ****                     
1010:main.c        ****                     /* Reset counting of index marks */
1011:main.c        ****                     Index_Counter_1_WriteCounter(0);
1012:main.c        ****                 }                
1013:main.c        ****                 
1014:main.c        ****                 /* Drive in the direction and speed the server told us */
1015:main.c        ****                 PWM_Set(PWM_JOG_NEUTRAL + Jog);
1016:main.c        **** 
1017:main.c        ****                 /* Watch for stuck signals while we are moving */
1018:main.c        ****                 if ( Jog != 0 ) {
1019:main.c        ****                 
1020:main.c        ****                     /* If we have moved a good distance away from the origin point, compare index c
1021:main.c        ****                        looking for discrepancy. */
1022:main.c        ****                     CurrentPosition = GetPosition();
1023:main.c        ****                     DeltaPosition = labs( CurrentPosition - LastPosition );
1024:main.c        ****                     CurrentIndexCount = Index_Counter_1_ReadCounter();
1025:main.c        ****                     
1026:main.c        ****                     /* Look for index failure: the index counter should have incremented by at leas
1027:main.c        ****                     if (CurrentIndexCount == 0)
1028:main.c        ****                         if (DeltaPosition > 2*ENCODER_COUNTS_PER_INDEX) 
1029:main.c        ****                             AssertFault(fsIndex);        
1030:main.c        ****                     
1031:main.c        ****                     /* Look for encoder failure: the encoders should register some amount of moveme
1032:main.c        ****                     if ((CurrentIndexCount > 0) && (DeltaPosition < 2))                     
1033:main.c        ****                         AssertFault(fsEncoder);
1034:main.c        ****                 }
1035:main.c        ****                 
1036:main.c        ****             }
1037:main.c        ****             
1038:main.c        ****             /* Handle mode switching */
1039:main.c        ****             if (!PID_Was_Enabled && PID_Enabled) {
1040:main.c        ****                 PID_SetMode(PID_AUTOMATIC);
1041:main.c        ****             } else if (!PID_Enabled && PID_Was_Enabled) {
1042:main.c        ****                 PID_SetMode(PID_MANUAL);                
1043:main.c        ****             } else {
1044:main.c        ****                 // No mode change happened   
1045:main.c        ****             }
1046:main.c        ****             
1047:main.c        ****             /* Save value for next cycle */
1048:main.c        ****             PID_Was_Enabled = PID_Enabled;
1049:main.c        ****             
1050:main.c        ****             /* Calculate the effective setpoint, which is defined as N (nominally 25) counts closer
1051:main.c        ****             actual setpoint, incremented once per cycle of this algorithm.  
1052:main.c        ****         
1053:main.c        ****             Consider a move of +2000 counts from position 0 to 2000: 
1054:main.c        ****             
1055:main.c        ****             1) The setpoint will change to 2000.
1056:main.c        ****             2) The effective setpoint is initialized to the current position, plus 25 counts = 2025
ARM GAS  C:\Users\PRICHA~1\AppData\Local\Temp\ccFt17DU.s 			page 20


1057:main.c        ****             3) Calculate the PID and return.
1058:main.c        ****             4) The next time PID_Compute is called, increment the effective setpoint by 25 counts =
1059:main.c        ****             5) Calculate the PID and return.
1060:main.c        ****             6) Repeat steps 4 and 5 until the effective setpoint equals the actual setpoint.       
1061:main.c        ****             */
1062:main.c        **** 
1063:main.c        ****             if (PID_Enabled) {
1064:main.c        ****                 
1065:main.c        ****                 if (PID_EffSetDelta == 0) {
1066:main.c        ****                     PID_EffectiveSetpoint = PID_Setpoint;
1067:main.c        ****                 } else if ( labs(PID_EffectiveSetpoint - PID_Setpoint) <= (2 * PID_EffSetDelta) ) {
1068:main.c        ****                     PID_EffectiveSetpoint = PID_Setpoint;                                          
1069:main.c        ****                 } else if (PID_Setpoint > PID_EffectiveSetpoint) {
1070:main.c        ****                     PID_EffectiveSetpoint = (PID_EffectiveSetpoint + PID_EffSetDelta);
1071:main.c        ****                 } else {
1072:main.c        ****                     PID_EffectiveSetpoint = (PID_EffectiveSetpoint - PID_EffSetDelta);
1073:main.c        ****                 }
1074:main.c        ****                 
1075:main.c        ****                 /* Run the PID algorithm against the effective setpoint */
1076:main.c        ****                 percent = PID_Compute(now, PID_EffectiveSetpoint);
1077:main.c        ****             
1078:main.c        ****                 /* Use the global PWM value to communicate back the percentage of drive to the serv
1079:main.c        ****                 PWM = percent;
1080:main.c        ****                 
1081:main.c        ****                 /* Put the PID drive percentage out on the wire */
1082:main.c        ****                 PID_SetDrive(percent);
1083:main.c        ****                 
1084:main.c        ****             } else {
1085:main.c        ****                 /* If disabled, just return 0 */
1086:main.c        ****                 PWM = 0;
1087:main.c        ****             }
1088:main.c        ****             
1089:main.c        ****         }
1090:main.c        ****         
1091:main.c        ****         PROBE_Write(0);
1092:main.c        ****         
1093:main.c        ****         /* Run the loop every 5ms, which is 200Hz update rate */
1094:main.c        ****         Sleep(sleeptime);
1095:main.c        **** 
1096:main.c        ****         /* Get our task stack usage high water mark */    
1097:main.c        ****         uxHighWaterMark_PID = uxTaskGetStackHighWaterMark( NULL );        
1098:main.c        ****     }
1099:main.c        ****    
1100:main.c        **** }
1101:main.c        **** 
1102:main.c        **** 
1103:main.c        **** 
1104:main.c        **** /*******************************************************************************
1105:main.c        **** * Function Name: main
1106:main.c        **** ********************************************************************************
1107:main.c        **** * Summary:
1108:main.c        **** *  Setup tasks, interrupts, and get the RTOS running.
1109:main.c        **** *
1110:main.c        **** * Parameters: None
1111:main.c        **** * Return: NEVER!
1112:main.c        **** *******************************************************************************/
1113:main.c        **** int main(void) {
ARM GAS  C:\Users\PRICHA~1\AppData\Local\Temp\ccFt17DU.s 			page 21


1114:main.c        ****     
1115:main.c        ****     uint8 s;
1116:main.c        ****     setupFreeRTOS();
1117:main.c        **** 
1118:main.c        ****     /* DISABLE the drive outputs for the home and index immediately upon booting the 
1119:main.c        ****        microprocessor   There is a race condition here: unless the actuator is on a home
1120:main.c        ****        flag or index mark, a 1 will be written to each output.  Depending on which 
1121:main.c        ****        Cypress device this is, it could end up going to one of the boot pins of the Beagle
1122:main.c        ****        Bone Black device.  Undesirable results can result: corrupt serial output on the
1123:main.c        ****        console, inabulity to boot from eMMC, or even a complete failure to power on. */
1124:main.c        ****     HOME_OUT_SetDriveMode(HOME_OUT_DM_DIG_HIZ); 
1125:main.c        ****     INDEX_OUT_SetDriveMode(INDEX_OUT_DM_DIG_HIZ); 
1126:main.c        **** 
1127:main.c        ****     /* Create tasks.  Priority value is set such that higher numbers have higher priority.
1128:main.c        ****     https://www.freertos.org/RTOS-task-priority.html
1129:main.c        ****     */
1130:main.c        ****     
1131:main.c        ****     xTaskCreate(
1132:main.c        ****         PID_Task,       /* Task function */
1133:main.c        ****         "PID",          /* Task name (string) */
1134:main.c        ****         64,             /* Task stack, allocated from heap (measured 12/27 to be 24 bytes) */
1135:main.c        ****         0,              /* No param passed to task function */
1136:main.c        ****         3,              /* High priority */
1137:main.c        ****         0 );            /* Not using the task handle */    
1138:main.c        ****     
1139:main.c        ****     xTaskCreate(
1140:main.c        ****         Comm_Task,       /* Task function */
1141:main.c        ****         "Communications", /* Task name (string) */
1142:main.c        ****         100,            /* Task stack, allocated from heap (measured 12/27 to be 78 bytes)  */
1143:main.c        ****         0,              /* No param passed to task function */
1144:main.c        ****         2,              /* Medium priority */
1145:main.c        ****         0 );            /* Not using the task handle */    
1146:main.c        **** 
1147:main.c        ****     xTaskCreate(
1148:main.c        ****         Current_Read_Task, /* Task function */
1149:main.c        ****         "Read Current", /* Task name (string) */
1150:main.c        ****         64,             /* Task stack, allocated from heap (measured 12/27 to be 40 bytes) */
1151:main.c        ****         0,              /* No param passed to task function */
1152:main.c        ****         1,              /* Low priority */
1153:main.c        ****         0 );            /* Not using the task handle */    
1154:main.c        ****     
1155:main.c        ****     /********************************************************************** 
1156:main.c        ****     * Message buffer mutex
1157:main.c        ****     **********************************************************************/
1158:main.c        ****     Lock = xSemaphoreCreateMutex();
1159:main.c        **** 
1160:main.c        ****     /* If we can't create the lock, flash the light and hold here */
1161:main.c        ****     if( Lock == NULL ) {
1162:main.c        ****         s = 1;
1163:main.c        ****         
1164:main.c        ****         while(1) {
1165:main.c        ****             s = !s;
1166:main.c        ****             LED_Write(s); 
1167:main.c        ****             CyDelay(1000u);                    
1168:main.c        ****         }
1169:main.c        ****     }
1170:main.c        ****     
ARM GAS  C:\Users\PRICHA~1\AppData\Local\Temp\ccFt17DU.s 			page 22


1171:main.c        ****     
1172:main.c        ****     /********************************************************************** 
1173:main.c        ****     * Interrupts
1174:main.c        ****     **********************************************************************/
1175:main.c        ****     
1176:main.c        ****     /* Sets up the Index and Reset interrupt and enables them */
1177:main.c        ****     isr_home_StartEx(HomeIsrHandler);
1178:main.c        ****     isr_rst_encoder_StartEx(RSTIsrHandler);
1179:main.c        ****     
1180:main.c        ****     /* Setup the SPI slave select interrupt ISR */
1181:main.c        ****     isr_spi_ss_StartEx(SPI_SS_IsrHandler);
1182:main.c        ****     
1183:main.c        ****     /* Changes initial priority for the interrupts */
1184:main.c        ****     isr_home_SetPriority(DEFAULT_PRIORITY);
1185:main.c        ****     isr_rst_encoder_SetPriority(HIGHER_PRIORITY);
1186:main.c        ****     isr_spi_ss_SetPriority(DEFAULT_PRIORITY);
1187:main.c        **** 
1188:main.c        ****     /* Enable the global interrupt */
1189:main.c        ****     CyGlobalIntEnable;
1190:main.c        ****     
1191:main.c        ****     
1192:main.c        ****     
1193:main.c        ****     /********************************************************************** 
1194:main.c        ****     * Watchdog timer.  Implements the WDT1 automatic CPU reset.
1195:main.c        ****     **********************************************************************/
1196:main.c        **** 
1197:main.c        ****     /* If you are using the JTAG debugging probe, turn off the watchdog by
1198:main.c        ****        defining DEBUG_PROBE_ATTACHED to something, or it will reset the CPU
1199:main.c        ****        when you hit a breakpoint. */
1200:main.c        **** 
1201:main.c        **** #ifndef DEBUG_PROBE_ATTACHED
1202:main.c        **** 	/* Set WDT counter 1 to generate reset on match */
1203:main.c        **** 	CySysWdtWriteMatch(CY_SYS_WDT_COUNTER1, WDT_COUNT1_MATCH_RESET);
1204:main.c        **** 	CySysWdtWriteMode(CY_SYS_WDT_COUNTER1, CY_SYS_WDT_MODE_RESET);
1205:main.c        ****     CySysWdtWriteClearOnMatch(CY_SYS_WDT_COUNTER1, 1u);
1206:main.c        **** 	
1207:main.c        **** 	/* Enable WDT counter 1 */
1208:main.c        **** 	CySysWdtEnable(CY_SYS_WDT_COUNTER1_MASK);
1209:main.c        **** 	
1210:main.c        **** 	/* Lock WDT registers and try to disable WDT 1 */
1211:main.c        **** 	CySysWdtLock();
1212:main.c        **** 	CySysWdtDisable(CY_SYS_WDT_COUNTER1_MASK);
1213:main.c        **** 	CySysWdtUnlock();        
1214:main.c        **** #endif    
1215:main.c        **** 
1216:main.c        ****     
1217:main.c        ****     /*********************************************************************** 
1218:main.c        ****     * Start the various subsystems.
1219:main.c        ****     ***********************************************************************/
1220:main.c        ****     I2C_Start();
1221:main.c        ****     CyDelay(100u);
1222:main.c        ****     SPI_1_Start();
1223:main.c        ****     
1224:main.c        ****     /* Setup the PWM at a base frequency of 15KHz, 50% duty cycle.  Clock_1 is set to
1225:main.c        ****        12MHz, so the desired period to get 15KHz is a count of 800. */
1226:main.c        ****     PWM_1_Start();
1227:main.c        ****     PWM_1_WritePeriod(PWM_15KHZ_PERIOD);
ARM GAS  C:\Users\PRICHA~1\AppData\Local\Temp\ccFt17DU.s 			page 23


1228:main.c        ****     PWM_Set(PWM_IDLE);   
1229:main.c        ****     
1230:main.c        ****     /* Default the jog value to neutral (no movement) */
1231:main.c        ****     Jog = 0;
1232:main.c        ****    
1233:main.c        ****     /* Start counting the quadrature encoding */
1234:main.c        ****     Counter_1_Start();    
1235:main.c        ****     Counter_1_WriteCounter(ENCODER_MAX);  // Set the encoder initially to mid range
1236:main.c        ****     LastPosition = ENCODER_MAX;
1237:main.c        ****     
1238:main.c        ****     /* Clear and start the index mark counter */
1239:main.c        ****     Index_Counter_1_Start();
1240:main.c        ****     Index_Counter_1_WriteCounter(0);
1241:main.c        ****      
1242:main.c        ****     /* Set some initial values */
1243:main.c        ****     LastMessageTimeTick = xTaskGetTickCount();
1244:main.c        ****     
1245:main.c        ****     /* Start off unconfigured */
1246:main.c        ****     ConfigState = csUnconfig;  
1247:main.c        ****     ConfigSequence = 0;
1248:main.c        ****     ChecksumErrors = 0;
1249:main.c        ****    
1250:main.c        ****     /***********************************************************************
1251:main.c        ****     * Start the RTOS task scheduler
1252:main.c        ****     ***********************************************************************/
1253:main.c        ****     vTaskStartScheduler();
1254:main.c        ****    
1255:main.c        ****     /***********************************************************************
1256:main.c        ****     *  We should never reach this
1257:main.c        ****     ***********************************************************************/
1258:main.c        ****     return 1;       
1259:main.c        **** }
1260:main.c        **** 
1261:main.c        **** /*******************************************************************************
1262:main.c        **** * Function Name: RSTIsrHandler
1263:main.c        **** ********************************************************************************
1264:main.c        **** * Summary:
1265:main.c        **** *  The interrupt handler for resetting the encoder count interrupts.
1266:main.c        **** *  Clears a pending Interrupt.
1267:main.c        **** *  Clears a pin Interrupt.
1268:main.c        **** *
1269:main.c        **** * Parameters: None
1270:main.c        **** * Return: None
1271:main.c        **** *******************************************************************************/
1272:main.c        **** CY_ISR(RSTIsrHandler) {
  28              		.loc 1 1272 0
  29              		.cfi_startproc
  30              		@ args = 0, pretend = 0, frame = 0
  31              		@ frame_needed = 0, uses_anonymous_args = 0
  32 0000 10B5     		push	{r4, lr}
  33              		.cfi_def_cfa_offset 8
  34              		.cfi_offset 4, -8
  35              		.cfi_offset 14, -4
1273:main.c        ****     
1274:main.c        ****     /* Clear pending Interrupt */
1275:main.c        ****     isr_rst_encoder_ClearPending(); 
  36              		.loc 1 1275 0
ARM GAS  C:\Users\PRICHA~1\AppData\Local\Temp\ccFt17DU.s 			page 24


  37 0002 FFF7FEFF 		bl	isr_rst_encoder_ClearPending
  38              	.LVL0:
1276:main.c        ****     
1277:main.c        ****     /* Clear pin Interrupt */
1278:main.c        ****     Reset_Encoder_ClearInterrupt();
  39              		.loc 1 1278 0
  40 0006 FFF7FEFF 		bl	Reset_Encoder_ClearInterrupt
  41              	.LVL1:
1279:main.c        ****     
1280:main.c        ****     /* Clear the 24b Encoder (Absolute Position Counter) */
1281:main.c        ****     Counter_1_WriteCounter(0);
  42              		.loc 1 1281 0
  43 000a 0020     		movs	r0, #0
  44 000c FFF7FEFF 		bl	Counter_1_WriteCounter
  45              	.LVL2:
1282:main.c        ****     
1283:main.c        ****     /* Clear the index counter */
1284:main.c        ****     Index_Counter_1_WriteCounter(0);  
  46              		.loc 1 1284 0
  47 0010 0020     		movs	r0, #0
  48 0012 FFF7FEFF 		bl	Index_Counter_1_WriteCounter
  49              	.LVL3:
1285:main.c        **** }
  50              		.loc 1 1285 0
  51              		@ sp needed
  52 0016 10BD     		pop	{r4, pc}
  53              		.cfi_endproc
  54              	.LFE46:
  55              		.size	RSTIsrHandler, .-RSTIsrHandler
  56              		.section	.text.HomeIsrHandler,"ax",%progbits
  57              		.align	2
  58              		.global	HomeIsrHandler
  59              		.code	16
  60              		.thumb_func
  61              		.type	HomeIsrHandler, %function
  62              	HomeIsrHandler:
  63              	.LFB47:
1286:main.c        **** 
1287:main.c        **** /*******************************************************************************
1288:main.c        **** * Function Name: HomeIsrHandler
1289:main.c        **** ********************************************************************************
1290:main.c        **** * Summary:
1291:main.c        **** *  The interrupt handler for resetting the encoder count interrupts.
1292:main.c        **** *  Clears a pending Interrupt.
1293:main.c        **** *  Clears a pin Interrupt.
1294:main.c        **** *
1295:main.c        **** * Parameters: None
1296:main.c        **** * Return: None
1297:main.c        **** *******************************************************************************/
1298:main.c        **** CY_ISR(HomeIsrHandler) {
  64              		.loc 1 1298 0
  65              		.cfi_startproc
  66              		@ args = 0, pretend = 0, frame = 0
  67              		@ frame_needed = 0, uses_anonymous_args = 0
  68 0000 10B5     		push	{r4, lr}
  69              		.cfi_def_cfa_offset 8
  70              		.cfi_offset 4, -8
ARM GAS  C:\Users\PRICHA~1\AppData\Local\Temp\ccFt17DU.s 			page 25


  71              		.cfi_offset 14, -4
1299:main.c        ****     
1300:main.c        ****     /* Clear pending Interrupt */
1301:main.c        ****     isr_home_ClearPending(); 
  72              		.loc 1 1301 0
  73 0002 FFF7FEFF 		bl	isr_home_ClearPending
  74              	.LVL4:
1302:main.c        ****     
1303:main.c        ****     /* Clear pin Interrupt */
1304:main.c        ****     HOME_IN_ClearInterrupt();
  75              		.loc 1 1304 0
  76 0006 FFF7FEFF 		bl	HOME_IN_ClearInterrupt
  77              	.LVL5:
1305:main.c        **** 
1306:main.c        ****     /* Clear the 24b Encoder (Absolute Position Counter) */
1307:main.c        ****     Counter_1_WriteCounter(0);
  78              		.loc 1 1307 0
  79 000a 0020     		movs	r0, #0
  80 000c FFF7FEFF 		bl	Counter_1_WriteCounter
  81              	.LVL6:
1308:main.c        **** }
  82              		.loc 1 1308 0
  83              		@ sp needed
  84 0010 10BD     		pop	{r4, pc}
  85              		.cfi_endproc
  86              	.LFE47:
  87              		.size	HomeIsrHandler, .-HomeIsrHandler
  88 0012 C046     		.section	.text.SPI_SS_IsrHandler,"ax",%progbits
  89              		.align	2
  90              		.global	SPI_SS_IsrHandler
  91              		.code	16
  92              		.thumb_func
  93              		.type	SPI_SS_IsrHandler, %function
  94              	SPI_SS_IsrHandler:
  95              	.LFB48:
1309:main.c        **** 
1310:main.c        **** 
1311:main.c        **** /*******************************************************************************
1312:main.c        **** * Function Name: SPI_SS_IsrHandler
1313:main.c        **** ********************************************************************************
1314:main.c        **** * Summary:
1315:main.c        **** *  The interrupt handler for knowing when the SPI master deasserts the slave select.
1316:main.c        **** *  Clears a pin Interrupt.
1317:main.c        **** *
1318:main.c        **** * Parameters: None
1319:main.c        **** * Return: None
1320:main.c        **** *******************************************************************************/
1321:main.c        **** CY_ISR(SPI_SS_IsrHandler) {
  96              		.loc 1 1321 0
  97              		.cfi_startproc
  98              		@ args = 0, pretend = 0, frame = 0
  99              		@ frame_needed = 0, uses_anonymous_args = 0
 100 0000 10B5     		push	{r4, lr}
 101              		.cfi_def_cfa_offset 8
 102              		.cfi_offset 4, -8
 103              		.cfi_offset 14, -4
1322:main.c        ****     
ARM GAS  C:\Users\PRICHA~1\AppData\Local\Temp\ccFt17DU.s 			page 26


1323:main.c        ****     uint32 i;
1324:main.c        ****     
1325:main.c        ****     /* Clear SPI slave select pin Interrupt */
1326:main.c        ****     spi_ss_ClearInterrupt();
 104              		.loc 1 1326 0
 105 0002 FFF7FEFF 		bl	spi_ss_ClearInterrupt
 106              	.LVL7:
1327:main.c        ****     
1328:main.c        ****     /* Make sure the slave select is actually de-asserted before proceeding */
1329:main.c        ****     if (!spi_ss_Read()) 
 107              		.loc 1 1329 0
 108 0006 FFF7FEFF 		bl	spi_ss_Read
 109              	.LVL8:
 110 000a 0028     		cmp	r0, #0
 111 000c 1CD0     		beq	.L3
1330:main.c        ****         return;
1331:main.c        ****    
1332:main.c        ****     /* Update the last message tick timer */
1333:main.c        ****     LastMessageTimeTick = xTaskGetTickCount();
 112              		.loc 1 1333 0
 113 000e FFF7FEFF 		bl	xTaskGetTickCount
 114              	.LVL9:
 115 0012 0E4B     		ldr	r3, .L8
 116 0014 1860     		str	r0, [r3]
1334:main.c        **** 
1335:main.c        ****     /* It's possible the slave select has fired and returned without transmitting any data (glitche
1336:main.c        ****        check the messaging state before resetting the buffers */
1337:main.c        ****     switch (txMessageState) {
 117              		.loc 1 1337 0
 118 0016 0E4B     		ldr	r3, .L8+4
 119 0018 1B78     		ldrb	r3, [r3]
 120 001a 012B     		cmp	r3, #1
 121 001c 14D1     		bne	.L3
1338:main.c        ****      
1339:main.c        ****         /* FIFO is not yet loaded and slave select deasserted, this is a glitch */ 
1340:main.c        ****         case txmsClear:
1341:main.c        ****             break;
1342:main.c        ****      
1343:main.c        ****         /* A message was readied for transmission */
1344:main.c        ****         case txmsLoaded:
1345:main.c        ****          
1346:main.c        ****             /* FIFO is clear and slave select deasserted, it's time to reset */ 
1347:main.c        ****             
1348:main.c        ****             /* Clear the transmit message buffer, the comm thread will fill it in again to make sur
1349:main.c        ****             bzero(txMessage.buf, sizeof(txMessage.buf)); 
 122              		.loc 1 1349 0
 123 001e 1E22     		movs	r2, #30
 124 0020 0021     		movs	r1, #0
 125 0022 0C48     		ldr	r0, .L8+8
 126 0024 FFF7FEFF 		bl	memset
 127              	.LVL10:
1350:main.c        **** 
1351:main.c        ****             /* Message from the master is completely clocked in by now */     
1352:main.c        ****             for (i = 0; i < sizeof(rxMessage.buf); i++) {
 128              		.loc 1 1352 0
 129 0028 0024     		movs	r4, #0
 130 002a 04E0     		b	.L6
ARM GAS  C:\Users\PRICHA~1\AppData\Local\Temp\ccFt17DU.s 			page 27


 131              	.LVL11:
 132              	.L7:
1353:main.c        ****                 rxMessage.buf[i] = (uint8) SPI_1_SpiUartReadRxData();            
 133              		.loc 1 1353 0 discriminator 3
 134 002c FFF7FEFF 		bl	SPI_1_SpiUartReadRxData
 135              	.LVL12:
 136 0030 094B     		ldr	r3, .L8+12
 137 0032 1855     		strb	r0, [r3, r4]
1352:main.c        ****                 rxMessage.buf[i] = (uint8) SPI_1_SpiUartReadRxData();            
 138              		.loc 1 1352 0 discriminator 3
 139 0034 0134     		adds	r4, r4, #1
 140              	.LVL13:
 141              	.L6:
1352:main.c        ****                 rxMessage.buf[i] = (uint8) SPI_1_SpiUartReadRxData();            
 142              		.loc 1 1352 0 is_stmt 0 discriminator 1
 143 0036 1D2C     		cmp	r4, #29
 144 0038 F8D9     		bls	.L7
1354:main.c        ****             }
1355:main.c        ****             
1356:main.c        ****             /* Clear out all the bytes in the receive side so they can be filled in again */
1357:main.c        ****             SPI_1_SpiUartClearRxBuffer();  
 145              		.loc 1 1357 0 is_stmt 1
 146 003a FFF7FEFF 		bl	SPI_1_SpiUartClearRxBuffer
 147              	.LVL14:
1358:main.c        ****             
1359:main.c        ****             /* Clear out any remaining bytes in the transmit buffer, in case the message transfer w
1360:main.c        ****             SPI_1_SpiUartClearTxBuffer();
 148              		.loc 1 1360 0
 149 003e FFF7FEFF 		bl	SPI_1_SpiUartClearTxBuffer
 150              	.LVL15:
1361:main.c        ****             
1362:main.c        ****             /* Set the state to indicate to the messaging thread that it's time to load the TX buff
1363:main.c        ****             txMessageState = txmsClear;        
 151              		.loc 1 1363 0
 152 0042 0022     		movs	r2, #0
 153 0044 024B     		ldr	r3, .L8+4
 154 0046 1A70     		strb	r2, [r3]
 155              	.LVL16:
 156              	.L3:
1364:main.c        ****             break;
1365:main.c        ****             
1366:main.c        ****     } 
1367:main.c        **** }
 157              		.loc 1 1367 0
 158              		@ sp needed
 159 0048 10BD     		pop	{r4, pc}
 160              	.L9:
 161 004a C046     		.align	2
 162              	.L8:
 163 004c 00000000 		.word	LastMessageTimeTick
 164 0050 00000000 		.word	txMessageState
 165 0054 00000000 		.word	txMessage
 166 0058 00000000 		.word	rxMessage
 167              		.cfi_endproc
 168              	.LFE48:
 169              		.size	SPI_SS_IsrHandler, .-SPI_SS_IsrHandler
 170              		.section	.text.setupFreeRTOS,"ax",%progbits
ARM GAS  C:\Users\PRICHA~1\AppData\Local\Temp\ccFt17DU.s 			page 28


 171              		.align	2
 172              		.global	setupFreeRTOS
 173              		.code	16
 174              		.thumb_func
 175              		.type	setupFreeRTOS, %function
 176              	setupFreeRTOS:
 177              	.LFB32:
 345:main.c        **** #define CORTEX_INTERRUPT_BASE (16)
 178              		.loc 1 345 0
 179              		.cfi_startproc
 180              		@ args = 0, pretend = 0, frame = 0
 181              		@ frame_needed = 0, uses_anonymous_args = 0
 182 0000 10B5     		push	{r4, lr}
 183              		.cfi_def_cfa_offset 8
 184              		.cfi_offset 4, -8
 185              		.cfi_offset 14, -4
 349:main.c        ****     
 186              		.loc 1 349 0
 187 0002 0649     		ldr	r1, .L11
 188 0004 0B20     		movs	r0, #11
 189 0006 FFF7FEFF 		bl	CyIntSetSysVector
 190              	.LVL17:
 352:main.c        ****     
 191              		.loc 1 352 0
 192 000a 0549     		ldr	r1, .L11+4
 193 000c 0E20     		movs	r0, #14
 194 000e FFF7FEFF 		bl	CyIntSetSysVector
 195              	.LVL18:
 355:main.c        **** }
 196              		.loc 1 355 0
 197 0012 0449     		ldr	r1, .L11+8
 198 0014 0F20     		movs	r0, #15
 199 0016 FFF7FEFF 		bl	CyIntSetSysVector
 200              	.LVL19:
 356:main.c        **** 
 201              		.loc 1 356 0
 202              		@ sp needed
 203 001a 10BD     		pop	{r4, pc}
 204              	.L12:
 205              		.align	2
 206              	.L11:
 207 001c 00000000 		.word	vPortSVCHandler
 208 0020 00000000 		.word	xPortPendSVHandler
 209 0024 00000000 		.word	xPortSysTickHandler
 210              		.cfi_endproc
 211              	.LFE32:
 212              		.size	setupFreeRTOS, .-setupFreeRTOS
 213              		.section	.text.AssertFault,"ax",%progbits
 214              		.align	2
 215              		.global	AssertFault
 216              		.code	16
 217              		.thumb_func
 218              		.type	AssertFault, %function
 219              	AssertFault:
 220              	.LFB33:
 369:main.c        ****  
 221              		.loc 1 369 0
ARM GAS  C:\Users\PRICHA~1\AppData\Local\Temp\ccFt17DU.s 			page 29


 222              		.cfi_startproc
 223              		@ args = 0, pretend = 0, frame = 0
 224              		@ frame_needed = 0, uses_anonymous_args = 0
 225              		@ link register save eliminated.
 226              	.LVL20:
 371:main.c        ****      
 227              		.loc 1 371 0
 228 0000 0028     		cmp	r0, #0
 229 0002 03D1     		bne	.L17
 375:main.c        ****             break;        
 230              		.loc 1 375 0
 231 0004 0022     		movs	r2, #0
 232 0006 044B     		ldr	r3, .L18
 233 0008 1A70     		strb	r2, [r3]
 376:main.c        ****         
 234              		.loc 1 376 0
 235 000a 03E0     		b	.L13
 236              	.L17:
 380:main.c        ****             break;        
 237              		.loc 1 380 0
 238 000c 024B     		ldr	r3, .L18
 239 000e 1A78     		ldrb	r2, [r3]
 240 0010 1043     		orrs	r0, r2
 241              	.LVL21:
 242 0012 1870     		strb	r0, [r3]
 243              	.L13:
 383:main.c        **** 
 244              		.loc 1 383 0
 245              		@ sp needed
 246 0014 7047     		bx	lr
 247              	.L19:
 248 0016 C046     		.align	2
 249              	.L18:
 250 0018 00000000 		.word	FaultState
 251              		.cfi_endproc
 252              	.LFE33:
 253              		.size	AssertFault, .-AssertFault
 254              		.section	.text.Current_Read_Task,"ax",%progbits
 255              		.align	2
 256              		.global	Current_Read_Task
 257              		.code	16
 258              		.thumb_func
 259              		.type	Current_Read_Task, %function
 260              	Current_Read_Task:
 261              	.LFB35:
 422:main.c        ****     
 262              		.loc 1 422 0
 263              		.cfi_startproc
 264              		@ args = 0, pretend = 0, frame = 8
 265              		@ frame_needed = 0, uses_anonymous_args = 0
 266              	.LVL22:
 267 0000 00B5     		push	{lr}
 268              		.cfi_def_cfa_offset 4
 269              		.cfi_offset 14, -4
 270 0002 83B0     		sub	sp, sp, #12
 271              		.cfi_def_cfa_offset 16
 431:main.c        ****     
ARM GAS  C:\Users\PRICHA~1\AppData\Local\Temp\ccFt17DU.s 			page 30


 272              		.loc 1 431 0
 273 0004 0020     		movs	r0, #0
 274              	.LVL23:
 275 0006 FFF7FEFF 		bl	uxTaskGetStackHighWaterMark
 276              	.LVL24:
 277 000a 304B     		ldr	r3, .L27
 278 000c 1860     		str	r0, [r3]
 279              	.L26:
 439:main.c        ****         if (err == I2C_I2C_MSTR_NO_ERROR) {
 280              		.loc 1 439 0
 281 000e 0A22     		movs	r2, #10
 282 0010 0021     		movs	r1, #0
 283 0012 4020     		movs	r0, #64
 284 0014 FFF7FEFF 		bl	I2C_I2CMasterSendStart
 285              	.LVL25:
 286 0018 0190     		str	r0, [sp, #4]
 440:main.c        ****             
 287              		.loc 1 440 0
 288 001a 019B     		ldr	r3, [sp, #4]
 289 001c 002B     		cmp	r3, #0
 290 001e 0FD1     		bne	.L21
 442:main.c        ****             
 291              		.loc 1 442 0
 292 0020 0A21     		movs	r1, #10
 293 0022 0520     		movs	r0, #5
 294 0024 FFF7FEFF 		bl	I2C_I2CMasterWriteByte
 295              	.LVL26:
 445:main.c        ****             
 296              		.loc 1 445 0
 297 0028 0A21     		movs	r1, #10
 298 002a 2020     		movs	r0, #32
 299 002c FFF7FEFF 		bl	I2C_I2CMasterWriteByte
 300              	.LVL27:
 448:main.c        ****             I2C_I2CMasterSendStop(10);
 301              		.loc 1 448 0
 302 0030 0A21     		movs	r1, #10
 303 0032 0020     		movs	r0, #0
 304 0034 FFF7FEFF 		bl	I2C_I2CMasterWriteByte
 305              	.LVL28:
 449:main.c        ****             
 306              		.loc 1 449 0
 307 0038 0A20     		movs	r0, #10
 308 003a FFF7FEFF 		bl	I2C_I2CMasterSendStop
 309              	.LVL29:
 310 003e 05E0     		b	.L22
 311              	.LVL30:
 312              	.L21:
 452:main.c        ****             AssertFault(fsCurrentRead);
 313              		.loc 1 452 0
 314 0040 0022     		movs	r2, #0
 315 0042 234B     		ldr	r3, .L27+4
 316 0044 1A80     		strh	r2, [r3]
 453:main.c        ****         }
 317              		.loc 1 453 0
 318 0046 0820     		movs	r0, #8
 319 0048 FFF7FEFF 		bl	AssertFault
 320              	.LVL31:
ARM GAS  C:\Users\PRICHA~1\AppData\Local\Temp\ccFt17DU.s 			page 31


 321              	.L22:
 456:main.c        ****         if (err == I2C_I2C_MSTR_NO_ERROR) {
 322              		.loc 1 456 0
 323 004c 0A22     		movs	r2, #10
 324 004e 0021     		movs	r1, #0
 325 0050 4020     		movs	r0, #64
 326 0052 FFF7FEFF 		bl	I2C_I2CMasterSendStart
 327              	.LVL32:
 328 0056 0190     		str	r0, [sp, #4]
 457:main.c        ****             
 329              		.loc 1 457 0
 330 0058 019B     		ldr	r3, [sp, #4]
 331 005a 002B     		cmp	r3, #0
 332 005c 20D1     		bne	.L23
 459:main.c        ****             I2C_I2CMasterSendStop(10);
 333              		.loc 1 459 0
 334 005e 0A21     		movs	r1, #10
 335 0060 0420     		movs	r0, #4
 336 0062 FFF7FEFF 		bl	I2C_I2CMasterWriteByte
 337              	.LVL33:
 460:main.c        ****             
 338              		.loc 1 460 0
 339 0066 0A20     		movs	r0, #10
 340 0068 FFF7FEFF 		bl	I2C_I2CMasterSendStop
 341              	.LVL34:
 463:main.c        ****             
 342              		.loc 1 463 0
 343 006c 0123     		movs	r3, #1
 344 006e 0522     		movs	r2, #5
 345 0070 1849     		ldr	r1, .L27+8
 346 0072 4020     		movs	r0, #64
 347 0074 FFF7FEFF 		bl	I2C_I2CMasterReadBuf
 348              	.LVL35:
 349 0078 0190     		str	r0, [sp, #4]
 466:main.c        ****                 CurrentTemp = (int16)(CurrentI2Cinbuf[0] << 8) + CurrentI2Cinbuf[1];
 350              		.loc 1 466 0
 351 007a 019B     		ldr	r3, [sp, #4]
 352 007c 002B     		cmp	r3, #0
 353 007e 08D1     		bne	.L24
 467:main.c        ****             } else {
 354              		.loc 1 467 0
 355 0080 144A     		ldr	r2, .L27+8
 356 0082 1378     		ldrb	r3, [r2]
 357 0084 1B02     		lsls	r3, r3, #8
 358 0086 5278     		ldrb	r2, [r2, #1]
 359 0088 9B18     		adds	r3, r3, r2
 360 008a 1BB2     		sxth	r3, r3
 361 008c 6A46     		mov	r2, sp
 362 008e 5380     		strh	r3, [r2, #2]
 363 0090 0CE0     		b	.L25
 364              	.L24:
 469:main.c        ****                 AssertFault(fsCurrentRead);
 365              		.loc 1 469 0
 366 0092 0022     		movs	r2, #0
 367 0094 6B46     		mov	r3, sp
 368 0096 5A80     		strh	r2, [r3, #2]
 470:main.c        ****             }
ARM GAS  C:\Users\PRICHA~1\AppData\Local\Temp\ccFt17DU.s 			page 32


 369              		.loc 1 470 0
 370 0098 0820     		movs	r0, #8
 371 009a FFF7FEFF 		bl	AssertFault
 372              	.LVL36:
 373 009e 05E0     		b	.L25
 374              	.L23:
 473:main.c        ****             AssertFault(fsCurrentRead);
 375              		.loc 1 473 0
 376 00a0 0022     		movs	r2, #0
 377 00a2 6B46     		mov	r3, sp
 378 00a4 5A80     		strh	r2, [r3, #2]
 474:main.c        ****         }
 379              		.loc 1 474 0
 380 00a6 0820     		movs	r0, #8
 381 00a8 FFF7FEFF 		bl	AssertFault
 382              	.LVL37:
 383              	.L25:
 478:main.c        **** 
 384              		.loc 1 478 0
 385 00ac 6B46     		mov	r3, sp
 386 00ae 0233     		adds	r3, r3, #2
 387 00b0 1B88     		ldrh	r3, [r3]
 388 00b2 1BB2     		sxth	r3, r3
 389 00b4 064A     		ldr	r2, .L27+4
 390 00b6 1380     		strh	r3, [r2]
 481:main.c        ****         
 391              		.loc 1 481 0
 392 00b8 FA20     		movs	r0, #250
 393 00ba 4000     		lsls	r0, r0, #1
 394 00bc FFF7FEFF 		bl	vTaskDelay
 395              	.LVL38:
 484:main.c        ****     }
 396              		.loc 1 484 0
 397 00c0 0020     		movs	r0, #0
 398 00c2 FFF7FEFF 		bl	uxTaskGetStackHighWaterMark
 399              	.LVL39:
 400 00c6 014B     		ldr	r3, .L27
 401 00c8 1860     		str	r0, [r3]
 485:main.c        ****    
 402              		.loc 1 485 0
 403 00ca A0E7     		b	.L26
 404              	.L28:
 405              		.align	2
 406              	.L27:
 407 00cc 00000000 		.word	uxHighWaterMark_Current
 408 00d0 00000000 		.word	Current
 409 00d4 00000000 		.word	CurrentI2Cinbuf
 410              		.cfi_endproc
 411              	.LFE35:
 412              		.size	Current_Read_Task, .-Current_Read_Task
 413              		.section	.text.ClearFault,"ax",%progbits
 414              		.align	2
 415              		.global	ClearFault
 416              		.code	16
 417              		.thumb_func
 418              		.type	ClearFault, %function
 419              	ClearFault:
ARM GAS  C:\Users\PRICHA~1\AppData\Local\Temp\ccFt17DU.s 			page 33


 420              	.LFB34:
 396:main.c        ****  
 421              		.loc 1 396 0
 422              		.cfi_startproc
 423              		@ args = 0, pretend = 0, frame = 0
 424              		@ frame_needed = 0, uses_anonymous_args = 0
 425              		@ link register save eliminated.
 426              	.LVL40:
 398:main.c        ****      
 427              		.loc 1 398 0
 428 0000 0028     		cmp	r0, #0
 429 0002 03D1     		bne	.L33
 402:main.c        ****             break;        
 430              		.loc 1 402 0
 431 0004 0022     		movs	r2, #0
 432 0006 044B     		ldr	r3, .L34
 433 0008 1A70     		strb	r2, [r3]
 403:main.c        ****         
 434              		.loc 1 403 0
 435 000a 03E0     		b	.L29
 436              	.L33:
 407:main.c        ****             break;        
 437              		.loc 1 407 0
 438 000c 024A     		ldr	r2, .L34
 439 000e 1378     		ldrb	r3, [r2]
 440 0010 8343     		bics	r3, r0
 441 0012 1370     		strb	r3, [r2]
 442              	.L29:
 410:main.c        **** 
 443              		.loc 1 410 0
 444              		@ sp needed
 445 0014 7047     		bx	lr
 446              	.L35:
 447 0016 C046     		.align	2
 448              	.L34:
 449 0018 00000000 		.word	FaultState
 450              		.cfi_endproc
 451              	.LFE34:
 452              		.size	ClearFault, .-ClearFault
 453              		.global	__aeabi_fcmpgt
 454              		.global	__aeabi_fcmplt
 455              		.global	__aeabi_fmul
 456              		.global	__aeabi_f2uiz
 457              		.section	.text.PWM_Set,"ax",%progbits
 458              		.align	2
 459              		.global	PWM_Set
 460              		.code	16
 461              		.thumb_func
 462              		.type	PWM_Set, %function
 463              	PWM_Set:
 464              	.LFB37:
 706:main.c        ****     
 465              		.loc 1 706 0
 466              		.cfi_startproc
 467              		@ args = 0, pretend = 0, frame = 0
 468              		@ frame_needed = 0, uses_anonymous_args = 0
 469              	.LVL41:
ARM GAS  C:\Users\PRICHA~1\AppData\Local\Temp\ccFt17DU.s 			page 34


 470 0000 70B5     		push	{r4, r5, r6, lr}
 471              		.cfi_def_cfa_offset 16
 472              		.cfi_offset 4, -16
 473              		.cfi_offset 5, -12
 474              		.cfi_offset 6, -8
 475              		.cfi_offset 14, -4
 476 0002 051C     		adds	r5, r0, #0
 477              	.LVL42:
 711:main.c        ****         drive = pwmMax;
 478              		.loc 1 711 0
 479 0004 0C4B     		ldr	r3, .L38
 480 0006 1C68     		ldr	r4, [r3]
 481 0008 211C     		adds	r1, r4, #0
 482 000a FFF7FEFF 		bl	__aeabi_fcmpgt
 483              	.LVL43:
 484 000e 0028     		cmp	r0, #0
 485 0010 08D1     		bne	.L37
 713:main.c        ****         drive = pwmMin;
 486              		.loc 1 713 0
 487 0012 0A4B     		ldr	r3, .L38+4
 488 0014 1C68     		ldr	r4, [r3]
 489 0016 211C     		adds	r1, r4, #0
 490 0018 281C     		adds	r0, r5, #0
 491 001a FFF7FEFF 		bl	__aeabi_fcmplt
 492              	.LVL44:
 493 001e 0028     		cmp	r0, #0
 494 0020 00D1     		bne	.L37
 708:main.c        ****     
 495              		.loc 1 708 0
 496 0022 2C1C     		adds	r4, r5, #0
 497              	.L37:
 498              	.LVL45:
 717:main.c        **** }
 499              		.loc 1 717 0
 500 0024 8321     		movs	r1, #131
 501 0026 C905     		lsls	r1, r1, #23
 502 0028 201C     		adds	r0, r4, #0
 503 002a FFF7FEFF 		bl	__aeabi_fmul
 504              	.LVL46:
 505 002e FFF7FEFF 		bl	__aeabi_f2uiz
 506              	.LVL47:
 507 0032 FFF7FEFF 		bl	PWM_1_WriteCompare
 508              	.LVL48:
 718:main.c        **** 
 509              		.loc 1 718 0
 510              		@ sp needed
 511              	.LVL49:
 512              	.LVL50:
 513 0036 70BD     		pop	{r4, r5, r6, pc}
 514              	.L39:
 515              		.align	2
 516              	.L38:
 517 0038 00000000 		.word	pwmMax
 518 003c 00000000 		.word	pwmMin
 519              		.cfi_endproc
 520              	.LFE37:
 521              		.size	PWM_Set, .-PWM_Set
ARM GAS  C:\Users\PRICHA~1\AppData\Local\Temp\ccFt17DU.s 			page 35


 522              		.section	.text.GetPosition,"ax",%progbits
 523              		.align	2
 524              		.global	GetPosition
 525              		.code	16
 526              		.thumb_func
 527              		.type	GetPosition, %function
 528              	GetPosition:
 529              	.LFB38:
 729:main.c        ****     
 530              		.loc 1 729 0
 531              		.cfi_startproc
 532              		@ args = 0, pretend = 0, frame = 0
 533              		@ frame_needed = 0, uses_anonymous_args = 0
 534 0000 10B5     		push	{r4, lr}
 535              		.cfi_def_cfa_offset 8
 536              		.cfi_offset 4, -8
 537              		.cfi_offset 14, -4
 735:main.c        ****     
 538              		.loc 1 735 0
 539 0002 FFF7FEFF 		bl	Counter_1_ReadCounter
 540              	.LVL51:
 541 0006 0B4B     		ldr	r3, .L43
 542 0008 1860     		str	r0, [r3]
 739:main.c        ****         
 543              		.loc 1 739 0
 544 000a 1A68     		ldr	r2, [r3]
 545 000c 0A4B     		ldr	r3, .L43+4
 546 000e 9A42     		cmp	r2, r3
 547 0010 06D9     		bls	.L41
 741:main.c        ****         
 548              		.loc 1 741 0
 549 0012 084A     		ldr	r2, .L43
 550 0014 1368     		ldr	r3, [r2]
 551 0016 0949     		ldr	r1, .L43+8
 552 0018 8C46     		mov	ip, r1
 553 001a 6344     		add	r3, r3, ip
 554 001c 5360     		str	r3, [r2, #4]
 555 001e 02E0     		b	.L42
 556              	.L41:
 746:main.c        ****     }
 557              		.loc 1 746 0
 558 0020 044B     		ldr	r3, .L43
 559 0022 1A68     		ldr	r2, [r3]
 560 0024 5A60     		str	r2, [r3, #4]
 561              	.L42:
 750:main.c        ****     return result;
 562              		.loc 1 750 0
 563 0026 034B     		ldr	r3, .L43
 564 0028 5968     		ldr	r1, [r3, #4]
 565 002a 054A     		ldr	r2, .L43+12
 566 002c 1160     		str	r1, [r2]
 751:main.c        **** }
 567              		.loc 1 751 0
 568 002e 5868     		ldr	r0, [r3, #4]
 752:main.c        **** 
 569              		.loc 1 752 0
 570              		@ sp needed
ARM GAS  C:\Users\PRICHA~1\AppData\Local\Temp\ccFt17DU.s 			page 36


 571 0030 10BD     		pop	{r4, pc}
 572              	.L44:
 573 0032 C046     		.align	2
 574              	.L43:
 575 0034 00000000 		.word	.LANCHOR0
 576 0038 FFFFEF00 		.word	15728639
 577 003c 010000FF 		.word	-16777215
 578 0040 00000000 		.word	Position
 579              		.cfi_endproc
 580              	.LFE38:
 581              		.size	GetPosition, .-GetPosition
 582              		.global	__aeabi_ui2f
 583              		.global	__aeabi_fdiv
 584              		.global	__aeabi_fadd
 585              		.global	__aeabi_fsub
 586              		.section	.text.Comm_Task,"ax",%progbits
 587              		.align	2
 588              		.global	Comm_Task
 589              		.code	16
 590              		.thumb_func
 591              		.type	Comm_Task, %function
 592              	Comm_Task:
 593              	.LFB36:
 498:main.c        ****  
 594              		.loc 1 498 0
 595              		.cfi_startproc
 596              		@ args = 0, pretend = 0, frame = 0
 597              		@ frame_needed = 0, uses_anonymous_args = 0
 598              	.LVL52:
 599 0000 10B5     		push	{r4, lr}
 600              		.cfi_def_cfa_offset 8
 601              		.cfi_offset 4, -8
 602              		.cfi_offset 14, -4
 507:main.c        ****     
 603              		.loc 1 507 0
 604 0002 0020     		movs	r0, #0
 605              	.LVL53:
 606 0004 FFF7FEFF 		bl	uxTaskGetStackHighWaterMark
 607              	.LVL54:
 608 0008 954B     		ldr	r3, .L65
 609 000a 1860     		str	r0, [r3]
 610              	.L61:
 513:main.c        ****         
 611              		.loc 1 513 0
 612 000c 954B     		ldr	r3, .L65+4
 613 000e 1B68     		ldr	r3, [r3]
 614 0010 DB07     		lsls	r3, r3, #31
 615 0012 00D5     		bpl	.LCB494
 616 0014 1BE1     		b	.L46	@long jump
 617              	.LCB494:
 516:main.c        ****              
 618              		.loc 1 516 0
 619 0016 944B     		ldr	r3, .L65+8
 620 0018 1B78     		ldrb	r3, [r3]
 621 001a 002B     		cmp	r3, #0
 622 001c 00D0     		beq	.LCB499
 623 001e 16E1     		b	.L46	@long jump
ARM GAS  C:\Users\PRICHA~1\AppData\Local\Temp\ccFt17DU.s 			page 37


 624              	.LCB499:
 526:main.c        ****                         
 625              		.loc 1 526 0
 626 0020 924B     		ldr	r3, .L65+12
 627 0022 1868     		ldr	r0, [r3]
 628 0024 0421     		movs	r1, #4
 629 0026 FFF7FEFF 		bl	xQueueSemaphoreTake
 630              	.LVL55:
 631 002a 0128     		cmp	r0, #1
 632 002c 00D0     		beq	.LCB506
 633 002e 0EE1     		b	.L46	@long jump
 634              	.LCB506:
 529:main.c        ****                         opcode   = (rxMessage_opcodes_t) rxMessage.overlay.opcode;
 635              		.loc 1 529 0
 636 0030 8F4B     		ldr	r3, .L65+16
 637 0032 5878     		ldrb	r0, [r3, #1]
 638              	.LVL56:
 530:main.c        ****                         
 639              		.loc 1 530 0
 640 0034 9C78     		ldrb	r4, [r3, #2]
 641              	.LVL57:
 533:main.c        ****                             size = sizeof(txMessage.buf);                            
 642              		.loc 1 533 0
 643 0036 1E28     		cmp	r0, #30
 644 0038 00D9     		bls	.L48
 534:main.c        ****                     
 645              		.loc 1 534 0
 646 003a 1E20     		movs	r0, #30
 647              	.LVL58:
 648              	.L48:
 537:main.c        ****                             checksum += rxMessage.buf[i]; 
 649              		.loc 1 537 0
 650 003c 0022     		movs	r2, #0
 651 003e 0023     		movs	r3, #0
 652 0040 05E0     		b	.L49
 653              	.LVL59:
 654              	.L50:
 538:main.c        **** 
 655              		.loc 1 538 0 discriminator 3
 656 0042 8B49     		ldr	r1, .L65+16
 657 0044 C95C     		ldrb	r1, [r1, r3]
 658 0046 5218     		adds	r2, r2, r1
 659              	.LVL60:
 660 0048 D2B2     		uxtb	r2, r2
 661              	.LVL61:
 537:main.c        ****                             checksum += rxMessage.buf[i]; 
 662              		.loc 1 537 0 discriminator 3
 663 004a 0133     		adds	r3, r3, #1
 664              	.LVL62:
 665 004c DBB2     		uxtb	r3, r3
 666              	.LVL63:
 667              	.L49:
 537:main.c        ****                             checksum += rxMessage.buf[i]; 
 668              		.loc 1 537 0 is_stmt 0 discriminator 1
 669 004e 9842     		cmp	r0, r3
 670 0050 F7D8     		bhi	.L50
 541:main.c        ****                             
ARM GAS  C:\Users\PRICHA~1\AppData\Local\Temp\ccFt17DU.s 			page 38


 671              		.loc 1 541 0 is_stmt 1
 672 0052 002A     		cmp	r2, #0
 673 0054 09D0     		beq	.L51
 543:main.c        ****                             txMessage.msg.size = sizeof(txMessage_t);
 674              		.loc 1 543 0
 675 0056 874B     		ldr	r3, .L65+20
 676              	.LVL64:
 677 0058 5C71     		strb	r4, [r3, #5]
 544:main.c        ****                             ChecksumErrors++;
 678              		.loc 1 544 0
 679 005a 1522     		movs	r2, #21
 680              	.LVL65:
 681 005c 1A71     		strb	r2, [r3, #4]
 545:main.c        ****                             
 682              		.loc 1 545 0
 683 005e 864A     		ldr	r2, .L65+24
 684 0060 1388     		ldrh	r3, [r2]
 685 0062 0133     		adds	r3, r3, #1
 686 0064 9BB2     		uxth	r3, r3
 687 0066 1380     		strh	r3, [r2]
 688 0068 9BE0     		b	.L52
 689              	.LVL66:
 690              	.L51:
 551:main.c        ****                             
 691              		.loc 1 551 0
 692 006a 631E     		subs	r3, r4, #1
 693              	.LVL67:
 694 006c DBB2     		uxtb	r3, r3
 695 006e 022B     		cmp	r3, #2
 696 0070 00D9     		bls	.LCB572
 697 0072 96E0     		b	.L52	@long jump
 698              	.LCB572:
 553:main.c        ****                                 
 699              		.loc 1 553 0
 700 0074 012C     		cmp	r4, #1
 701 0076 02D0     		beq	.L53
 702 0078 022C     		cmp	r4, #2
 703 007a 60D0     		beq	.L54
 704 007c 91E0     		b	.L52
 705              	.L53:
 560:main.c        ****                                         refKi = rxMessage.config.Ki;
 706              		.loc 1 560 0
 707 007e 7C4B     		ldr	r3, .L65+16
 708 0080 1A79     		ldrb	r2, [r3, #4]
 709              	.LVL68:
 710 0082 5979     		ldrb	r1, [r3, #5]
 711 0084 0902     		lsls	r1, r1, #8
 712 0086 1143     		orrs	r1, r2
 713 0088 9A79     		ldrb	r2, [r3, #6]
 714 008a 1204     		lsls	r2, r2, #16
 715 008c 0A43     		orrs	r2, r1
 716 008e 1100     		movs	r1, r2
 717 0090 DA79     		ldrb	r2, [r3, #7]
 718 0092 1206     		lsls	r2, r2, #24
 719 0094 0A43     		orrs	r2, r1
 720 0096 7949     		ldr	r1, .L65+28
 721 0098 0A60     		str	r2, [r1]
ARM GAS  C:\Users\PRICHA~1\AppData\Local\Temp\ccFt17DU.s 			page 39


 561:main.c        ****                                         refKd = rxMessage.config.Kd;      
 722              		.loc 1 561 0
 723 009a 1A7A     		ldrb	r2, [r3, #8]
 724 009c 597A     		ldrb	r1, [r3, #9]
 725 009e 0902     		lsls	r1, r1, #8
 726 00a0 1143     		orrs	r1, r2
 727 00a2 9A7A     		ldrb	r2, [r3, #10]
 728 00a4 1204     		lsls	r2, r2, #16
 729 00a6 0A43     		orrs	r2, r1
 730 00a8 1100     		movs	r1, r2
 731 00aa DA7A     		ldrb	r2, [r3, #11]
 732 00ac 1206     		lsls	r2, r2, #24
 733 00ae 0A43     		orrs	r2, r1
 734 00b0 7349     		ldr	r1, .L65+32
 735 00b2 0A60     		str	r2, [r1]
 562:main.c        ****                                     
 736              		.loc 1 562 0
 737 00b4 1A7B     		ldrb	r2, [r3, #12]
 738 00b6 597B     		ldrb	r1, [r3, #13]
 739 00b8 0902     		lsls	r1, r1, #8
 740 00ba 1143     		orrs	r1, r2
 741 00bc 9A7B     		ldrb	r2, [r3, #14]
 742 00be 1204     		lsls	r2, r2, #16
 743 00c0 0A43     		orrs	r2, r1
 744 00c2 1100     		movs	r1, r2
 745 00c4 DA7B     		ldrb	r2, [r3, #15]
 746 00c6 1206     		lsls	r2, r2, #24
 747 00c8 0A43     		orrs	r2, r1
 748 00ca 6E49     		ldr	r1, .L65+36
 749 00cc 0A60     		str	r2, [r1]
 565:main.c        ****                                            
 750              		.loc 1 565 0
 751 00ce 997C     		ldrb	r1, [r3, #18]
 752 00d0 6D4A     		ldr	r2, .L65+40
 753 00d2 1170     		strb	r1, [r2]
 568:main.c        ****                                     
 754              		.loc 1 568 0
 755 00d4 0021     		movs	r1, #0
 756 00d6 6D4A     		ldr	r2, .L65+44
 757 00d8 1170     		strb	r1, [r2]
 571:main.c        ****                                         if (limit > 100)
 758              		.loc 1 571 0
 759 00da 187C     		ldrb	r0, [r3, #16]
 760              	.LVL69:
 572:main.c        ****                                             limit = 100;
 761              		.loc 1 572 0
 762 00dc 6428     		cmp	r0, #100
 763 00de 00D9     		bls	.L55
 573:main.c        ****                                     
 764              		.loc 1 573 0
 765 00e0 6420     		movs	r0, #100
 766              	.LVL70:
 767              	.L55:
 575:main.c        ****                                         
 768              		.loc 1 575 0
 769 00e2 FFF7FEFF 		bl	__aeabi_ui2f
 770              	.LVL71:
ARM GAS  C:\Users\PRICHA~1\AppData\Local\Temp\ccFt17DU.s 			page 40


 771 00e6 041C     		adds	r4, r0, #0
 772              	.LVL72:
 773 00e8 694B     		ldr	r3, .L65+48
 774 00ea 1860     		str	r0, [r3]
 577:main.c        ****                                         if (limit > 100)
 775              		.loc 1 577 0
 776 00ec 604B     		ldr	r3, .L65+16
 777 00ee 587C     		ldrb	r0, [r3, #17]
 778              	.LVL73:
 578:main.c        ****                                             limit = 100;
 779              		.loc 1 578 0
 780 00f0 6428     		cmp	r0, #100
 781 00f2 00D9     		bls	.L56
 579:main.c        ****                                         
 782              		.loc 1 579 0
 783 00f4 6420     		movs	r0, #100
 784              	.LVL74:
 785              	.L56:
 581:main.c        ****                                         
 786              		.loc 1 581 0
 787 00f6 FFF7FEFF 		bl	__aeabi_ui2f
 788              	.LVL75:
 789 00fa 664B     		ldr	r3, .L65+52
 790 00fc 1860     		str	r0, [r3]
 589:main.c        ****                                         pwmMax = 50 + pwmLimit;
 791              		.loc 1 589 0
 792 00fe 6649     		ldr	r1, .L65+56
 793 0100 201C     		adds	r0, r4, #0
 794 0102 FFF7FEFF 		bl	__aeabi_fdiv
 795              	.LVL76:
 796 0106 6549     		ldr	r1, .L65+60
 797 0108 FFF7FEFF 		bl	__aeabi_fmul
 798              	.LVL77:
 799 010c 041C     		adds	r4, r0, #0
 800 010e 644B     		ldr	r3, .L65+64
 801 0110 1860     		str	r0, [r3]
 590:main.c        ****                                         pwmMin = 50 - pwmLimit;
 802              		.loc 1 590 0
 803 0112 6249     		ldr	r1, .L65+60
 804 0114 FFF7FEFF 		bl	__aeabi_fadd
 805              	.LVL78:
 806 0118 624B     		ldr	r3, .L65+68
 807 011a 1860     		str	r0, [r3]
 591:main.c        ****                                     
 808              		.loc 1 591 0
 809 011c 211C     		adds	r1, r4, #0
 810 011e 5F48     		ldr	r0, .L65+60
 811 0120 FFF7FEFF 		bl	__aeabi_fsub
 812              	.LVL79:
 813 0124 604B     		ldr	r3, .L65+72
 814 0126 1860     		str	r0, [r3]
 594:main.c        ****                                         ConfigSequence = rxMessage.config.sequence;
 815              		.loc 1 594 0
 816 0128 0222     		movs	r2, #2
 817 012a 604B     		ldr	r3, .L65+76
 818 012c 1A70     		strb	r2, [r3]
 595:main.c        ****                                     
ARM GAS  C:\Users\PRICHA~1\AppData\Local\Temp\ccFt17DU.s 			page 41


 819              		.loc 1 595 0
 820 012e 504B     		ldr	r3, .L65+16
 821 0130 DA78     		ldrb	r2, [r3, #3]
 822 0132 5F4B     		ldr	r3, .L65+80
 823 0134 1A70     		strb	r2, [r3]
 598:main.c        ****                                         break;
 824              		.loc 1 598 0
 825 0136 0020     		movs	r0, #0
 826 0138 FFF7FEFF 		bl	ClearFault
 827              	.LVL80:
 599:main.c        **** 
 828              		.loc 1 599 0
 829 013c 31E0     		b	.L52
 830              	.LVL81:
 831              	.L54:
 603:main.c        ****                                         
 832              		.loc 1 603 0
 833 013e 4C48     		ldr	r0, .L65+16
 834              	.LVL82:
 835 0140 C378     		ldrb	r3, [r0, #3]
 836 0142 5A1E     		subs	r2, r3, #1
 837 0144 9341     		sbcs	r3, r3, r2
 838              	.LVL83:
 839 0146 5B4A     		ldr	r2, .L65+84
 840 0148 1370     		strb	r3, [r2]
 606:main.c        ****                                             
 841              		.loc 1 606 0
 842 014a 0379     		ldrb	r3, [r0, #4]
 843 014c 4279     		ldrb	r2, [r0, #5]
 844 014e 1202     		lsls	r2, r2, #8
 845 0150 1A43     		orrs	r2, r3
 846 0152 8379     		ldrb	r3, [r0, #6]
 847 0154 1B04     		lsls	r3, r3, #16
 848 0156 1343     		orrs	r3, r2
 849 0158 1A00     		movs	r2, r3
 850 015a C379     		ldrb	r3, [r0, #7]
 851 015c 1B06     		lsls	r3, r3, #24
 852 015e 1343     		orrs	r3, r2
 853 0160 554A     		ldr	r2, .L65+88
 854 0162 1268     		ldr	r2, [r2]
 855 0164 9342     		cmp	r3, r2
 856 0166 17D0     		beq	.L57
 609:main.c        ****                                             
 857              		.loc 1 609 0
 858 0168 FFF7FEFF 		bl	GetPosition
 859              	.LVL84:
 860 016c 534C     		ldr	r4, .L65+92
 861              	.LVL85:
 862 016e 2060     		str	r0, [r4]
 612:main.c        ****                                             
 863              		.loc 1 612 0
 864 0170 3F48     		ldr	r0, .L65+16
 865 0172 0379     		ldrb	r3, [r0, #4]
 866 0174 4279     		ldrb	r2, [r0, #5]
 867 0176 1202     		lsls	r2, r2, #8
 868 0178 1A43     		orrs	r2, r3
 869 017a 8379     		ldrb	r3, [r0, #6]
ARM GAS  C:\Users\PRICHA~1\AppData\Local\Temp\ccFt17DU.s 			page 42


 870 017c 1B04     		lsls	r3, r3, #16
 871 017e 1343     		orrs	r3, r2
 872 0180 1A00     		movs	r2, r3
 873 0182 C379     		ldrb	r3, [r0, #7]
 874 0184 1B06     		lsls	r3, r3, #24
 875 0186 1343     		orrs	r3, r2
 876 0188 4B4A     		ldr	r2, .L65+88
 877 018a 1360     		str	r3, [r2]
 616:main.c        ****                                             
 878              		.loc 1 616 0
 879 018c 2268     		ldr	r2, [r4]
 880 018e 4C4B     		ldr	r3, .L65+96
 881 0190 1A60     		str	r2, [r3]
 619:main.c        ****                                         }                                        
 882              		.loc 1 619 0
 883 0192 0020     		movs	r0, #0
 884 0194 FFF7FEFF 		bl	Index_Counter_1_WriteCounter
 885              	.LVL86:
 886              	.L57:
 623:main.c        ****                                         break;
 887              		.loc 1 623 0
 888 0198 354B     		ldr	r3, .L65+16
 889 019a 0822     		movs	r2, #8
 890 019c 9A56     		ldrsb	r2, [r3, r2]
 891 019e 3B4B     		ldr	r3, .L65+44
 892 01a0 1A70     		strb	r2, [r3]
 893              	.L52:
 634:main.c        ****                         
 894              		.loc 1 634 0
 895 01a2 FFF7FEFF 		bl	GetPosition
 896              	.LVL87:
 897 01a6 4749     		ldr	r1, .L65+100
 898 01a8 0860     		str	r0, [r1]
 637:main.c        ****                         txMessage.msg.version0 = FIRMWARE_REV_0;
 899              		.loc 1 637 0
 900 01aa 324B     		ldr	r3, .L65+20
 901 01ac 0022     		movs	r2, #0
 902 01ae 1A70     		strb	r2, [r3]
 638:main.c        ****                         txMessage.msg.version1 = FIRMWARE_REV_1;
 903              		.loc 1 638 0
 904 01b0 5A70     		strb	r2, [r3, #1]
 639:main.c        ****                         txMessage.msg.version2 = FIRMWARE_REV_2;
 905              		.loc 1 639 0
 906 01b2 9A70     		strb	r2, [r3, #2]
 640:main.c        ****                         txMessage.msg.size     = sizeof(txMessage_t);
 907              		.loc 1 640 0
 908 01b4 0532     		adds	r2, r2, #5
 909 01b6 DA70     		strb	r2, [r3, #3]
 641:main.c        ****                         txMessage.msg.opcode   = opStatus;
 910              		.loc 1 641 0
 911 01b8 1032     		adds	r2, r2, #16
 912 01ba 1A71     		strb	r2, [r3, #4]
 642:main.c        ****                         txMessage.msg.state    = (uint8) ConfigState;
 913              		.loc 1 642 0
 914 01bc 133A     		subs	r2, r2, #19
 915 01be 5A71     		strb	r2, [r3, #5]
 643:main.c        ****                         txMessage.msg.fault    = (uint8) FaultState;
ARM GAS  C:\Users\PRICHA~1\AppData\Local\Temp\ccFt17DU.s 			page 43


 916              		.loc 1 643 0
 917 01c0 3A4A     		ldr	r2, .L65+76
 918 01c2 1278     		ldrb	r2, [r2]
 919 01c4 9A71     		strb	r2, [r3, #6]
 644:main.c        ****                         txMessage.msg.checksum_errors = ChecksumErrors;
 920              		.loc 1 644 0
 921 01c6 404A     		ldr	r2, .L65+104
 922 01c8 1278     		ldrb	r2, [r2]
 923 01ca DA71     		strb	r2, [r3, #7]
 645:main.c        ****                         txMessage.msg.sequence = ConfigSequence;
 924              		.loc 1 645 0
 925 01cc 2A4A     		ldr	r2, .L65+24
 926 01ce 1288     		ldrh	r2, [r2]
 927 01d0 92B2     		uxth	r2, r2
 928 01d2 5A72     		strb	r2, [r3, #9]
 929 01d4 120A     		lsrs	r2, r2, #8
 930 01d6 9A72     		strb	r2, [r3, #10]
 646:main.c        ****                         txMessage.msg.position = Position;
 931              		.loc 1 646 0
 932 01d8 354A     		ldr	r2, .L65+80
 933 01da 1278     		ldrb	r2, [r2]
 934 01dc 1A72     		strb	r2, [r3, #8]
 647:main.c        ****                         txMessage.msg.pwm      = PWM;
 935              		.loc 1 647 0
 936 01de 0A68     		ldr	r2, [r1]
 937 01e0 5A73     		strb	r2, [r3, #13]
 938 01e2 100A     		lsrs	r0, r2, #8
 939 01e4 9873     		strb	r0, [r3, #14]
 940 01e6 100C     		lsrs	r0, r2, #16
 941 01e8 D873     		strb	r0, [r3, #15]
 942 01ea 120E     		lsrs	r2, r2, #24
 943 01ec 1A74     		strb	r2, [r3, #16]
 648:main.c        ****                         txMessage.msg.current  = Current;                            
 944              		.loc 1 648 0
 945 01ee 374A     		ldr	r2, .L65+108
 946 01f0 1268     		ldr	r2, [r2]
 947 01f2 5A74     		strb	r2, [r3, #17]
 948 01f4 100A     		lsrs	r0, r2, #8
 949 01f6 9874     		strb	r0, [r3, #18]
 950 01f8 100C     		lsrs	r0, r2, #16
 951 01fa D874     		strb	r0, [r3, #19]
 952 01fc 120E     		lsrs	r2, r2, #24
 953 01fe 1A75     		strb	r2, [r3, #20]
 649:main.c        ****                         
 954              		.loc 1 649 0
 955 0200 334A     		ldr	r2, .L65+112
 956 0202 1288     		ldrh	r2, [r2]
 957 0204 DA72     		strb	r2, [r3, #11]
 958 0206 120A     		lsrs	r2, r2, #8
 959 0208 1A73     		strb	r2, [r3, #12]
 960              	.LVL88:
 652:main.c        ****                             checksum += txMessage.buf[i]; 
 961              		.loc 1 652 0
 962 020a 0022     		movs	r2, #0
 963 020c 0023     		movs	r3, #0
 964 020e 05E0     		b	.L58
 965              	.LVL89:
ARM GAS  C:\Users\PRICHA~1\AppData\Local\Temp\ccFt17DU.s 			page 44


 966              	.L59:
 653:main.c        ****                             
 967              		.loc 1 653 0 discriminator 3
 968 0210 1849     		ldr	r1, .L65+20
 969 0212 C95C     		ldrb	r1, [r1, r3]
 970 0214 5218     		adds	r2, r2, r1
 971              	.LVL90:
 972 0216 D2B2     		uxtb	r2, r2
 973              	.LVL91:
 652:main.c        ****                             checksum += txMessage.buf[i]; 
 974              		.loc 1 652 0 discriminator 3
 975 0218 0133     		adds	r3, r3, #1
 976              	.LVL92:
 977 021a DBB2     		uxtb	r3, r3
 978              	.LVL93:
 979              	.L58:
 652:main.c        ****                             checksum += txMessage.buf[i]; 
 980              		.loc 1 652 0 is_stmt 0 discriminator 1
 981 021c 142B     		cmp	r3, #20
 982 021e F7D9     		bls	.L59
 656:main.c        ****                             
 983              		.loc 1 656 0 is_stmt 1
 984 0220 1448     		ldr	r0, .L65+20
 985 0222 5242     		rsbs	r2, r2, #0
 986              	.LVL94:
 987 0224 0270     		strb	r2, [r0]
 660:main.c        **** 
 988              		.loc 1 660 0
 989 0226 1E21     		movs	r1, #30
 990 0228 FFF7FEFF 		bl	SPI_1_SpiUartPutArray
 991              	.LVL95:
 663:main.c        ****                         
 992              		.loc 1 663 0
 993 022c 0122     		movs	r2, #1
 994 022e 0E4B     		ldr	r3, .L65+8
 995 0230 1A70     		strb	r2, [r3]
 666:main.c        ****                             ClearFault(fsNONE);
 996              		.loc 1 666 0
 997 0232 0F4B     		ldr	r3, .L65+16
 998 0234 5B7A     		ldrb	r3, [r3, #9]
 999 0236 002B     		cmp	r3, #0
 1000 0238 02D0     		beq	.L60
 667:main.c        ****                     
 1001              		.loc 1 667 0
 1002 023a 0020     		movs	r0, #0
 1003 023c FFF7FEFF 		bl	ClearFault
 1004              	.LVL96:
 1005              	.L60:
 670:main.c        ****                     }            
 1006              		.loc 1 670 0
 1007 0240 0A4B     		ldr	r3, .L65+12
 1008 0242 1868     		ldr	r0, [r3]
 1009 0244 0023     		movs	r3, #0
 1010 0246 0022     		movs	r2, #0
 1011 0248 0021     		movs	r1, #0
 1012 024a FFF7FEFF 		bl	xQueueGenericSend
 1013              	.LVL97:
ARM GAS  C:\Users\PRICHA~1\AppData\Local\Temp\ccFt17DU.s 			page 45


 1014              	.L46:
 686:main.c        ****         
 1015              		.loc 1 686 0
 1016 024e 0120     		movs	r0, #1
 1017 0250 FFF7FEFF 		bl	vTaskDelay
 1018              	.LVL98:
 689:main.c        ****     }
 1019              		.loc 1 689 0
 1020 0254 0020     		movs	r0, #0
 1021 0256 FFF7FEFF 		bl	uxTaskGetStackHighWaterMark
 1022              	.LVL99:
 1023 025a 014B     		ldr	r3, .L65
 1024 025c 1860     		str	r0, [r3]
 690:main.c        **** }
 1025              		.loc 1 690 0
 1026 025e D5E6     		b	.L61
 1027              	.L66:
 1028              		.align	2
 1029              	.L65:
 1030 0260 00000000 		.word	uxHighWaterMark_Comm
 1031 0264 24000740 		.word	1074200612
 1032 0268 00000000 		.word	txMessageState
 1033 026c 00000000 		.word	Lock
 1034 0270 00000000 		.word	rxMessage
 1035 0274 00000000 		.word	txMessage
 1036 0278 00000000 		.word	ChecksumErrors
 1037 027c 00000000 		.word	refKp
 1038 0280 00000000 		.word	refKi
 1039 0284 00000000 		.word	refKd
 1040 0288 00000000 		.word	PID_EffSetDelta
 1041 028c 00000000 		.word	Jog
 1042 0290 00000000 		.word	outMax_Total
 1043 0294 00000000 		.word	outMax_ITerm
 1044 0298 0000C842 		.word	1120403456
 1045 029c 00004842 		.word	1112014848
 1046 02a0 00000000 		.word	pwmLimit
 1047 02a4 00000000 		.word	pwmMax
 1048 02a8 00000000 		.word	pwmMin
 1049 02ac 00000000 		.word	ConfigState
 1050 02b0 00000000 		.word	ConfigSequence
 1051 02b4 00000000 		.word	PID_Enabled
 1052 02b8 00000000 		.word	PID_Setpoint
 1053 02bc 00000000 		.word	LastPosition
 1054 02c0 00000000 		.word	PID_EffectiveSetpoint
 1055 02c4 00000000 		.word	Position
 1056 02c8 00000000 		.word	FaultState
 1057 02cc 00000000 		.word	PWM
 1058 02d0 00000000 		.word	Current
 1059              		.cfi_endproc
 1060              	.LFE36:
 1061              		.size	Comm_Task, .-Comm_Task
 1062              		.section	.text.PID_Initialize,"ax",%progbits
 1063              		.align	2
 1064              		.global	PID_Initialize
 1065              		.code	16
 1066              		.thumb_func
 1067              		.type	PID_Initialize, %function
ARM GAS  C:\Users\PRICHA~1\AppData\Local\Temp\ccFt17DU.s 			page 46


 1068              	PID_Initialize:
 1069              	.LFB39:
 765:main.c        ****     
 1070              		.loc 1 765 0
 1071              		.cfi_startproc
 1072              		@ args = 0, pretend = 0, frame = 0
 1073              		@ frame_needed = 0, uses_anonymous_args = 0
 1074 0000 10B5     		push	{r4, lr}
 1075              		.cfi_def_cfa_offset 8
 1076              		.cfi_offset 4, -8
 1077              		.cfi_offset 14, -4
 768:main.c        ****     LastPosition = Position;
 1078              		.loc 1 768 0
 1079 0002 FFF7FEFF 		bl	GetPosition
 1080              	.LVL100:
 1081 0006 064B     		ldr	r3, .L68
 1082 0008 1860     		str	r0, [r3]
 769:main.c        ****     
 1083              		.loc 1 769 0
 1084 000a 1A68     		ldr	r2, [r3]
 1085 000c 054B     		ldr	r3, .L68+4
 1086 000e 1A60     		str	r2, [r3]
 773:main.c        ****     
 1087              		.loc 1 773 0
 1088 0010 1A68     		ldr	r2, [r3]
 1089 0012 054B     		ldr	r3, .L68+8
 1090 0014 1A60     		str	r2, [r3]
 777:main.c        **** }    
 1091              		.loc 1 777 0
 1092 0016 0022     		movs	r2, #0
 1093 0018 044B     		ldr	r3, .L68+12
 1094 001a 1A60     		str	r2, [r3]
 778:main.c        **** 
 1095              		.loc 1 778 0
 1096              		@ sp needed
 1097 001c 10BD     		pop	{r4, pc}
 1098              	.L69:
 1099 001e C046     		.align	2
 1100              	.L68:
 1101 0020 00000000 		.word	Position
 1102 0024 00000000 		.word	LastPosition
 1103 0028 00000000 		.word	PID_EffectiveSetpoint
 1104 002c 00000000 		.word	ITerm
 1105              		.cfi_endproc
 1106              	.LFE39:
 1107              		.size	PID_Initialize, .-PID_Initialize
 1108              		.section	.text.PID_SetTunings,"ax",%progbits
 1109              		.align	2
 1110              		.global	PID_SetTunings
 1111              		.code	16
 1112              		.thumb_func
 1113              		.type	PID_SetTunings, %function
 1114              	PID_SetTunings:
 1115              	.LFB40:
 790:main.c        ****     
 1116              		.loc 1 790 0
 1117              		.cfi_startproc
ARM GAS  C:\Users\PRICHA~1\AppData\Local\Temp\ccFt17DU.s 			page 47


 1118              		@ args = 0, pretend = 0, frame = 0
 1119              		@ frame_needed = 0, uses_anonymous_args = 0
 1120              	.LVL101:
 1121 0000 F8B5     		push	{r3, r4, r5, r6, r7, lr}
 1122              		.cfi_def_cfa_offset 24
 1123              		.cfi_offset 3, -24
 1124              		.cfi_offset 4, -20
 1125              		.cfi_offset 5, -16
 1126              		.cfi_offset 6, -12
 1127              		.cfi_offset 7, -8
 1128              		.cfi_offset 14, -4
 1129 0002 0E1C     		adds	r6, r1, #0
 1130 0004 151C     		adds	r5, r2, #0
 1131 0006 1C1C     		adds	r4, r3, #0
 792:main.c        ****     
 1132              		.loc 1 792 0
 1133 0008 0028     		cmp	r0, #0
 1134 000a 12D0     		beq	.L70
 1135              	.LBB2:
 794:main.c        ****     
 1136              		.loc 1 794 0
 1137 000c FFF7FEFF 		bl	__aeabi_ui2f
 1138              	.LVL102:
 1139 0010 0849     		ldr	r1, .L72
 1140 0012 FFF7FEFF 		bl	__aeabi_fdiv
 1141              	.LVL103:
 1142 0016 071C     		adds	r7, r0, #0
 1143              	.LVL104:
 796:main.c        ****         ki = newKi * sampleTimeInSec;
 1144              		.loc 1 796 0
 1145 0018 074B     		ldr	r3, .L72+4
 1146 001a 1E60     		str	r6, [r3]
 797:main.c        ****         kd = newKd / sampleTimeInSec;        
 1147              		.loc 1 797 0
 1148 001c 291C     		adds	r1, r5, #0
 1149 001e FFF7FEFF 		bl	__aeabi_fmul
 1150              	.LVL105:
 1151 0022 064B     		ldr	r3, .L72+8
 1152 0024 1860     		str	r0, [r3]
 798:main.c        ****     }
 1153              		.loc 1 798 0
 1154 0026 391C     		adds	r1, r7, #0
 1155 0028 201C     		adds	r0, r4, #0
 1156 002a FFF7FEFF 		bl	__aeabi_fdiv
 1157              	.LVL106:
 1158 002e 044B     		ldr	r3, .L72+12
 1159 0030 1860     		str	r0, [r3]
 1160              	.LVL107:
 1161              	.L70:
 1162              	.LBE2:
 800:main.c        **** 
 1163              		.loc 1 800 0
 1164              		@ sp needed
 1165              	.LVL108:
 1166              	.LVL109:
 1167              	.LVL110:
 1168 0032 F8BD     		pop	{r3, r4, r5, r6, r7, pc}
ARM GAS  C:\Users\PRICHA~1\AppData\Local\Temp\ccFt17DU.s 			page 48


 1169              	.L73:
 1170              		.align	2
 1171              	.L72:
 1172 0034 00007A44 		.word	1148846080
 1173 0038 00000000 		.word	kp
 1174 003c 00000000 		.word	ki
 1175 0040 00000000 		.word	kd
 1176              		.cfi_endproc
 1177              	.LFE40:
 1178              		.size	PID_SetTunings, .-PID_SetTunings
 1179              		.global	__aeabi_i2f
 1180              		.section	.text.PID_Compute,"ax",%progbits
 1181              		.align	2
 1182              		.global	PID_Compute
 1183              		.code	16
 1184              		.thumb_func
 1185              		.type	PID_Compute, %function
 1186              	PID_Compute:
 1187              	.LFB41:
 812:main.c        ****     
 1188              		.loc 1 812 0
 1189              		.cfi_startproc
 1190              		@ args = 0, pretend = 0, frame = 0
 1191              		@ frame_needed = 0, uses_anonymous_args = 0
 1192              	.LVL111:
 1193 0000 F8B5     		push	{r3, r4, r5, r6, r7, lr}
 1194              		.cfi_def_cfa_offset 24
 1195              		.cfi_offset 3, -24
 1196              		.cfi_offset 4, -20
 1197              		.cfi_offset 5, -16
 1198              		.cfi_offset 6, -12
 1199              		.cfi_offset 7, -8
 1200              		.cfi_offset 14, -4
 1201 0002 0400     		movs	r4, r0
 1202 0004 0D00     		movs	r5, r1
 817:main.c        ****         return 0;
 1203              		.loc 1 817 0
 1204 0006 3D4B     		ldr	r3, .L92
 1205 0008 1B7A     		ldrb	r3, [r3, #8]
 1206 000a 002B     		cmp	r3, #0
 1207 000c 74D0     		beq	.L85
 821:main.c        ****     
 1208              		.loc 1 821 0
 1209 000e FFF7FEFF 		bl	GetPosition
 1210              	.LVL112:
 1211 0012 3B4B     		ldr	r3, .L92+4
 1212 0014 1860     		str	r0, [r3]
 824:main.c        ****     
 1213              		.loc 1 824 0
 1214 0016 3B4B     		ldr	r3, .L92+8
 1215 0018 1868     		ldr	r0, [r3]
 1216 001a 201A     		subs	r0, r4, r0
 1217              	.LVL113:
 827:main.c        **** 
 1218              		.loc 1 827 0
 1219 001c 3A4B     		ldr	r3, .L92+12
 1220 001e 1B68     		ldr	r3, [r3]
ARM GAS  C:\Users\PRICHA~1\AppData\Local\Temp\ccFt17DU.s 			page 49


 1221 0020 9842     		cmp	r0, r3
 1222 0022 66D3     		bcc	.L76
 831:main.c        ****         
 1223              		.loc 1 831 0
 1224 0024 394B     		ldr	r3, .L92+16
 1225 0026 1B68     		ldr	r3, [r3]
 1226 0028 394A     		ldr	r2, .L92+20
 1227 002a 1268     		ldr	r2, [r2]
 1228 002c 3949     		ldr	r1, .L92+24
 1229 002e 0968     		ldr	r1, [r1]
 1230 0030 FFF7FEFF 		bl	PID_SetTunings
 1231              	.LVL114:
 834:main.c        ****         ITerm += (ki * error);
 1232              		.loc 1 834 0
 1233 0034 324B     		ldr	r3, .L92+4
 1234 0036 1868     		ldr	r0, [r3]
 1235 0038 281A     		subs	r0, r5, r0
 1236              	.LVL115:
 835:main.c        ****         
 1237              		.loc 1 835 0
 1238 003a FFF7FEFF 		bl	__aeabi_i2f
 1239              	.LVL116:
 1240 003e 071C     		adds	r7, r0, #0
 1241 0040 354B     		ldr	r3, .L92+28
 1242 0042 1968     		ldr	r1, [r3]
 1243 0044 FFF7FEFF 		bl	__aeabi_fmul
 1244              	.LVL117:
 1245 0048 344D     		ldr	r5, .L92+32
 1246              	.LVL118:
 1247 004a 2968     		ldr	r1, [r5]
 1248 004c FFF7FEFF 		bl	__aeabi_fadd
 1249              	.LVL119:
 1250 0050 061C     		adds	r6, r0, #0
 1251 0052 2860     		str	r0, [r5]
 838:main.c        ****             ITerm = outMax_ITerm;
 1252              		.loc 1 838 0
 1253 0054 324B     		ldr	r3, .L92+36
 1254 0056 1D68     		ldr	r5, [r3]
 1255 0058 291C     		adds	r1, r5, #0
 1256 005a FFF7FEFF 		bl	__aeabi_fcmpgt
 1257              	.LVL120:
 1258 005e 0028     		cmp	r0, #0
 1259 0060 02D0     		beq	.L90
 839:main.c        ****         } else if (ITerm < -outMax_ITerm) {
 1260              		.loc 1 839 0
 1261 0062 2E4B     		ldr	r3, .L92+32
 1262 0064 1D60     		str	r5, [r3]
 1263 0066 0BE0     		b	.L79
 1264              	.L90:
 840:main.c        ****             ITerm = -outMax_ITerm;
 1265              		.loc 1 840 0
 1266 0068 8023     		movs	r3, #128
 1267 006a 1B06     		lsls	r3, r3, #24
 1268 006c 9C46     		mov	ip, r3
 1269 006e 6544     		add	r5, r5, ip
 1270 0070 291C     		adds	r1, r5, #0
 1271 0072 301C     		adds	r0, r6, #0
ARM GAS  C:\Users\PRICHA~1\AppData\Local\Temp\ccFt17DU.s 			page 50


 1272 0074 FFF7FEFF 		bl	__aeabi_fcmplt
 1273              	.LVL121:
 1274 0078 0028     		cmp	r0, #0
 1275 007a 01D0     		beq	.L79
 841:main.c        ****         }
 1276              		.loc 1 841 0
 1277 007c 274B     		ldr	r3, .L92+32
 1278 007e 1D60     		str	r5, [r3]
 1279              	.L79:
 845:main.c        **** 
 1280              		.loc 1 845 0
 1281 0080 1F4B     		ldr	r3, .L92+4
 1282 0082 1B68     		ldr	r3, [r3]
 1283 0084 274A     		ldr	r2, .L92+40
 1284 0086 1568     		ldr	r5, [r2]
 1285 0088 5D1B     		subs	r5, r3, r5
 1286              	.LVL122:
 848:main.c        ****         
 1287              		.loc 1 848 0
 1288 008a 274B     		ldr	r3, .L92+44
 1289 008c 1968     		ldr	r1, [r3]
 1290 008e 381C     		adds	r0, r7, #0
 1291 0090 FFF7FEFF 		bl	__aeabi_fmul
 1292              	.LVL123:
 1293 0094 214B     		ldr	r3, .L92+32
 1294 0096 1968     		ldr	r1, [r3]
 1295 0098 FFF7FEFF 		bl	__aeabi_fadd
 1296              	.LVL124:
 1297 009c 061C     		adds	r6, r0, #0
 1298 009e 2800     		movs	r0, r5
 1299 00a0 FFF7FEFF 		bl	__aeabi_i2f
 1300              	.LVL125:
 1301 00a4 214B     		ldr	r3, .L92+48
 1302 00a6 1968     		ldr	r1, [r3]
 1303 00a8 FFF7FEFF 		bl	__aeabi_fmul
 1304              	.LVL126:
 1305 00ac 011C     		adds	r1, r0, #0
 1306 00ae 301C     		adds	r0, r6, #0
 1307 00b0 FFF7FEFF 		bl	__aeabi_fsub
 1308              	.LVL127:
 1309 00b4 061C     		adds	r6, r0, #0
 1310 00b6 1E4B     		ldr	r3, .L92+52
 1311 00b8 1860     		str	r0, [r3]
 851:main.c        ****             Output = outMax_Total;
 1312              		.loc 1 851 0
 1313 00ba 1E4B     		ldr	r3, .L92+56
 1314 00bc 1D68     		ldr	r5, [r3]
 1315              	.LVL128:
 1316 00be 291C     		adds	r1, r5, #0
 1317 00c0 FFF7FEFF 		bl	__aeabi_fcmpgt
 1318              	.LVL129:
 1319 00c4 0028     		cmp	r0, #0
 1320 00c6 02D0     		beq	.L91
 852:main.c        ****         } else if (Output < -outMax_Total) {
 1321              		.loc 1 852 0
 1322 00c8 194B     		ldr	r3, .L92+52
 1323 00ca 1D60     		str	r5, [r3]
ARM GAS  C:\Users\PRICHA~1\AppData\Local\Temp\ccFt17DU.s 			page 51


 1324 00cc 0BE0     		b	.L83
 1325              	.L91:
 853:main.c        ****             Output = -outMax_Total;
 1326              		.loc 1 853 0
 1327 00ce 8023     		movs	r3, #128
 1328 00d0 1B06     		lsls	r3, r3, #24
 1329 00d2 9C46     		mov	ip, r3
 1330 00d4 6544     		add	r5, r5, ip
 1331 00d6 291C     		adds	r1, r5, #0
 1332 00d8 301C     		adds	r0, r6, #0
 1333 00da FFF7FEFF 		bl	__aeabi_fcmplt
 1334              	.LVL130:
 1335 00de 0028     		cmp	r0, #0
 1336 00e0 01D0     		beq	.L83
 854:main.c        ****         }
 1337              		.loc 1 854 0
 1338 00e2 134B     		ldr	r3, .L92+52
 1339 00e4 1D60     		str	r5, [r3]
 1340              	.L83:
 858:main.c        ****         lastTime = now;        
 1341              		.loc 1 858 0
 1342 00e6 064B     		ldr	r3, .L92+4
 1343 00e8 1A68     		ldr	r2, [r3]
 1344 00ea 0E4B     		ldr	r3, .L92+40
 1345 00ec 1A60     		str	r2, [r3]
 859:main.c        ****     }
 1346              		.loc 1 859 0
 1347 00ee 054B     		ldr	r3, .L92+8
 1348 00f0 1C60     		str	r4, [r3]
 1349              	.L76:
 862:main.c        **** }
 1350              		.loc 1 862 0
 1351 00f2 0F4B     		ldr	r3, .L92+52
 1352 00f4 1868     		ldr	r0, [r3]
 1353 00f6 00E0     		b	.L75
 1354              	.LVL131:
 1355              	.L85:
 818:main.c        ****     
 1356              		.loc 1 818 0
 1357 00f8 0020     		movs	r0, #0
 1358              	.LVL132:
 1359              	.L75:
 863:main.c        ****  
 1360              		.loc 1 863 0
 1361              		@ sp needed
 1362              	.LVL133:
 1363 00fa F8BD     		pop	{r3, r4, r5, r6, r7, pc}
 1364              	.L93:
 1365              		.align	2
 1366              	.L92:
 1367 00fc 00000000 		.word	.LANCHOR0
 1368 0100 00000000 		.word	Position
 1369 0104 00000000 		.word	lastTime
 1370 0108 00000000 		.word	.LANCHOR1
 1371 010c 00000000 		.word	refKd
 1372 0110 00000000 		.word	refKi
 1373 0114 00000000 		.word	refKp
ARM GAS  C:\Users\PRICHA~1\AppData\Local\Temp\ccFt17DU.s 			page 52


 1374 0118 00000000 		.word	ki
 1375 011c 00000000 		.word	ITerm
 1376 0120 00000000 		.word	outMax_ITerm
 1377 0124 00000000 		.word	LastPosition
 1378 0128 00000000 		.word	kp
 1379 012c 00000000 		.word	kd
 1380 0130 00000000 		.word	Output
 1381 0134 00000000 		.word	outMax_Total
 1382              		.cfi_endproc
 1383              	.LFE41:
 1384              		.size	PID_Compute, .-PID_Compute
 1385              		.section	.text.PID_SetMode,"ax",%progbits
 1386              		.align	2
 1387              		.global	PID_SetMode
 1388              		.code	16
 1389              		.thumb_func
 1390              		.type	PID_SetMode, %function
 1391              	PID_SetMode:
 1392              	.LFB42:
 874:main.c        ****     
 1393              		.loc 1 874 0
 1394              		.cfi_startproc
 1395              		@ args = 0, pretend = 0, frame = 0
 1396              		@ frame_needed = 0, uses_anonymous_args = 0
 1397              	.LVL134:
 1398 0000 10B5     		push	{r4, lr}
 1399              		.cfi_def_cfa_offset 8
 1400              		.cfi_offset 4, -8
 1401              		.cfi_offset 14, -4
 876:main.c        ****     
 1402              		.loc 1 876 0
 1403 0002 441E     		subs	r4, r0, #1
 1404 0004 6342     		rsbs	r3, r4, #0
 1405 0006 5C41     		adcs	r4, r4, r3
 1406 0008 E4B2     		uxtb	r4, r4
 1407              	.LVL135:
 878:main.c        ****         /*we just went from manual to auto*/
 1408              		.loc 1 878 0
 1409 000a 0128     		cmp	r0, #1
 1410 000c 05D1     		bne	.L95
 878:main.c        ****         /*we just went from manual to auto*/
 1411              		.loc 1 878 0 is_stmt 0 discriminator 1
 1412 000e 044B     		ldr	r3, .L96
 1413 0010 1B7A     		ldrb	r3, [r3, #8]
 1414 0012 002B     		cmp	r3, #0
 1415 0014 01D1     		bne	.L95
 880:main.c        ****     }
 1416              		.loc 1 880 0 is_stmt 1
 1417 0016 FFF7FEFF 		bl	PID_Initialize
 1418              	.LVL136:
 1419              	.L95:
 883:main.c        **** } 
 1420              		.loc 1 883 0
 1421 001a 014B     		ldr	r3, .L96
 1422 001c 1C72     		strb	r4, [r3, #8]
 884:main.c        ****     
 1423              		.loc 1 884 0
ARM GAS  C:\Users\PRICHA~1\AppData\Local\Temp\ccFt17DU.s 			page 53


 1424              		@ sp needed
 1425              	.LVL137:
 1426 001e 10BD     		pop	{r4, pc}
 1427              	.L97:
 1428              		.align	2
 1429              	.L96:
 1430 0020 00000000 		.word	.LANCHOR0
 1431              		.cfi_endproc
 1432              	.LFE42:
 1433              		.size	PID_SetMode, .-PID_SetMode
 1434              		.section	.text.PID_SetDrive,"ax",%progbits
 1435              		.align	2
 1436              		.global	PID_SetDrive
 1437              		.code	16
 1438              		.thumb_func
 1439              		.type	PID_SetDrive, %function
 1440              	PID_SetDrive:
 1441              	.LFB43:
 895:main.c        **** 
 1442              		.loc 1 895 0
 1443              		.cfi_startproc
 1444              		@ args = 0, pretend = 0, frame = 0
 1445              		@ frame_needed = 0, uses_anonymous_args = 0
 1446              	.LVL138:
 1447 0000 10B5     		push	{r4, lr}
 1448              		.cfi_def_cfa_offset 8
 1449              		.cfi_offset 4, -8
 1450              		.cfi_offset 14, -4
 899:main.c        ****     
 1451              		.loc 1 899 0
 1452 0002 0549     		ldr	r1, .L99
 1453 0004 FFF7FEFF 		bl	__aeabi_fadd
 1454              	.LVL139:
 1455 0008 FC21     		movs	r1, #252
 1456 000a 8905     		lsls	r1, r1, #22
 1457 000c FFF7FEFF 		bl	__aeabi_fmul
 1458              	.LVL140:
 902:main.c        **** }
 1459              		.loc 1 902 0
 1460 0010 FFF7FEFF 		bl	PWM_Set
 1461              	.LVL141:
 903:main.c        **** 
 1462              		.loc 1 903 0
 1463              		@ sp needed
 1464 0014 10BD     		pop	{r4, pc}
 1465              	.L100:
 1466 0016 C046     		.align	2
 1467              	.L99:
 1468 0018 0000C842 		.word	1120403456
 1469              		.cfi_endproc
 1470              	.LFE43:
 1471              		.size	PID_SetDrive, .-PID_SetDrive
 1472              		.section	.text.PID_Task,"ax",%progbits
 1473              		.align	2
 1474              		.global	PID_Task
 1475              		.code	16
 1476              		.thumb_func
ARM GAS  C:\Users\PRICHA~1\AppData\Local\Temp\ccFt17DU.s 			page 54


 1477              		.type	PID_Task, %function
 1478              	PID_Task:
 1479              	.LFB44:
 917:main.c        ****     
 1480              		.loc 1 917 0
 1481              		.cfi_startproc
 1482              		@ args = 0, pretend = 0, frame = 0
 1483              		@ frame_needed = 0, uses_anonymous_args = 0
 1484              	.LVL142:
 1485 0000 F8B5     		push	{r3, r4, r5, r6, r7, lr}
 1486              		.cfi_def_cfa_offset 24
 1487              		.cfi_offset 3, -24
 1488              		.cfi_offset 4, -20
 1489              		.cfi_offset 5, -16
 1490              		.cfi_offset 6, -12
 1491              		.cfi_offset 7, -8
 1492              		.cfi_offset 14, -4
 1493              	.LVL143:
 927:main.c        ****     
 1494              		.loc 1 927 0
 1495 0002 0020     		movs	r0, #0
 1496              	.LVL144:
 1497 0004 FFF7FEFF 		bl	uxTaskGetStackHighWaterMark
 1498              	.LVL145:
 1499 0008 734B     		ldr	r3, .L116
 1500 000a 1860     		str	r0, [r3]
 933:main.c        ****     refKi = 0;
 1501              		.loc 1 933 0
 1502 000c 734D     		ldr	r5, .L116+4
 1503 000e 0024     		movs	r4, #0
 1504 0010 2C60     		str	r4, [r5]
 934:main.c        ****     refKd = 0;
 1505              		.loc 1 934 0
 1506 0012 734E     		ldr	r6, .L116+8
 1507 0014 3460     		str	r4, [r6]
 935:main.c        ****     
 1508              		.loc 1 935 0
 1509 0016 734F     		ldr	r7, .L116+12
 1510 0018 3C60     		str	r4, [r7]
 938:main.c        ****     PID_SetTunings(sleeptime, refKp, refKi, refKd);    
 1511              		.loc 1 938 0
 1512 001a FFF7FEFF 		bl	PID_Initialize
 1513              	.LVL146:
 939:main.c        ****     PID_SetMode(PID_MANUAL);
 1514              		.loc 1 939 0
 1515 001e 3B68     		ldr	r3, [r7]
 1516 0020 3268     		ldr	r2, [r6]
 1517 0022 2968     		ldr	r1, [r5]
 1518 0024 0520     		movs	r0, #5
 1519 0026 FFF7FEFF 		bl	PID_SetTunings
 1520              	.LVL147:
 940:main.c        ****     
 1521              		.loc 1 940 0
 1522 002a 0020     		movs	r0, #0
 1523 002c FFF7FEFF 		bl	PID_SetMode
 1524              	.LVL148:
 943:main.c        ****     outMax_ITerm = 100;
ARM GAS  C:\Users\PRICHA~1\AppData\Local\Temp\ccFt17DU.s 			page 55


 1525              		.loc 1 943 0
 1526 0030 6D4B     		ldr	r3, .L116+16
 1527 0032 6E4A     		ldr	r2, .L116+20
 1528 0034 1360     		str	r3, [r2]
 944:main.c        **** 
 1529              		.loc 1 944 0
 1530 0036 6E4A     		ldr	r2, .L116+24
 1531 0038 1360     		str	r3, [r2]
 947:main.c        ****     pwmMax = PWM_JOG_NEUTRAL + pwmLimit;
 1532              		.loc 1 947 0
 1533 003a 6E49     		ldr	r1, .L116+28
 1534 003c 6E4A     		ldr	r2, .L116+32
 1535 003e 1160     		str	r1, [r2]
 948:main.c        ****     pwmMin = PWM_JOG_NEUTRAL - pwmLimit;    
 1536              		.loc 1 948 0
 1537 0040 6E4A     		ldr	r2, .L116+36
 1538 0042 1360     		str	r3, [r2]
 949:main.c        ****     
 1539              		.loc 1 949 0
 1540 0044 6E4B     		ldr	r3, .L116+40
 1541 0046 1C60     		str	r4, [r3]
 1542              	.LVL149:
 955:main.c        ****     PID_EffectiveSetpoint = 0;
 1543              		.loc 1 955 0
 1544 0048 0023     		movs	r3, #0
 1545 004a 6E4A     		ldr	r2, .L116+44
 1546 004c 1360     		str	r3, [r2]
 956:main.c        ****     PID_EffSetDelta = PID_EFFECTIVE_SETPOINT_DELTA_DEFAULT;
 1547              		.loc 1 956 0
 1548 004e 6E4A     		ldr	r2, .L116+48
 1549 0050 1360     		str	r3, [r2]
 957:main.c        ****     PID_Was_Enabled = false;
 1550              		.loc 1 957 0
 1551 0052 1921     		movs	r1, #25
 1552 0054 6D4A     		ldr	r2, .L116+52
 1553 0056 1170     		strb	r1, [r2]
 958:main.c        ****     PID_Enabled = false;
 1554              		.loc 1 958 0
 1555 0058 6D4A     		ldr	r2, .L116+56
 1556 005a 1370     		strb	r3, [r2]
 959:main.c        ****     
 1557              		.loc 1 959 0
 1558 005c 6D4A     		ldr	r2, .L116+60
 1559 005e 1370     		strb	r3, [r2]
 1560              	.LVL150:
 1561              	.L115:
 963:main.c        ****               
 1562              		.loc 1 963 0
 1563 0060 0120     		movs	r0, #1
 1564 0062 FFF7FEFF 		bl	PROBE_Write
 1565              	.LVL151:
 969:main.c        ****         /* ------------------------------------------------------------------------------------ */
 1566              		.loc 1 969 0
 1567 0066 8020     		movs	r0, #128
 1568 0068 0001     		lsls	r0, r0, #4
 1569 006a FFF7FEFF 		bl	CySysWdtResetCounters
 1570              	.LVL152:
ARM GAS  C:\Users\PRICHA~1\AppData\Local\Temp\ccFt17DU.s 			page 56


 977:main.c        ****         if ( (now > (LastMessageTimeTick + MAX_LAST_MESSAGE_TIME_TICKS)) ||
 1571              		.loc 1 977 0
 1572 006e FFF7FEFF 		bl	xTaskGetTickCount
 1573              	.LVL153:
 1574 0072 0400     		movs	r4, r0
 1575              	.LVL154:
 978:main.c        ****              (now < LastMessageTimeTick) ) {
 1576              		.loc 1 978 0
 1577 0074 684B     		ldr	r3, .L116+64
 1578 0076 1B68     		ldr	r3, [r3]
 1579 0078 FA22     		movs	r2, #250
 1580 007a 9200     		lsls	r2, r2, #2
 1581 007c 9A18     		adds	r2, r3, r2
 1582 007e 9042     		cmp	r0, r2
 1583 0080 01D8     		bhi	.L102
 978:main.c        ****              (now < LastMessageTimeTick) ) {
 1584              		.loc 1 978 0 is_stmt 0 discriminator 1
 1585 0082 9842     		cmp	r0, r3
 1586 0084 08D2     		bcs	.L103
 1587              	.L102:
 982:main.c        ****             PID_Enabled = false;
 1588              		.loc 1 982 0 is_stmt 1
 1589 0086 5B48     		ldr	r0, .L116+28
 1590              	.LVL155:
 1591 0088 FFF7FEFF 		bl	PWM_Set
 1592              	.LVL156:
 983:main.c        ****             
 1593              		.loc 1 983 0
 1594 008c 0023     		movs	r3, #0
 1595 008e 614A     		ldr	r2, .L116+60
 1596 0090 1370     		strb	r3, [r2]
 987:main.c        **** 
 1597              		.loc 1 987 0
 1598 0092 624A     		ldr	r2, .L116+68
 1599 0094 1370     		strb	r3, [r2]
 1600 0096 92E0     		b	.L104
 1601              	.LVL157:
 1602              	.L103:
 990:main.c        ****             
 1603              		.loc 1 990 0
 1604 0098 614B     		ldr	r3, .L116+72
 1605 009a 1B78     		ldrb	r3, [r3]
 1606 009c 022B     		cmp	r3, #2
 1607 009e 00D0     		beq	.LCB1423
 1608 00a0 8DE0     		b	.L104	@long jump
 1609              	.LCB1423:
 994:main.c        ****             INDEX_OUT_SetDriveMode(INDEX_OUT_DM_STRONG); 
 1610              		.loc 1 994 0
 1611 00a2 0620     		movs	r0, #6
 1612              	.LVL158:
 1613 00a4 FFF7FEFF 		bl	HOME_OUT_SetDriveMode
 1614              	.LVL159:
 995:main.c        ****         
 1615              		.loc 1 995 0
 1616 00a8 0620     		movs	r0, #6
 1617 00aa FFF7FEFF 		bl	INDEX_OUT_SetDriveMode
 1618              	.LVL160:
ARM GAS  C:\Users\PRICHA~1\AppData\Local\Temp\ccFt17DU.s 			page 57


 998:main.c        ****                 
 1619              		.loc 1 998 0
 1620 00ae 594B     		ldr	r3, .L116+60
 1621 00b0 1B78     		ldrb	r3, [r3]
 1622 00b2 002B     		cmp	r3, #0
 1623 00b4 3BD1     		bne	.L105
1002:main.c        ****                     
 1624              		.loc 1 1002 0
 1625 00b6 594B     		ldr	r3, .L116+68
 1626 00b8 1A78     		ldrb	r2, [r3]
 1627 00ba 52B2     		sxtb	r2, r2
 1628 00bc 594B     		ldr	r3, .L116+76
 1629 00be 1B78     		ldrb	r3, [r3]
 1630 00c0 5BB2     		sxtb	r3, r3
 1631 00c2 9A42     		cmp	r2, r3
 1632 00c4 0FD0     		beq	.L106
1002:main.c        ****                     
 1633              		.loc 1 1002 0 is_stmt 0 discriminator 1
 1634 00c6 554B     		ldr	r3, .L116+68
 1635 00c8 1B78     		ldrb	r3, [r3]
 1636 00ca 002B     		cmp	r3, #0
 1637 00cc 0BD0     		beq	.L106
1005:main.c        ****                     
 1638              		.loc 1 1005 0 is_stmt 1
 1639 00ce 534B     		ldr	r3, .L116+68
 1640 00d0 1B78     		ldrb	r3, [r3]
 1641 00d2 5BB2     		sxtb	r3, r3
 1642 00d4 534A     		ldr	r2, .L116+76
 1643 00d6 1370     		strb	r3, [r2]
1008:main.c        ****                     
 1644              		.loc 1 1008 0
 1645 00d8 FFF7FEFF 		bl	GetPosition
 1646              	.LVL161:
 1647 00dc 524B     		ldr	r3, .L116+80
 1648 00de 1860     		str	r0, [r3]
1011:main.c        ****                 }                
 1649              		.loc 1 1011 0
 1650 00e0 0020     		movs	r0, #0
 1651 00e2 FFF7FEFF 		bl	Index_Counter_1_WriteCounter
 1652              	.LVL162:
 1653              	.L106:
1015:main.c        **** 
 1654              		.loc 1 1015 0
 1655 00e6 4D4D     		ldr	r5, .L116+68
 1656 00e8 2878     		ldrb	r0, [r5]
 1657 00ea 40B2     		sxtb	r0, r0
 1658 00ec 3230     		adds	r0, r0, #50
 1659 00ee FFF7FEFF 		bl	__aeabi_i2f
 1660              	.LVL163:
 1661 00f2 FFF7FEFF 		bl	PWM_Set
 1662              	.LVL164:
1018:main.c        ****                 
 1663              		.loc 1 1018 0
 1664 00f6 2B78     		ldrb	r3, [r5]
 1665 00f8 002B     		cmp	r3, #0
 1666 00fa 18D0     		beq	.L105
1022:main.c        ****                     DeltaPosition = labs( CurrentPosition - LastPosition );
ARM GAS  C:\Users\PRICHA~1\AppData\Local\Temp\ccFt17DU.s 			page 58


 1667              		.loc 1 1022 0
 1668 00fc FFF7FEFF 		bl	GetPosition
 1669              	.LVL165:
1023:main.c        ****                     CurrentIndexCount = Index_Counter_1_ReadCounter();
 1670              		.loc 1 1023 0
 1671 0100 494B     		ldr	r3, .L116+80
 1672 0102 1B68     		ldr	r3, [r3]
 1673 0104 C01A     		subs	r0, r0, r3
 1674              	.LVL166:
 1675 0106 C317     		asrs	r3, r0, #31
 1676 0108 C518     		adds	r5, r0, r3
 1677 010a 5D40     		eors	r5, r3
 1678              	.LVL167:
1024:main.c        ****                     
 1679              		.loc 1 1024 0
 1680 010c FFF7FEFF 		bl	Index_Counter_1_ReadCounter
 1681              	.LVL168:
 1682 0110 061E     		subs	r6, r0, #0
 1683              	.LVL169:
1027:main.c        ****                         if (DeltaPosition > 2*ENCODER_COUNTS_PER_INDEX) 
 1684              		.loc 1 1027 0
 1685 0112 05D1     		bne	.L107
1028:main.c        ****                             AssertFault(fsIndex);        
 1686              		.loc 1 1028 0
 1687 0114 454B     		ldr	r3, .L116+84
 1688 0116 9D42     		cmp	r5, r3
 1689 0118 02DD     		ble	.L107
1029:main.c        ****                     
 1690              		.loc 1 1029 0
 1691 011a 0420     		movs	r0, #4
 1692              	.LVL170:
 1693 011c FFF7FEFF 		bl	AssertFault
 1694              	.LVL171:
 1695              	.L107:
1032:main.c        ****                         AssertFault(fsEncoder);
 1696              		.loc 1 1032 0
 1697 0120 002E     		cmp	r6, #0
 1698 0122 04D0     		beq	.L105
1032:main.c        ****                         AssertFault(fsEncoder);
 1699              		.loc 1 1032 0 is_stmt 0 discriminator 1
 1700 0124 012D     		cmp	r5, #1
 1701 0126 02DC     		bgt	.L105
1033:main.c        ****                 }
 1702              		.loc 1 1033 0 is_stmt 1
 1703 0128 0220     		movs	r0, #2
 1704 012a FFF7FEFF 		bl	AssertFault
 1705              	.LVL172:
 1706              	.L105:
1039:main.c        ****                 PID_SetMode(PID_AUTOMATIC);
 1707              		.loc 1 1039 0
 1708 012e 384B     		ldr	r3, .L116+56
 1709 0130 1B78     		ldrb	r3, [r3]
 1710 0132 002B     		cmp	r3, #0
 1711 0134 07D1     		bne	.L108
1039:main.c        ****                 PID_SetMode(PID_AUTOMATIC);
 1712              		.loc 1 1039 0 is_stmt 0 discriminator 1
 1713 0136 374A     		ldr	r2, .L116+60
ARM GAS  C:\Users\PRICHA~1\AppData\Local\Temp\ccFt17DU.s 			page 59


 1714 0138 1278     		ldrb	r2, [r2]
 1715 013a 002A     		cmp	r2, #0
 1716 013c 03D0     		beq	.L108
1040:main.c        ****             } else if (!PID_Enabled && PID_Was_Enabled) {
 1717              		.loc 1 1040 0 is_stmt 1
 1718 013e 0120     		movs	r0, #1
 1719 0140 FFF7FEFF 		bl	PID_SetMode
 1720              	.LVL173:
 1721 0144 08E0     		b	.L109
 1722              	.L108:
1041:main.c        ****                 PID_SetMode(PID_MANUAL);                
 1723              		.loc 1 1041 0
 1724 0146 334A     		ldr	r2, .L116+60
 1725 0148 1278     		ldrb	r2, [r2]
 1726 014a 002A     		cmp	r2, #0
 1727 014c 04D1     		bne	.L109
1041:main.c        ****                 PID_SetMode(PID_MANUAL);                
 1728              		.loc 1 1041 0 is_stmt 0 discriminator 1
 1729 014e 002B     		cmp	r3, #0
 1730 0150 02D0     		beq	.L109
1042:main.c        ****             } else {
 1731              		.loc 1 1042 0 is_stmt 1
 1732 0152 0020     		movs	r0, #0
 1733 0154 FFF7FEFF 		bl	PID_SetMode
 1734              	.LVL174:
 1735              	.L109:
1048:main.c        ****             
 1736              		.loc 1 1048 0
 1737 0158 2E4B     		ldr	r3, .L116+60
 1738 015a 1B78     		ldrb	r3, [r3]
 1739 015c 2C4A     		ldr	r2, .L116+56
 1740 015e 1370     		strb	r3, [r2]
1063:main.c        ****                 
 1741              		.loc 1 1063 0
 1742 0160 002B     		cmp	r3, #0
 1743 0162 29D0     		beq	.L110
1065:main.c        ****                     PID_EffectiveSetpoint = PID_Setpoint;
 1744              		.loc 1 1065 0
 1745 0164 294B     		ldr	r3, .L116+52
 1746 0166 1B78     		ldrb	r3, [r3]
 1747 0168 002B     		cmp	r3, #0
 1748 016a 04D1     		bne	.L111
1066:main.c        ****                 } else if ( labs(PID_EffectiveSetpoint - PID_Setpoint) <= (2 * PID_EffSetDelta) ) {
 1749              		.loc 1 1066 0
 1750 016c 254B     		ldr	r3, .L116+44
 1751 016e 1A68     		ldr	r2, [r3]
 1752 0170 254B     		ldr	r3, .L116+48
 1753 0172 1A60     		str	r2, [r3]
 1754 0174 16E0     		b	.L112
 1755              	.L111:
1067:main.c        ****                     PID_EffectiveSetpoint = PID_Setpoint;                                          
 1756              		.loc 1 1067 0
 1757 0176 244A     		ldr	r2, .L116+48
 1758 0178 1168     		ldr	r1, [r2]
 1759 017a 224A     		ldr	r2, .L116+44
 1760 017c 1068     		ldr	r0, [r2]
 1761 017e 0A1A     		subs	r2, r1, r0
ARM GAS  C:\Users\PRICHA~1\AppData\Local\Temp\ccFt17DU.s 			page 60


 1762 0180 D517     		asrs	r5, r2, #31
 1763 0182 5219     		adds	r2, r2, r5
 1764 0184 6A40     		eors	r2, r5
 1765 0186 5D00     		lsls	r5, r3, #1
 1766 0188 AA42     		cmp	r2, r5
 1767 018a 02DC     		bgt	.L113
1068:main.c        ****                 } else if (PID_Setpoint > PID_EffectiveSetpoint) {
 1768              		.loc 1 1068 0
 1769 018c 1E4B     		ldr	r3, .L116+48
 1770 018e 1860     		str	r0, [r3]
 1771 0190 08E0     		b	.L112
 1772              	.L113:
1069:main.c        ****                     PID_EffectiveSetpoint = (PID_EffectiveSetpoint + PID_EffSetDelta);
 1773              		.loc 1 1069 0
 1774 0192 8142     		cmp	r1, r0
 1775 0194 03DA     		bge	.L114
1070:main.c        ****                 } else {
 1776              		.loc 1 1070 0
 1777 0196 CB18     		adds	r3, r1, r3
 1778 0198 1B4A     		ldr	r2, .L116+48
 1779 019a 1360     		str	r3, [r2]
 1780 019c 02E0     		b	.L112
 1781              	.L114:
1072:main.c        ****                 }
 1782              		.loc 1 1072 0
 1783 019e CB1A     		subs	r3, r1, r3
 1784 01a0 194A     		ldr	r2, .L116+48
 1785 01a2 1360     		str	r3, [r2]
 1786              	.L112:
1076:main.c        ****             
 1787              		.loc 1 1076 0
 1788 01a4 184B     		ldr	r3, .L116+48
 1789 01a6 1968     		ldr	r1, [r3]
 1790 01a8 2000     		movs	r0, r4
 1791 01aa FFF7FEFF 		bl	PID_Compute
 1792              	.LVL175:
1079:main.c        ****                 
 1793              		.loc 1 1079 0
 1794 01ae 204B     		ldr	r3, .L116+88
 1795 01b0 1860     		str	r0, [r3]
1082:main.c        ****                 
 1796              		.loc 1 1082 0
 1797 01b2 FFF7FEFF 		bl	PID_SetDrive
 1798              	.LVL176:
 1799 01b6 02E0     		b	.L104
 1800              	.L110:
1086:main.c        ****             }
 1801              		.loc 1 1086 0
 1802 01b8 0022     		movs	r2, #0
 1803 01ba 1D4B     		ldr	r3, .L116+88
 1804 01bc 1A60     		str	r2, [r3]
 1805              	.L104:
1091:main.c        ****         
 1806              		.loc 1 1091 0
 1807 01be 0020     		movs	r0, #0
 1808 01c0 FFF7FEFF 		bl	PROBE_Write
 1809              	.LVL177:
ARM GAS  C:\Users\PRICHA~1\AppData\Local\Temp\ccFt17DU.s 			page 61


1094:main.c        **** 
 1810              		.loc 1 1094 0
 1811 01c4 0520     		movs	r0, #5
 1812 01c6 FFF7FEFF 		bl	vTaskDelay
 1813              	.LVL178:
1097:main.c        ****     }
 1814              		.loc 1 1097 0
 1815 01ca 0020     		movs	r0, #0
 1816 01cc FFF7FEFF 		bl	uxTaskGetStackHighWaterMark
 1817              	.LVL179:
 1818 01d0 014B     		ldr	r3, .L116
 1819 01d2 1860     		str	r0, [r3]
1098:main.c        ****    
 1820              		.loc 1 1098 0
 1821 01d4 44E7     		b	.L115
 1822              	.L117:
 1823 01d6 C046     		.align	2
 1824              	.L116:
 1825 01d8 00000000 		.word	uxHighWaterMark_PID
 1826 01dc 00000000 		.word	refKp
 1827 01e0 00000000 		.word	refKi
 1828 01e4 00000000 		.word	refKd
 1829 01e8 0000C842 		.word	1120403456
 1830 01ec 00000000 		.word	outMax_Total
 1831 01f0 00000000 		.word	outMax_ITerm
 1832 01f4 00004842 		.word	1112014848
 1833 01f8 00000000 		.word	pwmLimit
 1834 01fc 00000000 		.word	pwmMax
 1835 0200 00000000 		.word	pwmMin
 1836 0204 00000000 		.word	PID_Setpoint
 1837 0208 00000000 		.word	PID_EffectiveSetpoint
 1838 020c 00000000 		.word	PID_EffSetDelta
 1839 0210 00000000 		.word	PID_Was_Enabled
 1840 0214 00000000 		.word	PID_Enabled
 1841 0218 00000000 		.word	LastMessageTimeTick
 1842 021c 00000000 		.word	Jog
 1843 0220 00000000 		.word	ConfigState
 1844 0224 00000000 		.word	LastJog
 1845 0228 00000000 		.word	LastPosition
 1846 022c 204E0000 		.word	20000
 1847 0230 00000000 		.word	PWM
 1848              		.cfi_endproc
 1849              	.LFE44:
 1850              		.size	PID_Task, .-PID_Task
 1851              		.section	.text.main,"ax",%progbits
 1852              		.align	2
 1853              		.global	main
 1854              		.code	16
 1855              		.thumb_func
 1856              		.type	main, %function
 1857              	main:
 1858              	.LFB45:
1113:main.c        ****     
 1859              		.loc 1 1113 0
 1860              		.cfi_startproc
 1861              		@ args = 0, pretend = 0, frame = 0
 1862              		@ frame_needed = 0, uses_anonymous_args = 0
ARM GAS  C:\Users\PRICHA~1\AppData\Local\Temp\ccFt17DU.s 			page 62


 1863 0000 30B5     		push	{r4, r5, lr}
 1864              		.cfi_def_cfa_offset 12
 1865              		.cfi_offset 4, -12
 1866              		.cfi_offset 5, -8
 1867              		.cfi_offset 14, -4
 1868 0002 83B0     		sub	sp, sp, #12
 1869              		.cfi_def_cfa_offset 24
1116:main.c        **** 
 1870              		.loc 1 1116 0
 1871 0004 FFF7FEFF 		bl	setupFreeRTOS
 1872              	.LVL180:
1124:main.c        ****     INDEX_OUT_SetDriveMode(INDEX_OUT_DM_DIG_HIZ); 
 1873              		.loc 1 1124 0
 1874 0008 0120     		movs	r0, #1
 1875 000a FFF7FEFF 		bl	HOME_OUT_SetDriveMode
 1876              	.LVL181:
1125:main.c        **** 
 1877              		.loc 1 1125 0
 1878 000e 0120     		movs	r0, #1
 1879 0010 FFF7FEFF 		bl	INDEX_OUT_SetDriveMode
 1880              	.LVL182:
1131:main.c        ****         PID_Task,       /* Task function */
 1881              		.loc 1 1131 0
 1882 0014 0024     		movs	r4, #0
 1883 0016 0194     		str	r4, [sp, #4]
 1884 0018 0323     		movs	r3, #3
 1885 001a 0093     		str	r3, [sp]
 1886 001c 0023     		movs	r3, #0
 1887 001e 4022     		movs	r2, #64
 1888 0020 3549     		ldr	r1, .L121
 1889 0022 3648     		ldr	r0, .L121+4
 1890 0024 FFF7FEFF 		bl	xTaskCreate
 1891              	.LVL183:
1139:main.c        ****         Comm_Task,       /* Task function */
 1892              		.loc 1 1139 0
 1893 0028 0194     		str	r4, [sp, #4]
 1894 002a 0223     		movs	r3, #2
 1895 002c 0093     		str	r3, [sp]
 1896 002e 0023     		movs	r3, #0
 1897 0030 6422     		movs	r2, #100
 1898 0032 3349     		ldr	r1, .L121+8
 1899 0034 3348     		ldr	r0, .L121+12
 1900 0036 FFF7FEFF 		bl	xTaskCreate
 1901              	.LVL184:
1147:main.c        ****         Current_Read_Task, /* Task function */
 1902              		.loc 1 1147 0
 1903 003a 0194     		str	r4, [sp, #4]
 1904 003c 0123     		movs	r3, #1
 1905 003e 0093     		str	r3, [sp]
 1906 0040 0023     		movs	r3, #0
 1907 0042 4022     		movs	r2, #64
 1908 0044 3049     		ldr	r1, .L121+16
 1909 0046 3148     		ldr	r0, .L121+20
 1910 0048 FFF7FEFF 		bl	xTaskCreate
 1911              	.LVL185:
1158:main.c        **** 
 1912              		.loc 1 1158 0
ARM GAS  C:\Users\PRICHA~1\AppData\Local\Temp\ccFt17DU.s 			page 63


 1913 004c 0120     		movs	r0, #1
 1914 004e FFF7FEFF 		bl	xQueueCreateMutex
 1915              	.LVL186:
 1916 0052 2F4B     		ldr	r3, .L121+24
 1917 0054 1860     		str	r0, [r3]
1161:main.c        ****         s = 1;
 1918              		.loc 1 1161 0
 1919 0056 0028     		cmp	r0, #0
 1920 0058 0BD1     		bne	.L119
 1921 005a 0134     		adds	r4, r4, #1
 1922              	.L120:
 1923              	.LVL187:
1165:main.c        ****             LED_Write(s); 
 1924              		.loc 1 1165 0 discriminator 1
 1925 005c 6342     		rsbs	r3, r4, #0
 1926 005e 5C41     		adcs	r4, r4, r3
 1927              	.LVL188:
 1928 0060 E4B2     		uxtb	r4, r4
 1929              	.LVL189:
1166:main.c        ****             CyDelay(1000u);                    
 1930              		.loc 1 1166 0 discriminator 1
 1931 0062 2000     		movs	r0, r4
 1932 0064 FFF7FEFF 		bl	LED_Write
 1933              	.LVL190:
1167:main.c        ****         }
 1934              		.loc 1 1167 0 discriminator 1
 1935 0068 FA20     		movs	r0, #250
 1936 006a 8000     		lsls	r0, r0, #2
 1937 006c FFF7FEFF 		bl	CyDelay
 1938              	.LVL191:
 1939 0070 F4E7     		b	.L120
 1940              	.LVL192:
 1941              	.L119:
1177:main.c        ****     isr_rst_encoder_StartEx(RSTIsrHandler);
 1942              		.loc 1 1177 0
 1943 0072 2848     		ldr	r0, .L121+28
 1944 0074 FFF7FEFF 		bl	isr_home_StartEx
 1945              	.LVL193:
1178:main.c        ****     
 1946              		.loc 1 1178 0
 1947 0078 2748     		ldr	r0, .L121+32
 1948 007a FFF7FEFF 		bl	isr_rst_encoder_StartEx
 1949              	.LVL194:
1181:main.c        ****     
 1950              		.loc 1 1181 0
 1951 007e 2748     		ldr	r0, .L121+36
 1952 0080 FFF7FEFF 		bl	isr_spi_ss_StartEx
 1953              	.LVL195:
1184:main.c        ****     isr_rst_encoder_SetPriority(HIGHER_PRIORITY);
 1954              		.loc 1 1184 0
 1955 0084 0320     		movs	r0, #3
 1956 0086 FFF7FEFF 		bl	isr_home_SetPriority
 1957              	.LVL196:
1185:main.c        ****     isr_spi_ss_SetPriority(DEFAULT_PRIORITY);
 1958              		.loc 1 1185 0
 1959 008a 0220     		movs	r0, #2
 1960 008c FFF7FEFF 		bl	isr_rst_encoder_SetPriority
ARM GAS  C:\Users\PRICHA~1\AppData\Local\Temp\ccFt17DU.s 			page 64


 1961              	.LVL197:
1186:main.c        **** 
 1962              		.loc 1 1186 0
 1963 0090 0320     		movs	r0, #3
 1964 0092 FFF7FEFF 		bl	isr_spi_ss_SetPriority
 1965              	.LVL198:
1189:main.c        ****     
 1966              		.loc 1 1189 0
 1967              		.syntax divided
 1968              	@ 1189 "main.c" 1
 1969 0096 62B6     		CPSIE   i
 1970              	@ 0 "" 2
1220:main.c        ****     CyDelay(100u);
 1971              		.loc 1 1220 0
 1972              		.thumb
 1973              		.syntax unified
 1974 0098 FFF7FEFF 		bl	I2C_Start
 1975              	.LVL199:
1221:main.c        ****     SPI_1_Start();
 1976              		.loc 1 1221 0
 1977 009c 6420     		movs	r0, #100
 1978 009e FFF7FEFF 		bl	CyDelay
 1979              	.LVL200:
1222:main.c        ****     
 1980              		.loc 1 1222 0
 1981 00a2 FFF7FEFF 		bl	SPI_1_Start
 1982              	.LVL201:
1226:main.c        ****     PWM_1_WritePeriod(PWM_15KHZ_PERIOD);
 1983              		.loc 1 1226 0
 1984 00a6 FFF7FEFF 		bl	PWM_1_Start
 1985              	.LVL202:
1227:main.c        ****     PWM_Set(PWM_IDLE);   
 1986              		.loc 1 1227 0
 1987 00aa C820     		movs	r0, #200
 1988 00ac C000     		lsls	r0, r0, #3
 1989 00ae FFF7FEFF 		bl	PWM_1_WritePeriod
 1990              	.LVL203:
1228:main.c        ****     
 1991              		.loc 1 1228 0
 1992 00b2 1B48     		ldr	r0, .L121+40
 1993 00b4 FFF7FEFF 		bl	PWM_Set
 1994              	.LVL204:
1231:main.c        ****    
 1995              		.loc 1 1231 0
 1996 00b8 0024     		movs	r4, #0
 1997 00ba 1A4B     		ldr	r3, .L121+44
 1998 00bc 1C70     		strb	r4, [r3]
1234:main.c        ****     Counter_1_WriteCounter(ENCODER_MAX);  // Set the encoder initially to mid range
 1999              		.loc 1 1234 0
 2000 00be FFF7FEFF 		bl	Counter_1_Start
 2001              	.LVL205:
1235:main.c        ****     LastPosition = ENCODER_MAX;
 2002              		.loc 1 1235 0
 2003 00c2 194D     		ldr	r5, .L121+48
 2004 00c4 2800     		movs	r0, r5
 2005 00c6 FFF7FEFF 		bl	Counter_1_WriteCounter
 2006              	.LVL206:
ARM GAS  C:\Users\PRICHA~1\AppData\Local\Temp\ccFt17DU.s 			page 65


1236:main.c        ****     
 2007              		.loc 1 1236 0
 2008 00ca 184B     		ldr	r3, .L121+52
 2009 00cc 1D60     		str	r5, [r3]
1239:main.c        ****     Index_Counter_1_WriteCounter(0);
 2010              		.loc 1 1239 0
 2011 00ce FFF7FEFF 		bl	Index_Counter_1_Start
 2012              	.LVL207:
1240:main.c        ****      
 2013              		.loc 1 1240 0
 2014 00d2 0020     		movs	r0, #0
 2015 00d4 FFF7FEFF 		bl	Index_Counter_1_WriteCounter
 2016              	.LVL208:
1243:main.c        ****     
 2017              		.loc 1 1243 0
 2018 00d8 FFF7FEFF 		bl	xTaskGetTickCount
 2019              	.LVL209:
 2020 00dc 144B     		ldr	r3, .L121+56
 2021 00de 1860     		str	r0, [r3]
1246:main.c        ****     ConfigSequence = 0;
 2022              		.loc 1 1246 0
 2023 00e0 0122     		movs	r2, #1
 2024 00e2 144B     		ldr	r3, .L121+60
 2025 00e4 1A70     		strb	r2, [r3]
1247:main.c        ****     ChecksumErrors = 0;
 2026              		.loc 1 1247 0
 2027 00e6 144B     		ldr	r3, .L121+64
 2028 00e8 1C70     		strb	r4, [r3]
1248:main.c        ****    
 2029              		.loc 1 1248 0
 2030 00ea 144B     		ldr	r3, .L121+68
 2031 00ec 1C80     		strh	r4, [r3]
1253:main.c        ****    
 2032              		.loc 1 1253 0
 2033 00ee FFF7FEFF 		bl	vTaskStartScheduler
 2034              	.LVL210:
1259:main.c        **** 
 2035              		.loc 1 1259 0
 2036 00f2 0120     		movs	r0, #1
 2037 00f4 03B0     		add	sp, sp, #12
 2038              		@ sp needed
 2039 00f6 30BD     		pop	{r4, r5, pc}
 2040              	.L122:
 2041              		.align	2
 2042              	.L121:
 2043 00f8 00000000 		.word	.LC87
 2044 00fc 00000000 		.word	PID_Task
 2045 0100 04000000 		.word	.LC90
 2046 0104 00000000 		.word	Comm_Task
 2047 0108 14000000 		.word	.LC93
 2048 010c 00000000 		.word	Current_Read_Task
 2049 0110 00000000 		.word	Lock
 2050 0114 00000000 		.word	HomeIsrHandler
 2051 0118 00000000 		.word	RSTIsrHandler
 2052 011c 00000000 		.word	SPI_SS_IsrHandler
 2053 0120 00004842 		.word	1112014848
 2054 0124 00000000 		.word	Jog
ARM GAS  C:\Users\PRICHA~1\AppData\Local\Temp\ccFt17DU.s 			page 66


 2055 0128 FFFFFF00 		.word	16777215
 2056 012c 00000000 		.word	LastPosition
 2057 0130 00000000 		.word	LastMessageTimeTick
 2058 0134 00000000 		.word	ConfigState
 2059 0138 00000000 		.word	ConfigSequence
 2060 013c 00000000 		.word	ChecksumErrors
 2061              		.cfi_endproc
 2062              	.LFE45:
 2063              		.size	main, .-main
 2064              		.comm	txMessageState,1,1
 2065              		.comm	txMessage,30,4
 2066              		.comm	rxMessage,30,4
 2067              		.comm	LastMessageTimeTick,4,4
 2068              		.comm	Lock,4,4
 2069              		.comm	uxHighWaterMark_Comm,4,4
 2070              		.comm	uxHighWaterMark_Current,4,4
 2071              		.comm	uxHighWaterMark_PID,4,4
 2072              		.comm	CurrentI2Cinbuf,20,4
 2073              		.comm	PWM,4,4
 2074              		.comm	Current,2,2
 2075              		.comm	ChecksumErrors,2,2
 2076              		.comm	ConfigSequence,1,1
 2077              		.comm	FaultState,1,1
 2078              		.comm	ConfigState,1,1
 2079              		.comm	pwmMin,4,4
 2080              		.comm	pwmMax,4,4
 2081              		.comm	pwmLimit,4,4
 2082              		.comm	outMax_ITerm,4,4
 2083              		.comm	outMax_Total,4,4
 2084              		.global	refSampleTime
 2085              		.comm	kd,4,4
 2086              		.comm	ki,4,4
 2087              		.comm	kp,4,4
 2088              		.comm	refKd,4,4
 2089              		.comm	refKi,4,4
 2090              		.comm	refKp,4,4
 2091              		.comm	LastPosition,4,4
 2092              		.comm	Position,4,4
 2093              		.comm	ITerm,4,4
 2094              		.comm	Output,4,4
 2095              		.comm	lastTime,4,4
 2096              		.comm	PID_EffSetDelta,1,1
 2097              		.comm	PID_EffectiveSetpoint,4,4
 2098              		.comm	PID_Setpoint,4,4
 2099              		.comm	PID_Was_Enabled,1,1
 2100              		.comm	PID_Enabled,1,1
 2101              		.comm	LastJog,1,1
 2102              		.comm	Jog,1,1
 2103              		.global	inAuto
 2104              		.data
 2105              		.align	2
 2106              		.set	.LANCHOR1,. + 0
 2107              		.type	refSampleTime, %object
 2108              		.size	refSampleTime, 4
 2109              	refSampleTime:
 2110 0000 05000000 		.word	5
 2111              		.section	.rodata.str1.4,"aMS",%progbits,1
ARM GAS  C:\Users\PRICHA~1\AppData\Local\Temp\ccFt17DU.s 			page 67


 2112              		.align	2
 2113              	.LC87:
 2114 0000 50494400 		.ascii	"PID\000"
 2115              	.LC90:
 2116 0004 436F6D6D 		.ascii	"Communications\000"
 2116      756E6963 
 2116      6174696F 
 2116      6E7300
 2117 0013 00       		.space	1
 2118              	.LC93:
 2119 0014 52656164 		.ascii	"Read Current\000"
 2119      20437572 
 2119      72656E74 
 2119      00
 2120              		.bss
 2121              		.align	2
 2122              		.set	.LANCHOR0,. + 0
 2123              		.type	RawPosition.7597, %object
 2124              		.size	RawPosition.7597, 4
 2125              	RawPosition.7597:
 2126 0000 00000000 		.space	4
 2127              		.type	result.7598, %object
 2128              		.size	result.7598, 4
 2129              	result.7598:
 2130 0004 00000000 		.space	4
 2131              		.type	inAuto, %object
 2132              		.size	inAuto, 1
 2133              	inAuto:
 2134 0008 00       		.space	1
 2135              		.text
 2136              	.Letext0:
 2137              		.file 2 "c:\\program files (x86)\\cypress\\psoc creator\\4.2\\psoc creator\\import\\gnu\\arm\\5.4.
 2138              		.file 3 "c:\\program files (x86)\\cypress\\psoc creator\\4.2\\psoc creator\\import\\gnu\\arm\\5.4.
 2139              		.file 4 "Generated_Source\\PSoC4/cytypes.h"
 2140              		.file 5 ".\\FreeRTOS/portmacro.h"
 2141              		.file 6 ".\\FreeRTOS/queue.h"
 2142              		.file 7 ".\\FreeRTOS/semphr.h"
 2143              		.file 8 "Generated_Source\\PSoC4/isr_rst_encoder.h"
 2144              		.file 9 "Generated_Source\\PSoC4/Reset_Encoder.h"
 2145              		.file 10 "Generated_Source\\PSoC4/Counter_1.h"
 2146              		.file 11 "Generated_Source\\PSoC4/Index_Counter_1.h"
 2147              		.file 12 "Generated_Source\\PSoC4/isr_home.h"
 2148              		.file 13 "Generated_Source\\PSoC4/HOME_IN.h"
 2149              		.file 14 "Generated_Source\\PSoC4/spi_ss.h"
 2150              		.file 15 ".\\FreeRTOS/task.h"
 2151              		.file 16 "Generated_Source\\PSoC4/SPI_1_SPI_UART.h"
 2152              		.file 17 "Generated_Source\\PSoC4/CyLib.h"
 2153              		.file 18 "Generated_Source\\PSoC4/I2C_I2C.h"
 2154              		.file 19 "Generated_Source\\PSoC4/PWM_1.h"
 2155              		.file 20 "Generated_Source\\PSoC4/PROBE.h"
 2156              		.file 21 "Generated_Source\\PSoC4/CyLFClk.h"
 2157              		.file 22 "Generated_Source\\PSoC4/HOME_OUT.h"
 2158              		.file 23 "Generated_Source\\PSoC4/INDEX_OUT.h"
 2159              		.file 24 "Generated_Source\\PSoC4/LED.h"
 2160              		.file 25 "Generated_Source\\PSoC4/isr_spi_ss.h"
 2161              		.file 26 "Generated_Source\\PSoC4/I2C.h"
 2162              		.file 27 "Generated_Source\\PSoC4/SPI_1.h"
ARM GAS  C:\Users\PRICHA~1\AppData\Local\Temp\ccFt17DU.s 			page 68


 2163              		.file 28 "Generated_Source\\PSoC4/core_cm0_psoc4.h"
 2164              		.section	.debug_info,"",%progbits
 2165              	.Ldebug_info0:
 2166 0000 CA140000 		.4byte	0x14ca
 2167 0004 0400     		.2byte	0x4
 2168 0006 00000000 		.4byte	.Ldebug_abbrev0
 2169 000a 04       		.byte	0x4
 2170 000b 01       		.uleb128 0x1
 2171 000c BE020000 		.4byte	.LASF207
 2172 0010 0C       		.byte	0xc
 2173 0011 2C000000 		.4byte	.LASF208
 2174 0015 210B0000 		.4byte	.LASF209
 2175 0019 00000000 		.4byte	.Ldebug_ranges0+0
 2176 001d 00000000 		.4byte	0
 2177 0021 00000000 		.4byte	.Ldebug_line0
 2178 0025 02       		.uleb128 0x2
 2179 0026 04       		.byte	0x4
 2180 0027 04       		.byte	0x4
 2181 0028 BB010000 		.4byte	.LASF0
 2182 002c 03       		.uleb128 0x3
 2183 002d 04       		.byte	0x4
 2184 002e 05       		.byte	0x5
 2185 002f 696E7400 		.ascii	"int\000"
 2186 0033 02       		.uleb128 0x2
 2187 0034 04       		.byte	0x4
 2188 0035 07       		.byte	0x7
 2189 0036 8B000000 		.4byte	.LASF1
 2190 003a 02       		.uleb128 0x2
 2191 003b 08       		.byte	0x8
 2192 003c 05       		.byte	0x5
 2193 003d 8E050000 		.4byte	.LASF2
 2194 0041 02       		.uleb128 0x2
 2195 0042 08       		.byte	0x8
 2196 0043 04       		.byte	0x4
 2197 0044 C8060000 		.4byte	.LASF3
 2198 0048 02       		.uleb128 0x2
 2199 0049 01       		.byte	0x1
 2200 004a 06       		.byte	0x6
 2201 004b 270A0000 		.4byte	.LASF4
 2202 004f 04       		.uleb128 0x4
 2203 0050 50080000 		.4byte	.LASF9
 2204 0054 02       		.byte	0x2
 2205 0055 1D       		.byte	0x1d
 2206 0056 5A000000 		.4byte	0x5a
 2207 005a 02       		.uleb128 0x2
 2208 005b 01       		.byte	0x1
 2209 005c 08       		.byte	0x8
 2210 005d 44090000 		.4byte	.LASF5
 2211 0061 02       		.uleb128 0x2
 2212 0062 02       		.byte	0x2
 2213 0063 05       		.byte	0x5
 2214 0064 2A070000 		.4byte	.LASF6
 2215 0068 02       		.uleb128 0x2
 2216 0069 02       		.byte	0x2
 2217 006a 07       		.byte	0x7
 2218 006b 330A0000 		.4byte	.LASF7
 2219 006f 02       		.uleb128 0x2
ARM GAS  C:\Users\PRICHA~1\AppData\Local\Temp\ccFt17DU.s 			page 69


 2220 0070 04       		.byte	0x4
 2221 0071 05       		.byte	0x5
 2222 0072 72070000 		.4byte	.LASF8
 2223 0076 04       		.uleb128 0x4
 2224 0077 62090000 		.4byte	.LASF10
 2225 007b 02       		.byte	0x2
 2226 007c 41       		.byte	0x41
 2227 007d 81000000 		.4byte	0x81
 2228 0081 02       		.uleb128 0x2
 2229 0082 04       		.byte	0x4
 2230 0083 07       		.byte	0x7
 2231 0084 C7080000 		.4byte	.LASF11
 2232 0088 02       		.uleb128 0x2
 2233 0089 08       		.byte	0x8
 2234 008a 07       		.byte	0x7
 2235 008b 0D020000 		.4byte	.LASF12
 2236 008f 04       		.uleb128 0x4
 2237 0090 E4040000 		.4byte	.LASF13
 2238 0094 03       		.byte	0x3
 2239 0095 18       		.byte	0x18
 2240 0096 4F000000 		.4byte	0x4f
 2241 009a 04       		.uleb128 0x4
 2242 009b 7F010000 		.4byte	.LASF14
 2243 009f 03       		.byte	0x3
 2244 00a0 30       		.byte	0x30
 2245 00a1 76000000 		.4byte	0x76
 2246 00a5 05       		.uleb128 0x5
 2247 00a6 710A0000 		.4byte	.LASF15
 2248 00aa 04       		.byte	0x4
 2249 00ab E401     		.2byte	0x1e4
 2250 00ad 5A000000 		.4byte	0x5a
 2251 00b1 05       		.uleb128 0x5
 2252 00b2 B7040000 		.4byte	.LASF16
 2253 00b6 04       		.byte	0x4
 2254 00b7 E501     		.2byte	0x1e5
 2255 00b9 68000000 		.4byte	0x68
 2256 00bd 05       		.uleb128 0x5
 2257 00be 03060000 		.4byte	.LASF17
 2258 00c2 04       		.byte	0x4
 2259 00c3 E601     		.2byte	0x1e6
 2260 00c5 81000000 		.4byte	0x81
 2261 00c9 05       		.uleb128 0x5
 2262 00ca BE040000 		.4byte	.LASF18
 2263 00ce 04       		.byte	0x4
 2264 00cf E701     		.2byte	0x1e7
 2265 00d1 48000000 		.4byte	0x48
 2266 00d5 05       		.uleb128 0x5
 2267 00d6 B8000000 		.4byte	.LASF19
 2268 00da 04       		.byte	0x4
 2269 00db E801     		.2byte	0x1e8
 2270 00dd 61000000 		.4byte	0x61
 2271 00e1 05       		.uleb128 0x5
 2272 00e2 DD010000 		.4byte	.LASF20
 2273 00e6 04       		.byte	0x4
 2274 00e7 E901     		.2byte	0x1e9
 2275 00e9 6F000000 		.4byte	0x6f
 2276 00ed 02       		.uleb128 0x2
ARM GAS  C:\Users\PRICHA~1\AppData\Local\Temp\ccFt17DU.s 			page 70


 2277 00ee 08       		.byte	0x8
 2278 00ef 04       		.byte	0x4
 2279 00f0 770A0000 		.4byte	.LASF21
 2280 00f4 02       		.uleb128 0x2
 2281 00f5 01       		.byte	0x1
 2282 00f6 08       		.byte	0x8
 2283 00f7 67040000 		.4byte	.LASF22
 2284 00fb 06       		.uleb128 0x6
 2285 00fc A5000000 		.4byte	0xa5
 2286 0100 06       		.uleb128 0x6
 2287 0101 B1000000 		.4byte	0xb1
 2288 0105 05       		.uleb128 0x5
 2289 0106 D9060000 		.4byte	.LASF23
 2290 010a 04       		.byte	0x4
 2291 010b 9002     		.2byte	0x290
 2292 010d 11010000 		.4byte	0x111
 2293 0111 06       		.uleb128 0x6
 2294 0112 BD000000 		.4byte	0xbd
 2295 0116 05       		.uleb128 0x5
 2296 0117 E1050000 		.4byte	.LASF24
 2297 011b 04       		.byte	0x4
 2298 011c A002     		.2byte	0x2a0
 2299 011e 22010000 		.4byte	0x122
 2300 0122 07       		.uleb128 0x7
 2301 0123 04       		.byte	0x4
 2302 0124 28010000 		.4byte	0x128
 2303 0128 08       		.uleb128 0x8
 2304 0129 02       		.uleb128 0x2
 2305 012a 04       		.byte	0x4
 2306 012b 07       		.byte	0x7
 2307 012c BE080000 		.4byte	.LASF25
 2308 0130 09       		.uleb128 0x9
 2309 0131 04       		.byte	0x4
 2310 0132 0A       		.uleb128 0xa
 2311 0133 D4060000 		.4byte	.LASF210
 2312 0137 01       		.byte	0x1
 2313 0138 48000000 		.4byte	0x48
 2314 013c 1C       		.byte	0x1c
 2315 013d 17       		.byte	0x17
 2316 013e 61010000 		.4byte	0x161
 2317 0142 0B       		.uleb128 0xb
 2318 0143 A3070000 		.4byte	.LASF26
 2319 0147 72       		.sleb128 -14
 2320 0148 0B       		.uleb128 0xb
 2321 0149 5A0A0000 		.4byte	.LASF27
 2322 014d 73       		.sleb128 -13
 2323 014e 0B       		.uleb128 0xb
 2324 014f 84090000 		.4byte	.LASF28
 2325 0153 7B       		.sleb128 -5
 2326 0154 0B       		.uleb128 0xb
 2327 0155 3E010000 		.4byte	.LASF29
 2328 0159 7E       		.sleb128 -2
 2329 015a 0B       		.uleb128 0xb
 2330 015b A2080000 		.4byte	.LASF30
 2331 015f 7F       		.sleb128 -1
 2332 0160 00       		.byte	0
 2333 0161 04       		.uleb128 0x4
ARM GAS  C:\Users\PRICHA~1\AppData\Local\Temp\ccFt17DU.s 			page 71


 2334 0162 A7050000 		.4byte	.LASF31
 2335 0166 05       		.byte	0x5
 2336 0167 38       		.byte	0x38
 2337 0168 6F000000 		.4byte	0x6f
 2338 016c 04       		.uleb128 0x4
 2339 016d 6C040000 		.4byte	.LASF32
 2340 0171 05       		.byte	0x5
 2341 0172 39       		.byte	0x39
 2342 0173 81000000 		.4byte	0x81
 2343 0177 04       		.uleb128 0x4
 2344 0178 9F060000 		.4byte	.LASF33
 2345 017c 05       		.byte	0x5
 2346 017d 3F       		.byte	0x3f
 2347 017e 9A000000 		.4byte	0x9a
 2348 0182 04       		.uleb128 0x4
 2349 0183 CA040000 		.4byte	.LASF34
 2350 0187 06       		.byte	0x6
 2351 0188 2E       		.byte	0x2e
 2352 0189 30010000 		.4byte	0x130
 2353 018d 04       		.uleb128 0x4
 2354 018e B7070000 		.4byte	.LASF35
 2355 0192 07       		.byte	0x7
 2356 0193 25       		.byte	0x25
 2357 0194 82010000 		.4byte	0x182
 2358 0198 06       		.uleb128 0x6
 2359 0199 6C010000 		.4byte	0x16c
 2360 019d 0C       		.uleb128 0xc
 2361 019e 01       		.byte	0x1
 2362 019f 5A000000 		.4byte	0x5a
 2363 01a3 01       		.byte	0x1
 2364 01a4 B7       		.byte	0xb7
 2365 01a5 C2010000 		.4byte	0x1c2
 2366 01a9 0D       		.uleb128 0xd
 2367 01aa DF060000 		.4byte	.LASF36
 2368 01ae 00       		.byte	0
 2369 01af 0D       		.uleb128 0xd
 2370 01b0 61000000 		.4byte	.LASF37
 2371 01b4 01       		.byte	0x1
 2372 01b5 0D       		.uleb128 0xd
 2373 01b6 5C010000 		.4byte	.LASF38
 2374 01ba 02       		.byte	0x2
 2375 01bb 0D       		.uleb128 0xd
 2376 01bc 7B070000 		.4byte	.LASF39
 2377 01c0 03       		.byte	0x3
 2378 01c1 00       		.byte	0
 2379 01c2 04       		.uleb128 0x4
 2380 01c3 AA060000 		.4byte	.LASF40
 2381 01c7 01       		.byte	0x1
 2382 01c8 BC       		.byte	0xbc
 2383 01c9 9D010000 		.4byte	0x19d
 2384 01cd 0C       		.uleb128 0xc
 2385 01ce 01       		.byte	0x1
 2386 01cf 5A000000 		.4byte	0x5a
 2387 01d3 01       		.byte	0x1
 2388 01d4 C1       		.byte	0xc1
 2389 01d5 10020000 		.4byte	0x210
 2390 01d9 0D       		.uleb128 0xd
ARM GAS  C:\Users\PRICHA~1\AppData\Local\Temp\ccFt17DU.s 			page 72


 2391 01da 0E050000 		.4byte	.LASF41
 2392 01de 00       		.byte	0
 2393 01df 0D       		.uleb128 0xd
 2394 01e0 83030000 		.4byte	.LASF42
 2395 01e4 01       		.byte	0x1
 2396 01e5 0D       		.uleb128 0xd
 2397 01e6 57000000 		.4byte	.LASF43
 2398 01ea 02       		.byte	0x2
 2399 01eb 0D       		.uleb128 0xd
 2400 01ec F3040000 		.4byte	.LASF44
 2401 01f0 04       		.byte	0x4
 2402 01f1 0D       		.uleb128 0xd
 2403 01f2 1C070000 		.4byte	.LASF45
 2404 01f6 08       		.byte	0x8
 2405 01f7 0D       		.uleb128 0xd
 2406 01f8 9C050000 		.4byte	.LASF46
 2407 01fc 10       		.byte	0x10
 2408 01fd 0D       		.uleb128 0xd
 2409 01fe 90090000 		.4byte	.LASF47
 2410 0202 20       		.byte	0x20
 2411 0203 0D       		.uleb128 0xd
 2412 0204 95090000 		.4byte	.LASF48
 2413 0208 40       		.byte	0x40
 2414 0209 0D       		.uleb128 0xd
 2415 020a 9A090000 		.4byte	.LASF49
 2416 020e 80       		.byte	0x80
 2417 020f 00       		.byte	0
 2418 0210 04       		.uleb128 0x4
 2419 0211 FD0A0000 		.4byte	.LASF50
 2420 0215 01       		.byte	0x1
 2421 0216 CB       		.byte	0xcb
 2422 0217 CD010000 		.4byte	0x1cd
 2423 021b 0C       		.uleb128 0xc
 2424 021c 01       		.byte	0x1
 2425 021d 5A000000 		.4byte	0x5a
 2426 0221 01       		.byte	0x1
 2427 0222 F0       		.byte	0xf0
 2428 0223 46020000 		.4byte	0x246
 2429 0227 0D       		.uleb128 0xd
 2430 0228 6D090000 		.4byte	.LASF51
 2431 022c 00       		.byte	0
 2432 022d 0D       		.uleb128 0xd
 2433 022e A90A0000 		.4byte	.LASF52
 2434 0232 01       		.byte	0x1
 2435 0233 0D       		.uleb128 0xd
 2436 0234 5A080000 		.4byte	.LASF53
 2437 0238 02       		.byte	0x2
 2438 0239 0D       		.uleb128 0xd
 2439 023a B2050000 		.4byte	.LASF54
 2440 023e 03       		.byte	0x3
 2441 023f 0D       		.uleb128 0xd
 2442 0240 92080000 		.4byte	.LASF55
 2443 0244 04       		.byte	0x4
 2444 0245 00       		.byte	0
 2445 0246 04       		.uleb128 0x4
 2446 0247 88010000 		.4byte	.LASF56
 2447 024b 01       		.byte	0x1
ARM GAS  C:\Users\PRICHA~1\AppData\Local\Temp\ccFt17DU.s 			page 73


 2448 024c F6       		.byte	0xf6
 2449 024d 1B020000 		.4byte	0x21b
 2450 0251 0E       		.uleb128 0xe
 2451 0252 03       		.byte	0x3
 2452 0253 01       		.byte	0x1
 2453 0254 FB       		.byte	0xfb
 2454 0255 7E020000 		.4byte	0x27e
 2455 0259 0F       		.uleb128 0xf
 2456 025a D4010000 		.4byte	.LASF57
 2457 025e 01       		.byte	0x1
 2458 025f FC       		.byte	0xfc
 2459 0260 A5000000 		.4byte	0xa5
 2460 0264 00       		.byte	0
 2461 0265 0F       		.uleb128 0xf
 2462 0266 FE050000 		.4byte	.LASF58
 2463 026a 01       		.byte	0x1
 2464 026b FD       		.byte	0xfd
 2465 026c A5000000 		.4byte	0xa5
 2466 0270 01       		.byte	0x1
 2467 0271 0F       		.uleb128 0xf
 2468 0272 C3040000 		.4byte	.LASF59
 2469 0276 01       		.byte	0x1
 2470 0277 FE       		.byte	0xfe
 2471 0278 A5000000 		.4byte	0xa5
 2472 027c 02       		.byte	0x2
 2473 027d 00       		.byte	0
 2474 027e 04       		.uleb128 0x4
 2475 027f 2E040000 		.4byte	.LASF60
 2476 0283 01       		.byte	0x1
 2477 0284 FF       		.byte	0xff
 2478 0285 51020000 		.4byte	0x251
 2479 0289 10       		.uleb128 0x10
 2480 028a 13       		.byte	0x13
 2481 028b 01       		.byte	0x1
 2482 028c 0201     		.2byte	0x102
 2483 028e 12030000 		.4byte	0x312
 2484 0292 11       		.uleb128 0x11
 2485 0293 D4010000 		.4byte	.LASF57
 2486 0297 01       		.byte	0x1
 2487 0298 0301     		.2byte	0x103
 2488 029a A5000000 		.4byte	0xa5
 2489 029e 00       		.byte	0
 2490 029f 11       		.uleb128 0x11
 2491 02a0 FE050000 		.4byte	.LASF58
 2492 02a4 01       		.byte	0x1
 2493 02a5 0401     		.2byte	0x104
 2494 02a7 A5000000 		.4byte	0xa5
 2495 02ab 01       		.byte	0x1
 2496 02ac 11       		.uleb128 0x11
 2497 02ad C3040000 		.4byte	.LASF59
 2498 02b1 01       		.byte	0x1
 2499 02b2 0501     		.2byte	0x105
 2500 02b4 A5000000 		.4byte	0xa5
 2501 02b8 02       		.byte	0x2
 2502 02b9 11       		.uleb128 0x11
 2503 02ba 05070000 		.4byte	.LASF61
 2504 02be 01       		.byte	0x1
ARM GAS  C:\Users\PRICHA~1\AppData\Local\Temp\ccFt17DU.s 			page 74


 2505 02bf 0601     		.2byte	0x106
 2506 02c1 A5000000 		.4byte	0xa5
 2507 02c5 03       		.byte	0x3
 2508 02c6 12       		.uleb128 0x12
 2509 02c7 4B7000   		.ascii	"Kp\000"
 2510 02ca 01       		.byte	0x1
 2511 02cb 0701     		.2byte	0x107
 2512 02cd 25000000 		.4byte	0x25
 2513 02d1 04       		.byte	0x4
 2514 02d2 12       		.uleb128 0x12
 2515 02d3 4B6900   		.ascii	"Ki\000"
 2516 02d6 01       		.byte	0x1
 2517 02d7 0801     		.2byte	0x108
 2518 02d9 25000000 		.4byte	0x25
 2519 02dd 08       		.byte	0x8
 2520 02de 12       		.uleb128 0x12
 2521 02df 4B6400   		.ascii	"Kd\000"
 2522 02e2 01       		.byte	0x1
 2523 02e3 0901     		.2byte	0x109
 2524 02e5 25000000 		.4byte	0x25
 2525 02e9 0C       		.byte	0xc
 2526 02ea 11       		.uleb128 0x11
 2527 02eb F6090000 		.4byte	.LASF62
 2528 02ef 01       		.byte	0x1
 2529 02f0 0A01     		.2byte	0x10a
 2530 02f2 A5000000 		.4byte	0xa5
 2531 02f6 10       		.byte	0x10
 2532 02f7 11       		.uleb128 0x11
 2533 02f8 4C030000 		.4byte	.LASF63
 2534 02fc 01       		.byte	0x1
 2535 02fd 0B01     		.2byte	0x10b
 2536 02ff A5000000 		.4byte	0xa5
 2537 0303 11       		.byte	0x11
 2538 0304 11       		.uleb128 0x11
 2539 0305 4B000000 		.4byte	.LASF64
 2540 0309 01       		.byte	0x1
 2541 030a 0C01     		.2byte	0x10c
 2542 030c A5000000 		.4byte	0xa5
 2543 0310 12       		.byte	0x12
 2544 0311 00       		.byte	0
 2545 0312 05       		.uleb128 0x5
 2546 0313 3E070000 		.4byte	.LASF65
 2547 0317 01       		.byte	0x1
 2548 0318 0D01     		.2byte	0x10d
 2549 031a 89020000 		.4byte	0x289
 2550 031e 10       		.uleb128 0x10
 2551 031f 0A       		.byte	0xa
 2552 0320 01       		.byte	0x1
 2553 0321 1001     		.2byte	0x110
 2554 0323 83030000 		.4byte	0x383
 2555 0327 11       		.uleb128 0x11
 2556 0328 D4010000 		.4byte	.LASF57
 2557 032c 01       		.byte	0x1
 2558 032d 1101     		.2byte	0x111
 2559 032f A5000000 		.4byte	0xa5
 2560 0333 00       		.byte	0
 2561 0334 11       		.uleb128 0x11
ARM GAS  C:\Users\PRICHA~1\AppData\Local\Temp\ccFt17DU.s 			page 75


 2562 0335 FE050000 		.4byte	.LASF58
 2563 0339 01       		.byte	0x1
 2564 033a 1201     		.2byte	0x112
 2565 033c A5000000 		.4byte	0xa5
 2566 0340 01       		.byte	0x1
 2567 0341 11       		.uleb128 0x11
 2568 0342 C3040000 		.4byte	.LASF59
 2569 0346 01       		.byte	0x1
 2570 0347 1301     		.2byte	0x113
 2571 0349 A5000000 		.4byte	0xa5
 2572 034d 02       		.byte	0x2
 2573 034e 11       		.uleb128 0x11
 2574 034f 7D020000 		.4byte	.LASF66
 2575 0353 01       		.byte	0x1
 2576 0354 1401     		.2byte	0x114
 2577 0356 A5000000 		.4byte	0xa5
 2578 035a 03       		.byte	0x3
 2579 035b 11       		.uleb128 0x11
 2580 035c 06080000 		.4byte	.LASF67
 2581 0360 01       		.byte	0x1
 2582 0361 1501     		.2byte	0x115
 2583 0363 E1000000 		.4byte	0xe1
 2584 0367 04       		.byte	0x4
 2585 0368 12       		.uleb128 0x12
 2586 0369 6A6F6700 		.ascii	"jog\000"
 2587 036d 01       		.byte	0x1
 2588 036e 1601     		.2byte	0x116
 2589 0370 C9000000 		.4byte	0xc9
 2590 0374 08       		.byte	0x8
 2591 0375 11       		.uleb128 0x11
 2592 0376 AC000000 		.4byte	.LASF68
 2593 037a 01       		.byte	0x1
 2594 037b 1701     		.2byte	0x117
 2595 037d A5000000 		.4byte	0xa5
 2596 0381 09       		.byte	0x9
 2597 0382 00       		.byte	0
 2598 0383 05       		.uleb128 0x5
 2599 0384 9C010000 		.4byte	.LASF69
 2600 0388 01       		.byte	0x1
 2601 0389 1801     		.2byte	0x118
 2602 038b 1E030000 		.4byte	0x31e
 2603 038f 13       		.uleb128 0x13
 2604 0390 1E       		.byte	0x1e
 2605 0391 01       		.byte	0x1
 2606 0392 1D01     		.2byte	0x11d
 2607 0394 C9030000 		.4byte	0x3c9
 2608 0398 14       		.uleb128 0x14
 2609 0399 62756600 		.ascii	"buf\000"
 2610 039d 01       		.byte	0x1
 2611 039e 1E01     		.2byte	0x11e
 2612 03a0 C9030000 		.4byte	0x3c9
 2613 03a4 15       		.uleb128 0x15
 2614 03a5 78040000 		.4byte	.LASF70
 2615 03a9 01       		.byte	0x1
 2616 03aa 1F01     		.2byte	0x11f
 2617 03ac 7E020000 		.4byte	0x27e
 2618 03b0 15       		.uleb128 0x15
ARM GAS  C:\Users\PRICHA~1\AppData\Local\Temp\ccFt17DU.s 			page 76


 2619 03b1 15070000 		.4byte	.LASF71
 2620 03b5 01       		.byte	0x1
 2621 03b6 2001     		.2byte	0x120
 2622 03b8 12030000 		.4byte	0x312
 2623 03bc 15       		.uleb128 0x15
 2624 03bd EC040000 		.4byte	.LASF72
 2625 03c1 01       		.byte	0x1
 2626 03c2 2101     		.2byte	0x121
 2627 03c4 83030000 		.4byte	0x383
 2628 03c8 00       		.byte	0
 2629 03c9 16       		.uleb128 0x16
 2630 03ca A5000000 		.4byte	0xa5
 2631 03ce D9030000 		.4byte	0x3d9
 2632 03d2 17       		.uleb128 0x17
 2633 03d3 29010000 		.4byte	0x129
 2634 03d7 1D       		.byte	0x1d
 2635 03d8 00       		.byte	0
 2636 03d9 10       		.uleb128 0x10
 2637 03da 15       		.byte	0x15
 2638 03db 01       		.byte	0x1
 2639 03dc 2501     		.2byte	0x125
 2640 03de 8C040000 		.4byte	0x48c
 2641 03e2 11       		.uleb128 0x11
 2642 03e3 D4010000 		.4byte	.LASF57
 2643 03e7 01       		.byte	0x1
 2644 03e8 2601     		.2byte	0x126
 2645 03ea A5000000 		.4byte	0xa5
 2646 03ee 00       		.byte	0
 2647 03ef 11       		.uleb128 0x11
 2648 03f0 13040000 		.4byte	.LASF73
 2649 03f4 01       		.byte	0x1
 2650 03f5 2701     		.2byte	0x127
 2651 03f7 A5000000 		.4byte	0xa5
 2652 03fb 01       		.byte	0x1
 2653 03fc 11       		.uleb128 0x11
 2654 03fd 1C040000 		.4byte	.LASF74
 2655 0401 01       		.byte	0x1
 2656 0402 2801     		.2byte	0x128
 2657 0404 A5000000 		.4byte	0xa5
 2658 0408 02       		.byte	0x2
 2659 0409 11       		.uleb128 0x11
 2660 040a 25040000 		.4byte	.LASF75
 2661 040e 01       		.byte	0x1
 2662 040f 2901     		.2byte	0x129
 2663 0411 A5000000 		.4byte	0xa5
 2664 0415 03       		.byte	0x3
 2665 0416 11       		.uleb128 0x11
 2666 0417 FE050000 		.4byte	.LASF58
 2667 041b 01       		.byte	0x1
 2668 041c 2A01     		.2byte	0x12a
 2669 041e A5000000 		.4byte	0xa5
 2670 0422 04       		.byte	0x4
 2671 0423 11       		.uleb128 0x11
 2672 0424 C3040000 		.4byte	.LASF59
 2673 0428 01       		.byte	0x1
 2674 0429 2B01     		.2byte	0x12b
 2675 042b A5000000 		.4byte	0xa5
ARM GAS  C:\Users\PRICHA~1\AppData\Local\Temp\ccFt17DU.s 			page 77


 2676 042f 05       		.byte	0x5
 2677 0430 11       		.uleb128 0x11
 2678 0431 F0090000 		.4byte	.LASF76
 2679 0435 01       		.byte	0x1
 2680 0436 2C01     		.2byte	0x12c
 2681 0438 A5000000 		.4byte	0xa5
 2682 043c 06       		.byte	0x6
 2683 043d 11       		.uleb128 0x11
 2684 043e E00A0000 		.4byte	.LASF77
 2685 0442 01       		.byte	0x1
 2686 0443 2D01     		.2byte	0x12d
 2687 0445 A5000000 		.4byte	0xa5
 2688 0449 07       		.byte	0x7
 2689 044a 11       		.uleb128 0x11
 2690 044b 05070000 		.4byte	.LASF61
 2691 044f 01       		.byte	0x1
 2692 0450 2E01     		.2byte	0x12e
 2693 0452 A5000000 		.4byte	0xa5
 2694 0456 08       		.byte	0x8
 2695 0457 11       		.uleb128 0x11
 2696 0458 EE050000 		.4byte	.LASF78
 2697 045c 01       		.byte	0x1
 2698 045d 2F01     		.2byte	0x12f
 2699 045f B1000000 		.4byte	0xb1
 2700 0463 09       		.byte	0x9
 2701 0464 11       		.uleb128 0x11
 2702 0465 690A0000 		.4byte	.LASF79
 2703 0469 01       		.byte	0x1
 2704 046a 3001     		.2byte	0x130
 2705 046c D5000000 		.4byte	0xd5
 2706 0470 0B       		.byte	0xb
 2707 0471 11       		.uleb128 0x11
 2708 0472 F40A0000 		.4byte	.LASF80
 2709 0476 01       		.byte	0x1
 2710 0477 3101     		.2byte	0x131
 2711 0479 E1000000 		.4byte	0xe1
 2712 047d 0D       		.byte	0xd
 2713 047e 12       		.uleb128 0x12
 2714 047f 70776D00 		.ascii	"pwm\000"
 2715 0483 01       		.byte	0x1
 2716 0484 3201     		.2byte	0x132
 2717 0486 25000000 		.4byte	0x25
 2718 048a 11       		.byte	0x11
 2719 048b 00       		.byte	0
 2720 048c 05       		.uleb128 0x5
 2721 048d FA070000 		.4byte	.LASF81
 2722 0491 01       		.byte	0x1
 2723 0492 3301     		.2byte	0x133
 2724 0494 D9030000 		.4byte	0x3d9
 2725 0498 13       		.uleb128 0x13
 2726 0499 1E       		.byte	0x1e
 2727 049a 01       		.byte	0x1
 2728 049b 3601     		.2byte	0x136
 2729 049d BA040000 		.4byte	0x4ba
 2730 04a1 14       		.uleb128 0x14
 2731 04a2 62756600 		.ascii	"buf\000"
 2732 04a6 01       		.byte	0x1
ARM GAS  C:\Users\PRICHA~1\AppData\Local\Temp\ccFt17DU.s 			page 78


 2733 04a7 3701     		.2byte	0x137
 2734 04a9 C9030000 		.4byte	0x3c9
 2735 04ad 14       		.uleb128 0x14
 2736 04ae 6D736700 		.ascii	"msg\000"
 2737 04b2 01       		.byte	0x1
 2738 04b3 3801     		.2byte	0x138
 2739 04b5 8C040000 		.4byte	0x48c
 2740 04b9 00       		.byte	0
 2741 04ba 18       		.uleb128 0x18
 2742 04bb 01       		.byte	0x1
 2743 04bc 5A000000 		.4byte	0x5a
 2744 04c0 01       		.byte	0x1
 2745 04c1 3C01     		.2byte	0x13c
 2746 04c3 D4040000 		.4byte	0x4d4
 2747 04c7 0D       		.uleb128 0xd
 2748 04c8 3C000000 		.4byte	.LASF82
 2749 04cc 00       		.byte	0
 2750 04cd 0D       		.uleb128 0xd
 2751 04ce 0A060000 		.4byte	.LASF83
 2752 04d2 01       		.byte	0x1
 2753 04d3 00       		.byte	0
 2754 04d4 05       		.uleb128 0x5
 2755 04d5 06010000 		.4byte	.LASF84
 2756 04d9 01       		.byte	0x1
 2757 04da 3F01     		.2byte	0x13f
 2758 04dc BA040000 		.4byte	0x4ba
 2759 04e0 19       		.uleb128 0x19
 2760 04e1 E60A0000 		.4byte	.LASF85
 2761 04e5 01       		.byte	0x1
 2762 04e6 F804     		.2byte	0x4f8
 2763 04e8 00000000 		.4byte	.LFB46
 2764 04ec 18000000 		.4byte	.LFE46-.LFB46
 2765 04f0 01       		.uleb128 0x1
 2766 04f1 9C       		.byte	0x9c
 2767 04f2 2B050000 		.4byte	0x52b
 2768 04f6 1A       		.uleb128 0x1a
 2769 04f7 06000000 		.4byte	.LVL0
 2770 04fb B7120000 		.4byte	0x12b7
 2771 04ff 1A       		.uleb128 0x1a
 2772 0500 0A000000 		.4byte	.LVL1
 2773 0504 C2120000 		.4byte	0x12c2
 2774 0508 1B       		.uleb128 0x1b
 2775 0509 10000000 		.4byte	.LVL2
 2776 050d CD120000 		.4byte	0x12cd
 2777 0511 1B050000 		.4byte	0x51b
 2778 0515 1C       		.uleb128 0x1c
 2779 0516 01       		.uleb128 0x1
 2780 0517 50       		.byte	0x50
 2781 0518 01       		.uleb128 0x1
 2782 0519 30       		.byte	0x30
 2783 051a 00       		.byte	0
 2784 051b 1D       		.uleb128 0x1d
 2785 051c 16000000 		.4byte	.LVL3
 2786 0520 D8120000 		.4byte	0x12d8
 2787 0524 1C       		.uleb128 0x1c
 2788 0525 01       		.uleb128 0x1
 2789 0526 50       		.byte	0x50
ARM GAS  C:\Users\PRICHA~1\AppData\Local\Temp\ccFt17DU.s 			page 79


 2790 0527 01       		.uleb128 0x1
 2791 0528 30       		.byte	0x30
 2792 0529 00       		.byte	0
 2793 052a 00       		.byte	0
 2794 052b 19       		.uleb128 0x19
 2795 052c F7000000 		.4byte	.LASF86
 2796 0530 01       		.byte	0x1
 2797 0531 1205     		.2byte	0x512
 2798 0533 00000000 		.4byte	.LFB47
 2799 0537 12000000 		.4byte	.LFE47-.LFB47
 2800 053b 01       		.uleb128 0x1
 2801 053c 9C       		.byte	0x9c
 2802 053d 63050000 		.4byte	0x563
 2803 0541 1A       		.uleb128 0x1a
 2804 0542 06000000 		.4byte	.LVL4
 2805 0546 E3120000 		.4byte	0x12e3
 2806 054a 1A       		.uleb128 0x1a
 2807 054b 0A000000 		.4byte	.LVL5
 2808 054f EE120000 		.4byte	0x12ee
 2809 0553 1D       		.uleb128 0x1d
 2810 0554 10000000 		.4byte	.LVL6
 2811 0558 CD120000 		.4byte	0x12cd
 2812 055c 1C       		.uleb128 0x1c
 2813 055d 01       		.uleb128 0x1
 2814 055e 50       		.byte	0x50
 2815 055f 01       		.uleb128 0x1
 2816 0560 30       		.byte	0x30
 2817 0561 00       		.byte	0
 2818 0562 00       		.byte	0
 2819 0563 19       		.uleb128 0x19
 2820 0564 75060000 		.4byte	.LASF87
 2821 0568 01       		.byte	0x1
 2822 0569 2905     		.2byte	0x529
 2823 056b 00000000 		.4byte	.LFB48
 2824 056f 5C000000 		.4byte	.LFE48-.LFB48
 2825 0573 01       		.uleb128 0x1
 2826 0574 9C       		.byte	0x9c
 2827 0575 DF050000 		.4byte	0x5df
 2828 0579 1E       		.uleb128 0x1e
 2829 057a 6900     		.ascii	"i\000"
 2830 057c 01       		.byte	0x1
 2831 057d 2B05     		.2byte	0x52b
 2832 057f BD000000 		.4byte	0xbd
 2833 0583 00000000 		.4byte	.LLST0
 2834 0587 1A       		.uleb128 0x1a
 2835 0588 06000000 		.4byte	.LVL7
 2836 058c F9120000 		.4byte	0x12f9
 2837 0590 1A       		.uleb128 0x1a
 2838 0591 0A000000 		.4byte	.LVL8
 2839 0595 04130000 		.4byte	0x1304
 2840 0599 1A       		.uleb128 0x1a
 2841 059a 12000000 		.4byte	.LVL9
 2842 059e 0F130000 		.4byte	0x130f
 2843 05a2 1B       		.uleb128 0x1b
 2844 05a3 28000000 		.4byte	.LVL10
 2845 05a7 1B130000 		.4byte	0x131b
 2846 05ab C3050000 		.4byte	0x5c3
ARM GAS  C:\Users\PRICHA~1\AppData\Local\Temp\ccFt17DU.s 			page 80


 2847 05af 1C       		.uleb128 0x1c
 2848 05b0 01       		.uleb128 0x1
 2849 05b1 50       		.byte	0x50
 2850 05b2 05       		.uleb128 0x5
 2851 05b3 03       		.byte	0x3
 2852 05b4 00000000 		.4byte	txMessage
 2853 05b8 1C       		.uleb128 0x1c
 2854 05b9 01       		.uleb128 0x1
 2855 05ba 51       		.byte	0x51
 2856 05bb 01       		.uleb128 0x1
 2857 05bc 30       		.byte	0x30
 2858 05bd 1C       		.uleb128 0x1c
 2859 05be 01       		.uleb128 0x1
 2860 05bf 52       		.byte	0x52
 2861 05c0 01       		.uleb128 0x1
 2862 05c1 4E       		.byte	0x4e
 2863 05c2 00       		.byte	0
 2864 05c3 1A       		.uleb128 0x1a
 2865 05c4 30000000 		.4byte	.LVL12
 2866 05c8 24130000 		.4byte	0x1324
 2867 05cc 1A       		.uleb128 0x1a
 2868 05cd 3E000000 		.4byte	.LVL14
 2869 05d1 30130000 		.4byte	0x1330
 2870 05d5 1A       		.uleb128 0x1a
 2871 05d6 42000000 		.4byte	.LVL15
 2872 05da 3C130000 		.4byte	0x133c
 2873 05de 00       		.byte	0
 2874 05df 19       		.uleb128 0x19
 2875 05e0 34020000 		.4byte	.LASF88
 2876 05e4 01       		.byte	0x1
 2877 05e5 5901     		.2byte	0x159
 2878 05e7 00000000 		.4byte	.LFB32
 2879 05eb 28000000 		.4byte	.LFE32-.LFB32
 2880 05ef 01       		.uleb128 0x1
 2881 05f0 9C       		.byte	0x9c
 2882 05f1 2B060000 		.4byte	0x62b
 2883 05f5 1B       		.uleb128 0x1b
 2884 05f6 0A000000 		.4byte	.LVL17
 2885 05fa 48130000 		.4byte	0x1348
 2886 05fe 08060000 		.4byte	0x608
 2887 0602 1C       		.uleb128 0x1c
 2888 0603 01       		.uleb128 0x1
 2889 0604 50       		.byte	0x50
 2890 0605 01       		.uleb128 0x1
 2891 0606 3B       		.byte	0x3b
 2892 0607 00       		.byte	0
 2893 0608 1B       		.uleb128 0x1b
 2894 0609 12000000 		.4byte	.LVL18
 2895 060d 48130000 		.4byte	0x1348
 2896 0611 1B060000 		.4byte	0x61b
 2897 0615 1C       		.uleb128 0x1c
 2898 0616 01       		.uleb128 0x1
 2899 0617 50       		.byte	0x50
 2900 0618 01       		.uleb128 0x1
 2901 0619 3E       		.byte	0x3e
 2902 061a 00       		.byte	0
 2903 061b 1D       		.uleb128 0x1d
ARM GAS  C:\Users\PRICHA~1\AppData\Local\Temp\ccFt17DU.s 			page 81


 2904 061c 1A000000 		.4byte	.LVL19
 2905 0620 48130000 		.4byte	0x1348
 2906 0624 1C       		.uleb128 0x1c
 2907 0625 01       		.uleb128 0x1
 2908 0626 50       		.byte	0x50
 2909 0627 01       		.uleb128 0x1
 2910 0628 3F       		.byte	0x3f
 2911 0629 00       		.byte	0
 2912 062a 00       		.byte	0
 2913 062b 19       		.uleb128 0x19
 2914 062c AF010000 		.4byte	.LASF89
 2915 0630 01       		.byte	0x1
 2916 0631 7101     		.2byte	0x171
 2917 0633 00000000 		.4byte	.LFB33
 2918 0637 1C000000 		.4byte	.LFE33-.LFB33
 2919 063b 01       		.uleb128 0x1
 2920 063c 9C       		.byte	0x9c
 2921 063d 52060000 		.4byte	0x652
 2922 0641 1F       		.uleb128 0x1f
 2923 0642 E00A0000 		.4byte	.LASF77
 2924 0646 01       		.byte	0x1
 2925 0647 7101     		.2byte	0x171
 2926 0649 10020000 		.4byte	0x210
 2927 064d 1F000000 		.4byte	.LLST1
 2928 0651 00       		.byte	0
 2929 0652 20       		.uleb128 0x20
 2930 0653 00000000 		.4byte	.LASF97
 2931 0657 01       		.byte	0x1
 2932 0658 A601     		.2byte	0x1a6
 2933 065a 00000000 		.4byte	.LFB35
 2934 065e D8000000 		.4byte	.LFE35-.LFB35
 2935 0662 01       		.uleb128 0x1
 2936 0663 9C       		.byte	0x9c
 2937 0664 11080000 		.4byte	0x811
 2938 0668 21       		.uleb128 0x21
 2939 0669 61726700 		.ascii	"arg\000"
 2940 066d 01       		.byte	0x1
 2941 066e A601     		.2byte	0x1a6
 2942 0670 30010000 		.4byte	0x130
 2943 0674 40000000 		.4byte	.LLST2
 2944 0678 22       		.uleb128 0x22
 2945 0679 65727200 		.ascii	"err\000"
 2946 067d 01       		.byte	0x1
 2947 067e A801     		.2byte	0x1a8
 2948 0680 11010000 		.4byte	0x111
 2949 0684 02       		.uleb128 0x2
 2950 0685 91       		.byte	0x91
 2951 0686 74       		.sleb128 -12
 2952 0687 23       		.uleb128 0x23
 2953 0688 75020000 		.4byte	.LASF90
 2954 068c 01       		.byte	0x1
 2955 068d A901     		.2byte	0x1a9
 2956 068f A5000000 		.4byte	0xa5
 2957 0693 61000000 		.4byte	.LLST3
 2958 0697 23       		.uleb128 0x23
 2959 0698 020A0000 		.4byte	.LASF91
 2960 069c 01       		.byte	0x1
ARM GAS  C:\Users\PRICHA~1\AppData\Local\Temp\ccFt17DU.s 			page 82


 2961 069d AA01     		.2byte	0x1aa
 2962 069f A5000000 		.4byte	0xa5
 2963 06a3 76000000 		.4byte	.LLST4
 2964 06a7 24       		.uleb128 0x24
 2965 06a8 DF030000 		.4byte	.LASF92
 2966 06ac 01       		.byte	0x1
 2967 06ad AB01     		.2byte	0x1ab
 2968 06af 11080000 		.4byte	0x811
 2969 06b3 02       		.uleb128 0x2
 2970 06b4 91       		.byte	0x91
 2971 06b5 72       		.sleb128 -14
 2972 06b6 1B       		.uleb128 0x1b
 2973 06b7 0A000000 		.4byte	.LVL24
 2974 06bb 53130000 		.4byte	0x1353
 2975 06bf C9060000 		.4byte	0x6c9
 2976 06c3 1C       		.uleb128 0x1c
 2977 06c4 01       		.uleb128 0x1
 2978 06c5 50       		.byte	0x50
 2979 06c6 01       		.uleb128 0x1
 2980 06c7 30       		.byte	0x30
 2981 06c8 00       		.byte	0
 2982 06c9 1B       		.uleb128 0x1b
 2983 06ca 18000000 		.4byte	.LVL25
 2984 06ce 5F130000 		.4byte	0x135f
 2985 06d2 E7060000 		.4byte	0x6e7
 2986 06d6 1C       		.uleb128 0x1c
 2987 06d7 01       		.uleb128 0x1
 2988 06d8 50       		.byte	0x50
 2989 06d9 02       		.uleb128 0x2
 2990 06da 08       		.byte	0x8
 2991 06db 40       		.byte	0x40
 2992 06dc 1C       		.uleb128 0x1c
 2993 06dd 01       		.uleb128 0x1
 2994 06de 51       		.byte	0x51
 2995 06df 01       		.uleb128 0x1
 2996 06e0 30       		.byte	0x30
 2997 06e1 1C       		.uleb128 0x1c
 2998 06e2 01       		.uleb128 0x1
 2999 06e3 52       		.byte	0x52
 3000 06e4 01       		.uleb128 0x1
 3001 06e5 3A       		.byte	0x3a
 3002 06e6 00       		.byte	0
 3003 06e7 1B       		.uleb128 0x1b
 3004 06e8 28000000 		.4byte	.LVL26
 3005 06ec 6B130000 		.4byte	0x136b
 3006 06f0 FF060000 		.4byte	0x6ff
 3007 06f4 1C       		.uleb128 0x1c
 3008 06f5 01       		.uleb128 0x1
 3009 06f6 50       		.byte	0x50
 3010 06f7 01       		.uleb128 0x1
 3011 06f8 35       		.byte	0x35
 3012 06f9 1C       		.uleb128 0x1c
 3013 06fa 01       		.uleb128 0x1
 3014 06fb 51       		.byte	0x51
 3015 06fc 01       		.uleb128 0x1
 3016 06fd 3A       		.byte	0x3a
 3017 06fe 00       		.byte	0
ARM GAS  C:\Users\PRICHA~1\AppData\Local\Temp\ccFt17DU.s 			page 83


 3018 06ff 1B       		.uleb128 0x1b
 3019 0700 30000000 		.4byte	.LVL27
 3020 0704 6B130000 		.4byte	0x136b
 3021 0708 18070000 		.4byte	0x718
 3022 070c 1C       		.uleb128 0x1c
 3023 070d 01       		.uleb128 0x1
 3024 070e 50       		.byte	0x50
 3025 070f 02       		.uleb128 0x2
 3026 0710 08       		.byte	0x8
 3027 0711 20       		.byte	0x20
 3028 0712 1C       		.uleb128 0x1c
 3029 0713 01       		.uleb128 0x1
 3030 0714 51       		.byte	0x51
 3031 0715 01       		.uleb128 0x1
 3032 0716 3A       		.byte	0x3a
 3033 0717 00       		.byte	0
 3034 0718 1B       		.uleb128 0x1b
 3035 0719 38000000 		.4byte	.LVL28
 3036 071d 6B130000 		.4byte	0x136b
 3037 0721 30070000 		.4byte	0x730
 3038 0725 1C       		.uleb128 0x1c
 3039 0726 01       		.uleb128 0x1
 3040 0727 50       		.byte	0x50
 3041 0728 01       		.uleb128 0x1
 3042 0729 30       		.byte	0x30
 3043 072a 1C       		.uleb128 0x1c
 3044 072b 01       		.uleb128 0x1
 3045 072c 51       		.byte	0x51
 3046 072d 01       		.uleb128 0x1
 3047 072e 3A       		.byte	0x3a
 3048 072f 00       		.byte	0
 3049 0730 1B       		.uleb128 0x1b
 3050 0731 3E000000 		.4byte	.LVL29
 3051 0735 77130000 		.4byte	0x1377
 3052 0739 43070000 		.4byte	0x743
 3053 073d 1C       		.uleb128 0x1c
 3054 073e 01       		.uleb128 0x1
 3055 073f 50       		.byte	0x50
 3056 0740 01       		.uleb128 0x1
 3057 0741 3A       		.byte	0x3a
 3058 0742 00       		.byte	0
 3059 0743 1B       		.uleb128 0x1b
 3060 0744 4C000000 		.4byte	.LVL31
 3061 0748 2B060000 		.4byte	0x62b
 3062 074c 56070000 		.4byte	0x756
 3063 0750 1C       		.uleb128 0x1c
 3064 0751 01       		.uleb128 0x1
 3065 0752 50       		.byte	0x50
 3066 0753 01       		.uleb128 0x1
 3067 0754 38       		.byte	0x38
 3068 0755 00       		.byte	0
 3069 0756 1B       		.uleb128 0x1b
 3070 0757 56000000 		.4byte	.LVL32
 3071 075b 5F130000 		.4byte	0x135f
 3072 075f 74070000 		.4byte	0x774
 3073 0763 1C       		.uleb128 0x1c
 3074 0764 01       		.uleb128 0x1
ARM GAS  C:\Users\PRICHA~1\AppData\Local\Temp\ccFt17DU.s 			page 84


 3075 0765 50       		.byte	0x50
 3076 0766 02       		.uleb128 0x2
 3077 0767 08       		.byte	0x8
 3078 0768 40       		.byte	0x40
 3079 0769 1C       		.uleb128 0x1c
 3080 076a 01       		.uleb128 0x1
 3081 076b 51       		.byte	0x51
 3082 076c 01       		.uleb128 0x1
 3083 076d 30       		.byte	0x30
 3084 076e 1C       		.uleb128 0x1c
 3085 076f 01       		.uleb128 0x1
 3086 0770 52       		.byte	0x52
 3087 0771 01       		.uleb128 0x1
 3088 0772 3A       		.byte	0x3a
 3089 0773 00       		.byte	0
 3090 0774 1B       		.uleb128 0x1b
 3091 0775 66000000 		.4byte	.LVL33
 3092 0779 6B130000 		.4byte	0x136b
 3093 077d 8C070000 		.4byte	0x78c
 3094 0781 1C       		.uleb128 0x1c
 3095 0782 01       		.uleb128 0x1
 3096 0783 50       		.byte	0x50
 3097 0784 01       		.uleb128 0x1
 3098 0785 34       		.byte	0x34
 3099 0786 1C       		.uleb128 0x1c
 3100 0787 01       		.uleb128 0x1
 3101 0788 51       		.byte	0x51
 3102 0789 01       		.uleb128 0x1
 3103 078a 3A       		.byte	0x3a
 3104 078b 00       		.byte	0
 3105 078c 1B       		.uleb128 0x1b
 3106 078d 6C000000 		.4byte	.LVL34
 3107 0791 77130000 		.4byte	0x1377
 3108 0795 9F070000 		.4byte	0x79f
 3109 0799 1C       		.uleb128 0x1c
 3110 079a 01       		.uleb128 0x1
 3111 079b 50       		.byte	0x50
 3112 079c 01       		.uleb128 0x1
 3113 079d 3A       		.byte	0x3a
 3114 079e 00       		.byte	0
 3115 079f 1B       		.uleb128 0x1b
 3116 07a0 78000000 		.4byte	.LVL35
 3117 07a4 83130000 		.4byte	0x1383
 3118 07a8 C6070000 		.4byte	0x7c6
 3119 07ac 1C       		.uleb128 0x1c
 3120 07ad 01       		.uleb128 0x1
 3121 07ae 50       		.byte	0x50
 3122 07af 02       		.uleb128 0x2
 3123 07b0 08       		.byte	0x8
 3124 07b1 40       		.byte	0x40
 3125 07b2 1C       		.uleb128 0x1c
 3126 07b3 01       		.uleb128 0x1
 3127 07b4 51       		.byte	0x51
 3128 07b5 05       		.uleb128 0x5
 3129 07b6 03       		.byte	0x3
 3130 07b7 00000000 		.4byte	CurrentI2Cinbuf
 3131 07bb 1C       		.uleb128 0x1c
ARM GAS  C:\Users\PRICHA~1\AppData\Local\Temp\ccFt17DU.s 			page 85


 3132 07bc 01       		.uleb128 0x1
 3133 07bd 52       		.byte	0x52
 3134 07be 01       		.uleb128 0x1
 3135 07bf 35       		.byte	0x35
 3136 07c0 1C       		.uleb128 0x1c
 3137 07c1 01       		.uleb128 0x1
 3138 07c2 53       		.byte	0x53
 3139 07c3 01       		.uleb128 0x1
 3140 07c4 31       		.byte	0x31
 3141 07c5 00       		.byte	0
 3142 07c6 1B       		.uleb128 0x1b
 3143 07c7 9E000000 		.4byte	.LVL36
 3144 07cb 2B060000 		.4byte	0x62b
 3145 07cf D9070000 		.4byte	0x7d9
 3146 07d3 1C       		.uleb128 0x1c
 3147 07d4 01       		.uleb128 0x1
 3148 07d5 50       		.byte	0x50
 3149 07d6 01       		.uleb128 0x1
 3150 07d7 38       		.byte	0x38
 3151 07d8 00       		.byte	0
 3152 07d9 1B       		.uleb128 0x1b
 3153 07da AC000000 		.4byte	.LVL37
 3154 07de 2B060000 		.4byte	0x62b
 3155 07e2 EC070000 		.4byte	0x7ec
 3156 07e6 1C       		.uleb128 0x1c
 3157 07e7 01       		.uleb128 0x1
 3158 07e8 50       		.byte	0x50
 3159 07e9 01       		.uleb128 0x1
 3160 07ea 38       		.byte	0x38
 3161 07eb 00       		.byte	0
 3162 07ec 1B       		.uleb128 0x1b
 3163 07ed C0000000 		.4byte	.LVL38
 3164 07f1 8F130000 		.4byte	0x138f
 3165 07f5 01080000 		.4byte	0x801
 3166 07f9 1C       		.uleb128 0x1c
 3167 07fa 01       		.uleb128 0x1
 3168 07fb 50       		.byte	0x50
 3169 07fc 03       		.uleb128 0x3
 3170 07fd 0A       		.byte	0xa
 3171 07fe F401     		.2byte	0x1f4
 3172 0800 00       		.byte	0
 3173 0801 1D       		.uleb128 0x1d
 3174 0802 C6000000 		.4byte	.LVL39
 3175 0806 53130000 		.4byte	0x1353
 3176 080a 1C       		.uleb128 0x1c
 3177 080b 01       		.uleb128 0x1
 3178 080c 50       		.byte	0x50
 3179 080d 01       		.uleb128 0x1
 3180 080e 30       		.byte	0x30
 3181 080f 00       		.byte	0
 3182 0810 00       		.byte	0
 3183 0811 06       		.uleb128 0x6
 3184 0812 D5000000 		.4byte	0xd5
 3185 0816 19       		.uleb128 0x19
 3186 0817 33010000 		.4byte	.LASF93
 3187 081b 01       		.byte	0x1
 3188 081c 8C01     		.2byte	0x18c
ARM GAS  C:\Users\PRICHA~1\AppData\Local\Temp\ccFt17DU.s 			page 86


 3189 081e 00000000 		.4byte	.LFB34
 3190 0822 1C000000 		.4byte	.LFE34-.LFB34
 3191 0826 01       		.uleb128 0x1
 3192 0827 9C       		.byte	0x9c
 3193 0828 3B080000 		.4byte	0x83b
 3194 082c 25       		.uleb128 0x25
 3195 082d E00A0000 		.4byte	.LASF77
 3196 0831 01       		.byte	0x1
 3197 0832 8C01     		.2byte	0x18c
 3198 0834 10020000 		.4byte	0x210
 3199 0838 01       		.uleb128 0x1
 3200 0839 50       		.byte	0x50
 3201 083a 00       		.byte	0
 3202 083b 26       		.uleb128 0x26
 3203 083c 8C040000 		.4byte	.LASF94
 3204 0840 01       		.byte	0x1
 3205 0841 C202     		.2byte	0x2c2
 3206 0843 00000000 		.4byte	.LFB37
 3207 0847 40000000 		.4byte	.LFE37-.LFB37
 3208 084b 01       		.uleb128 0x1
 3209 084c 9C       		.byte	0x9c
 3210 084d 7B080000 		.4byte	0x87b
 3211 0851 1F       		.uleb128 0x1f
 3212 0852 AE090000 		.4byte	.LASF95
 3213 0856 01       		.byte	0x1
 3214 0857 C202     		.2byte	0x2c2
 3215 0859 25000000 		.4byte	0x25
 3216 085d 8A000000 		.4byte	.LLST5
 3217 0861 23       		.uleb128 0x23
 3218 0862 99030000 		.4byte	.LASF96
 3219 0866 01       		.byte	0x1
 3220 0867 C402     		.2byte	0x2c4
 3221 0869 25000000 		.4byte	0x25
 3222 086d B8000000 		.4byte	.LLST6
 3223 0871 1A       		.uleb128 0x1a
 3224 0872 36000000 		.4byte	.LVL48
 3225 0876 9B130000 		.4byte	0x139b
 3226 087a 00       		.byte	0
 3227 087b 27       		.uleb128 0x27
 3228 087c 0F080000 		.4byte	.LASF98
 3229 0880 01       		.byte	0x1
 3230 0881 D902     		.2byte	0x2d9
 3231 0883 E1000000 		.4byte	0xe1
 3232 0887 00000000 		.4byte	.LFB38
 3233 088b 44000000 		.4byte	.LFE38-.LFB38
 3234 088f 01       		.uleb128 0x1
 3235 0890 9C       		.byte	0x9c
 3236 0891 C3080000 		.4byte	0x8c3
 3237 0895 24       		.uleb128 0x24
 3238 0896 EE070000 		.4byte	.LASF99
 3239 089a 01       		.byte	0x1
 3240 089b DB02     		.2byte	0x2db
 3241 089d 11010000 		.4byte	0x111
 3242 08a1 05       		.uleb128 0x5
 3243 08a2 03       		.byte	0x3
 3244 08a3 00000000 		.4byte	RawPosition.7597
 3245 08a7 24       		.uleb128 0x24
ARM GAS  C:\Users\PRICHA~1\AppData\Local\Temp\ccFt17DU.s 			page 87


 3246 08a8 06020000 		.4byte	.LASF100
 3247 08ac 01       		.byte	0x1
 3248 08ad DC02     		.2byte	0x2dc
 3249 08af C3080000 		.4byte	0x8c3
 3250 08b3 05       		.uleb128 0x5
 3251 08b4 03       		.byte	0x3
 3252 08b5 04000000 		.4byte	result.7598
 3253 08b9 1A       		.uleb128 0x1a
 3254 08ba 06000000 		.4byte	.LVL51
 3255 08be A7130000 		.4byte	0x13a7
 3256 08c2 00       		.byte	0
 3257 08c3 06       		.uleb128 0x6
 3258 08c4 E1000000 		.4byte	0xe1
 3259 08c8 28       		.uleb128 0x28
 3260 08c9 98080000 		.4byte	.LASF101
 3261 08cd 01       		.byte	0x1
 3262 08ce F201     		.2byte	0x1f2
 3263 08d0 00000000 		.4byte	.LFB36
 3264 08d4 D4020000 		.4byte	.LFE36-.LFB36
 3265 08d8 01       		.uleb128 0x1
 3266 08d9 9C       		.byte	0x9c
 3267 08da 090A0000 		.4byte	0xa09
 3268 08de 21       		.uleb128 0x21
 3269 08df 61726700 		.ascii	"arg\000"
 3270 08e3 01       		.byte	0x1
 3271 08e4 F201     		.2byte	0x1f2
 3272 08e6 30010000 		.4byte	0x130
 3273 08ea E1000000 		.4byte	.LLST7
 3274 08ee 23       		.uleb128 0x23
 3275 08ef C3040000 		.4byte	.LASF59
 3276 08f3 01       		.byte	0x1
 3277 08f4 F401     		.2byte	0x1f4
 3278 08f6 46020000 		.4byte	0x246
 3279 08fa 02010000 		.4byte	.LLST8
 3280 08fe 23       		.uleb128 0x23
 3281 08ff FE050000 		.4byte	.LASF58
 3282 0903 01       		.byte	0x1
 3283 0904 F501     		.2byte	0x1f5
 3284 0906 A5000000 		.4byte	0xa5
 3285 090a 20010000 		.4byte	.LLST9
 3286 090e 1E       		.uleb128 0x1e
 3287 090f 6900     		.ascii	"i\000"
 3288 0911 01       		.byte	0x1
 3289 0912 F601     		.2byte	0x1f6
 3290 0914 A5000000 		.4byte	0xa5
 3291 0918 3E010000 		.4byte	.LLST10
 3292 091c 23       		.uleb128 0x23
 3293 091d D4010000 		.4byte	.LASF57
 3294 0921 01       		.byte	0x1
 3295 0922 F701     		.2byte	0x1f7
 3296 0924 A5000000 		.4byte	0xa5
 3297 0928 95010000 		.4byte	.LLST11
 3298 092c 23       		.uleb128 0x23
 3299 092d E7000000 		.4byte	.LASF102
 3300 0931 01       		.byte	0x1
 3301 0932 F801     		.2byte	0x1f8
 3302 0934 A5000000 		.4byte	0xa5
ARM GAS  C:\Users\PRICHA~1\AppData\Local\Temp\ccFt17DU.s 			page 88


 3303 0938 F7010000 		.4byte	.LLST12
 3304 093c 1B       		.uleb128 0x1b
 3305 093d 08000000 		.4byte	.LVL54
 3306 0941 53130000 		.4byte	0x1353
 3307 0945 4F090000 		.4byte	0x94f
 3308 0949 1C       		.uleb128 0x1c
 3309 094a 01       		.uleb128 0x1
 3310 094b 50       		.byte	0x50
 3311 094c 01       		.uleb128 0x1
 3312 094d 30       		.byte	0x30
 3313 094e 00       		.byte	0
 3314 094f 1B       		.uleb128 0x1b
 3315 0950 2A000000 		.4byte	.LVL55
 3316 0954 B2130000 		.4byte	0x13b2
 3317 0958 62090000 		.4byte	0x962
 3318 095c 1C       		.uleb128 0x1c
 3319 095d 01       		.uleb128 0x1
 3320 095e 51       		.byte	0x51
 3321 095f 01       		.uleb128 0x1
 3322 0960 34       		.byte	0x34
 3323 0961 00       		.byte	0
 3324 0962 1B       		.uleb128 0x1b
 3325 0963 3C010000 		.4byte	.LVL80
 3326 0967 16080000 		.4byte	0x816
 3327 096b 75090000 		.4byte	0x975
 3328 096f 1C       		.uleb128 0x1c
 3329 0970 01       		.uleb128 0x1
 3330 0971 50       		.byte	0x50
 3331 0972 01       		.uleb128 0x1
 3332 0973 30       		.byte	0x30
 3333 0974 00       		.byte	0
 3334 0975 1A       		.uleb128 0x1a
 3335 0976 6C010000 		.4byte	.LVL84
 3336 097a 7B080000 		.4byte	0x87b
 3337 097e 1B       		.uleb128 0x1b
 3338 097f 98010000 		.4byte	.LVL86
 3339 0983 D8120000 		.4byte	0x12d8
 3340 0987 91090000 		.4byte	0x991
 3341 098b 1C       		.uleb128 0x1c
 3342 098c 01       		.uleb128 0x1
 3343 098d 50       		.byte	0x50
 3344 098e 01       		.uleb128 0x1
 3345 098f 30       		.byte	0x30
 3346 0990 00       		.byte	0
 3347 0991 1A       		.uleb128 0x1a
 3348 0992 A6010000 		.4byte	.LVL87
 3349 0996 7B080000 		.4byte	0x87b
 3350 099a 1B       		.uleb128 0x1b
 3351 099b 2C020000 		.4byte	.LVL95
 3352 099f BE130000 		.4byte	0x13be
 3353 09a3 B6090000 		.4byte	0x9b6
 3354 09a7 1C       		.uleb128 0x1c
 3355 09a8 01       		.uleb128 0x1
 3356 09a9 50       		.byte	0x50
 3357 09aa 05       		.uleb128 0x5
 3358 09ab 03       		.byte	0x3
 3359 09ac 00000000 		.4byte	txMessage
ARM GAS  C:\Users\PRICHA~1\AppData\Local\Temp\ccFt17DU.s 			page 89


 3360 09b0 1C       		.uleb128 0x1c
 3361 09b1 01       		.uleb128 0x1
 3362 09b2 51       		.byte	0x51
 3363 09b3 01       		.uleb128 0x1
 3364 09b4 4E       		.byte	0x4e
 3365 09b5 00       		.byte	0
 3366 09b6 1B       		.uleb128 0x1b
 3367 09b7 40020000 		.4byte	.LVL96
 3368 09bb 16080000 		.4byte	0x816
 3369 09bf C9090000 		.4byte	0x9c9
 3370 09c3 1C       		.uleb128 0x1c
 3371 09c4 01       		.uleb128 0x1
 3372 09c5 50       		.byte	0x50
 3373 09c6 01       		.uleb128 0x1
 3374 09c7 30       		.byte	0x30
 3375 09c8 00       		.byte	0
 3376 09c9 1B       		.uleb128 0x1b
 3377 09ca 4E020000 		.4byte	.LVL97
 3378 09ce CA130000 		.4byte	0x13ca
 3379 09d2 E6090000 		.4byte	0x9e6
 3380 09d6 1C       		.uleb128 0x1c
 3381 09d7 01       		.uleb128 0x1
 3382 09d8 51       		.byte	0x51
 3383 09d9 01       		.uleb128 0x1
 3384 09da 30       		.byte	0x30
 3385 09db 1C       		.uleb128 0x1c
 3386 09dc 01       		.uleb128 0x1
 3387 09dd 52       		.byte	0x52
 3388 09de 01       		.uleb128 0x1
 3389 09df 30       		.byte	0x30
 3390 09e0 1C       		.uleb128 0x1c
 3391 09e1 01       		.uleb128 0x1
 3392 09e2 53       		.byte	0x53
 3393 09e3 01       		.uleb128 0x1
 3394 09e4 30       		.byte	0x30
 3395 09e5 00       		.byte	0
 3396 09e6 1B       		.uleb128 0x1b
 3397 09e7 54020000 		.4byte	.LVL98
 3398 09eb 8F130000 		.4byte	0x138f
 3399 09ef F9090000 		.4byte	0x9f9
 3400 09f3 1C       		.uleb128 0x1c
 3401 09f4 01       		.uleb128 0x1
 3402 09f5 50       		.byte	0x50
 3403 09f6 01       		.uleb128 0x1
 3404 09f7 31       		.byte	0x31
 3405 09f8 00       		.byte	0
 3406 09f9 1D       		.uleb128 0x1d
 3407 09fa 5A020000 		.4byte	.LVL99
 3408 09fe 53130000 		.4byte	0x1353
 3409 0a02 1C       		.uleb128 0x1c
 3410 0a03 01       		.uleb128 0x1
 3411 0a04 50       		.byte	0x50
 3412 0a05 01       		.uleb128 0x1
 3413 0a06 30       		.byte	0x30
 3414 0a07 00       		.byte	0
 3415 0a08 00       		.byte	0
 3416 0a09 19       		.uleb128 0x19
ARM GAS  C:\Users\PRICHA~1\AppData\Local\Temp\ccFt17DU.s 			page 90


 3417 0a0a 460A0000 		.4byte	.LASF103
 3418 0a0e 01       		.byte	0x1
 3419 0a0f FD02     		.2byte	0x2fd
 3420 0a11 00000000 		.4byte	.LFB39
 3421 0a15 30000000 		.4byte	.LFE39-.LFB39
 3422 0a19 01       		.uleb128 0x1
 3423 0a1a 9C       		.byte	0x9c
 3424 0a1b 290A0000 		.4byte	0xa29
 3425 0a1f 1A       		.uleb128 0x1a
 3426 0a20 06000000 		.4byte	.LVL100
 3427 0a24 7B080000 		.4byte	0x87b
 3428 0a28 00       		.byte	0
 3429 0a29 26       		.uleb128 0x26
 3430 0a2a B9060000 		.4byte	.LASF104
 3431 0a2e 01       		.byte	0x1
 3432 0a2f 1603     		.2byte	0x316
 3433 0a31 00000000 		.4byte	.LFB40
 3434 0a35 44000000 		.4byte	.LFE40-.LFB40
 3435 0a39 01       		.uleb128 0x1
 3436 0a3a 9C       		.byte	0x9c
 3437 0a3b 9A0A0000 		.4byte	0xa9a
 3438 0a3f 1F       		.uleb128 0x1f
 3439 0a40 F7060000 		.4byte	.LASF105
 3440 0a44 01       		.byte	0x1
 3441 0a45 1603     		.2byte	0x316
 3442 0a47 BD000000 		.4byte	0xbd
 3443 0a4b 15020000 		.4byte	.LLST13
 3444 0a4f 1F       		.uleb128 0x1f
 3445 0a50 CA000000 		.4byte	.LASF106
 3446 0a54 01       		.byte	0x1
 3447 0a55 1603     		.2byte	0x316
 3448 0a57 25000000 		.4byte	0x25
 3449 0a5b 36020000 		.4byte	.LLST14
 3450 0a5f 1F       		.uleb128 0x1f
 3451 0a60 C4000000 		.4byte	.LASF107
 3452 0a64 01       		.byte	0x1
 3453 0a65 1603     		.2byte	0x316
 3454 0a67 25000000 		.4byte	0x25
 3455 0a6b 64020000 		.4byte	.LLST15
 3456 0a6f 1F       		.uleb128 0x1f
 3457 0a70 BE000000 		.4byte	.LASF108
 3458 0a74 01       		.byte	0x1
 3459 0a75 1603     		.2byte	0x316
 3460 0a77 25000000 		.4byte	0x25
 3461 0a7b 92020000 		.4byte	.LLST16
 3462 0a7f 29       		.uleb128 0x29
 3463 0a80 0C000000 		.4byte	.LBB2
 3464 0a84 26000000 		.4byte	.LBE2-.LBB2
 3465 0a88 23       		.uleb128 0x23
 3466 0a89 81070000 		.4byte	.LASF109
 3467 0a8d 01       		.byte	0x1
 3468 0a8e 1A03     		.2byte	0x31a
 3469 0a90 25000000 		.4byte	0x25
 3470 0a94 C0020000 		.4byte	.LLST17
 3471 0a98 00       		.byte	0
 3472 0a99 00       		.byte	0
 3473 0a9a 2A       		.uleb128 0x2a
ARM GAS  C:\Users\PRICHA~1\AppData\Local\Temp\ccFt17DU.s 			page 91


 3474 0a9b EB060000 		.4byte	.LASF110
 3475 0a9f 01       		.byte	0x1
 3476 0aa0 2C03     		.2byte	0x32c
 3477 0aa2 25000000 		.4byte	0x25
 3478 0aa6 00000000 		.4byte	.LFB41
 3479 0aaa 38010000 		.4byte	.LFE41-.LFB41
 3480 0aae 01       		.uleb128 0x1
 3481 0aaf 9C       		.byte	0x9c
 3482 0ab0 170B0000 		.4byte	0xb17
 3483 0ab4 21       		.uleb128 0x21
 3484 0ab5 6E6F7700 		.ascii	"now\000"
 3485 0ab9 01       		.byte	0x1
 3486 0aba 2C03     		.2byte	0x32c
 3487 0abc BD000000 		.4byte	0xbd
 3488 0ac0 DE020000 		.4byte	.LLST18
 3489 0ac4 1F       		.uleb128 0x1f
 3490 0ac5 06080000 		.4byte	.LASF67
 3491 0ac9 01       		.byte	0x1
 3492 0aca 2C03     		.2byte	0x32c
 3493 0acc BD000000 		.4byte	0xbd
 3494 0ad0 20030000 		.4byte	.LLST19
 3495 0ad4 23       		.uleb128 0x23
 3496 0ad5 18010000 		.4byte	.LASF111
 3497 0ad9 01       		.byte	0x1
 3498 0ada 2E03     		.2byte	0x32e
 3499 0adc E1000000 		.4byte	0xe1
 3500 0ae0 65030000 		.4byte	.LLST20
 3501 0ae4 23       		.uleb128 0x23
 3502 0ae5 34070000 		.4byte	.LASF112
 3503 0ae9 01       		.byte	0x1
 3504 0aea 2E03     		.2byte	0x32e
 3505 0aec E1000000 		.4byte	0xe1
 3506 0af0 78030000 		.4byte	.LLST21
 3507 0af4 23       		.uleb128 0x23
 3508 0af5 83050000 		.4byte	.LASF113
 3509 0af9 01       		.byte	0x1
 3510 0afa 2F03     		.2byte	0x32f
 3511 0afc BD000000 		.4byte	0xbd
 3512 0b00 8B030000 		.4byte	.LLST22
 3513 0b04 1A       		.uleb128 0x1a
 3514 0b05 12000000 		.4byte	.LVL112
 3515 0b09 7B080000 		.4byte	0x87b
 3516 0b0d 1A       		.uleb128 0x1a
 3517 0b0e 34000000 		.4byte	.LVL114
 3518 0b12 290A0000 		.4byte	0xa29
 3519 0b16 00       		.byte	0
 3520 0b17 19       		.uleb128 0x19
 3521 0b18 80040000 		.4byte	.LASF114
 3522 0b1c 01       		.byte	0x1
 3523 0b1d 6A03     		.2byte	0x36a
 3524 0b1f 00000000 		.4byte	.LFB42
 3525 0b23 24000000 		.4byte	.LFE42-.LFB42
 3526 0b27 01       		.uleb128 0x1
 3527 0b28 9C       		.byte	0x9c
 3528 0b29 570B0000 		.4byte	0xb57
 3529 0b2d 1F       		.uleb128 0x1f
 3530 0b2e 6D070000 		.4byte	.LASF115
ARM GAS  C:\Users\PRICHA~1\AppData\Local\Temp\ccFt17DU.s 			page 92


 3531 0b32 01       		.byte	0x1
 3532 0b33 6A03     		.2byte	0x36a
 3533 0b35 BD000000 		.4byte	0xbd
 3534 0b39 9E030000 		.4byte	.LLST23
 3535 0b3d 23       		.uleb128 0x23
 3536 0b3e 6C000000 		.4byte	.LASF116
 3537 0b42 01       		.byte	0x1
 3538 0b43 6C03     		.2byte	0x36c
 3539 0b45 570B0000 		.4byte	0xb57
 3540 0b49 BF030000 		.4byte	.LLST24
 3541 0b4d 1A       		.uleb128 0x1a
 3542 0b4e 1A000000 		.4byte	.LVL136
 3543 0b52 090A0000 		.4byte	0xa09
 3544 0b56 00       		.byte	0
 3545 0b57 02       		.uleb128 0x2
 3546 0b58 01       		.byte	0x1
 3547 0b59 02       		.byte	0x2
 3548 0b5a 7D030000 		.4byte	.LASF117
 3549 0b5e 26       		.uleb128 0x26
 3550 0b5f 65030000 		.4byte	.LASF118
 3551 0b63 01       		.byte	0x1
 3552 0b64 7F03     		.2byte	0x37f
 3553 0b66 00000000 		.4byte	.LFB43
 3554 0b6a 1C000000 		.4byte	.LFE43-.LFB43
 3555 0b6e 01       		.uleb128 0x1
 3556 0b6f 9C       		.byte	0x9c
 3557 0b70 9E0B0000 		.4byte	0xb9e
 3558 0b74 1F       		.uleb128 0x1f
 3559 0b75 30090000 		.4byte	.LASF119
 3560 0b79 01       		.byte	0x1
 3561 0b7a 7F03     		.2byte	0x37f
 3562 0b7c 25000000 		.4byte	0x25
 3563 0b80 E1030000 		.4byte	.LLST25
 3564 0b84 23       		.uleb128 0x23
 3565 0b85 AE090000 		.4byte	.LASF95
 3566 0b89 01       		.byte	0x1
 3567 0b8a 8303     		.2byte	0x383
 3568 0b8c 25000000 		.4byte	0x25
 3569 0b90 04040000 		.4byte	.LLST26
 3570 0b94 1A       		.uleb128 0x1a
 3571 0b95 14000000 		.4byte	.LVL141
 3572 0b99 3B080000 		.4byte	0x83b
 3573 0b9d 00       		.byte	0
 3574 0b9e 28       		.uleb128 0x28
 3575 0b9f C4090000 		.4byte	.LASF120
 3576 0ba3 01       		.byte	0x1
 3577 0ba4 9503     		.2byte	0x395
 3578 0ba6 00000000 		.4byte	.LFB44
 3579 0baa 34020000 		.4byte	.LFE44-.LFB44
 3580 0bae 01       		.uleb128 0x1
 3581 0baf 9C       		.byte	0x9c
 3582 0bb0 9A0D0000 		.4byte	0xd9a
 3583 0bb4 21       		.uleb128 0x21
 3584 0bb5 61726700 		.ascii	"arg\000"
 3585 0bb9 01       		.byte	0x1
 3586 0bba 9503     		.2byte	0x395
 3587 0bbc 30010000 		.4byte	0x130
ARM GAS  C:\Users\PRICHA~1\AppData\Local\Temp\ccFt17DU.s 			page 93


 3588 0bc0 17040000 		.4byte	.LLST27
 3589 0bc4 2B       		.uleb128 0x2b
 3590 0bc5 BA050000 		.4byte	.LASF121
 3591 0bc9 01       		.byte	0x1
 3592 0bca 9803     		.2byte	0x398
 3593 0bcc BD000000 		.4byte	0xbd
 3594 0bd0 05       		.byte	0x5
 3595 0bd1 1E       		.uleb128 0x1e
 3596 0bd2 6E6F7700 		.ascii	"now\000"
 3597 0bd6 01       		.byte	0x1
 3598 0bd7 9903     		.2byte	0x399
 3599 0bd9 BD000000 		.4byte	0xbd
 3600 0bdd 38040000 		.4byte	.LLST28
 3601 0be1 23       		.uleb128 0x23
 3602 0be2 30090000 		.4byte	.LASF119
 3603 0be6 01       		.byte	0x1
 3604 0be7 9A03     		.2byte	0x39a
 3605 0be9 25000000 		.4byte	0x25
 3606 0bed 78040000 		.4byte	.LLST29
 3607 0bf1 23       		.uleb128 0x23
 3608 0bf2 12000000 		.4byte	.LASF122
 3609 0bf6 01       		.byte	0x1
 3610 0bf7 9B03     		.2byte	0x39b
 3611 0bf9 E1000000 		.4byte	0xe1
 3612 0bfd 8B040000 		.4byte	.LLST30
 3613 0c01 23       		.uleb128 0x23
 3614 0c02 530B0000 		.4byte	.LASF123
 3615 0c06 01       		.byte	0x1
 3616 0c07 9B03     		.2byte	0x39b
 3617 0c09 E1000000 		.4byte	0xe1
 3618 0c0d 9E040000 		.4byte	.LLST31
 3619 0c11 23       		.uleb128 0x23
 3620 0c12 0A090000 		.4byte	.LASF124
 3621 0c16 01       		.byte	0x1
 3622 0c17 9C03     		.2byte	0x39c
 3623 0c19 BD000000 		.4byte	0xbd
 3624 0c1d B1040000 		.4byte	.LLST32
 3625 0c21 1B       		.uleb128 0x1b
 3626 0c22 08000000 		.4byte	.LVL145
 3627 0c26 53130000 		.4byte	0x1353
 3628 0c2a 340C0000 		.4byte	0xc34
 3629 0c2e 1C       		.uleb128 0x1c
 3630 0c2f 01       		.uleb128 0x1
 3631 0c30 50       		.byte	0x50
 3632 0c31 01       		.uleb128 0x1
 3633 0c32 30       		.byte	0x30
 3634 0c33 00       		.byte	0
 3635 0c34 1A       		.uleb128 0x1a
 3636 0c35 1E000000 		.4byte	.LVL146
 3637 0c39 090A0000 		.4byte	0xa09
 3638 0c3d 1B       		.uleb128 0x1b
 3639 0c3e 2A000000 		.4byte	.LVL147
 3640 0c42 290A0000 		.4byte	0xa29
 3641 0c46 500C0000 		.4byte	0xc50
 3642 0c4a 1C       		.uleb128 0x1c
 3643 0c4b 01       		.uleb128 0x1
 3644 0c4c 50       		.byte	0x50
ARM GAS  C:\Users\PRICHA~1\AppData\Local\Temp\ccFt17DU.s 			page 94


 3645 0c4d 01       		.uleb128 0x1
 3646 0c4e 35       		.byte	0x35
 3647 0c4f 00       		.byte	0
 3648 0c50 1B       		.uleb128 0x1b
 3649 0c51 30000000 		.4byte	.LVL148
 3650 0c55 170B0000 		.4byte	0xb17
 3651 0c59 640C0000 		.4byte	0xc64
 3652 0c5d 1C       		.uleb128 0x1c
 3653 0c5e 01       		.uleb128 0x1
 3654 0c5f 50       		.byte	0x50
 3655 0c60 02       		.uleb128 0x2
 3656 0c61 74       		.byte	0x74
 3657 0c62 00       		.sleb128 0
 3658 0c63 00       		.byte	0
 3659 0c64 1B       		.uleb128 0x1b
 3660 0c65 66000000 		.4byte	.LVL151
 3661 0c69 D6130000 		.4byte	0x13d6
 3662 0c6d 770C0000 		.4byte	0xc77
 3663 0c71 1C       		.uleb128 0x1c
 3664 0c72 01       		.uleb128 0x1
 3665 0c73 50       		.byte	0x50
 3666 0c74 01       		.uleb128 0x1
 3667 0c75 31       		.byte	0x31
 3668 0c76 00       		.byte	0
 3669 0c77 1B       		.uleb128 0x1b
 3670 0c78 6E000000 		.4byte	.LVL152
 3671 0c7c E1130000 		.4byte	0x13e1
 3672 0c80 8C0C0000 		.4byte	0xc8c
 3673 0c84 1C       		.uleb128 0x1c
 3674 0c85 01       		.uleb128 0x1
 3675 0c86 50       		.byte	0x50
 3676 0c87 03       		.uleb128 0x3
 3677 0c88 0A       		.byte	0xa
 3678 0c89 0008     		.2byte	0x800
 3679 0c8b 00       		.byte	0
 3680 0c8c 1A       		.uleb128 0x1a
 3681 0c8d 72000000 		.4byte	.LVL153
 3682 0c91 0F130000 		.4byte	0x130f
 3683 0c95 1A       		.uleb128 0x1a
 3684 0c96 8C000000 		.4byte	.LVL156
 3685 0c9a 3B080000 		.4byte	0x83b
 3686 0c9e 1B       		.uleb128 0x1b
 3687 0c9f A8000000 		.4byte	.LVL159
 3688 0ca3 EC130000 		.4byte	0x13ec
 3689 0ca7 B10C0000 		.4byte	0xcb1
 3690 0cab 1C       		.uleb128 0x1c
 3691 0cac 01       		.uleb128 0x1
 3692 0cad 50       		.byte	0x50
 3693 0cae 01       		.uleb128 0x1
 3694 0caf 36       		.byte	0x36
 3695 0cb0 00       		.byte	0
 3696 0cb1 1B       		.uleb128 0x1b
 3697 0cb2 AE000000 		.4byte	.LVL160
 3698 0cb6 F7130000 		.4byte	0x13f7
 3699 0cba C40C0000 		.4byte	0xcc4
 3700 0cbe 1C       		.uleb128 0x1c
 3701 0cbf 01       		.uleb128 0x1
ARM GAS  C:\Users\PRICHA~1\AppData\Local\Temp\ccFt17DU.s 			page 95


 3702 0cc0 50       		.byte	0x50
 3703 0cc1 01       		.uleb128 0x1
 3704 0cc2 36       		.byte	0x36
 3705 0cc3 00       		.byte	0
 3706 0cc4 1A       		.uleb128 0x1a
 3707 0cc5 DC000000 		.4byte	.LVL161
 3708 0cc9 7B080000 		.4byte	0x87b
 3709 0ccd 1B       		.uleb128 0x1b
 3710 0cce E6000000 		.4byte	.LVL162
 3711 0cd2 D8120000 		.4byte	0x12d8
 3712 0cd6 E00C0000 		.4byte	0xce0
 3713 0cda 1C       		.uleb128 0x1c
 3714 0cdb 01       		.uleb128 0x1
 3715 0cdc 50       		.byte	0x50
 3716 0cdd 01       		.uleb128 0x1
 3717 0cde 30       		.byte	0x30
 3718 0cdf 00       		.byte	0
 3719 0ce0 1A       		.uleb128 0x1a
 3720 0ce1 F6000000 		.4byte	.LVL164
 3721 0ce5 3B080000 		.4byte	0x83b
 3722 0ce9 1A       		.uleb128 0x1a
 3723 0cea 00010000 		.4byte	.LVL165
 3724 0cee 7B080000 		.4byte	0x87b
 3725 0cf2 1A       		.uleb128 0x1a
 3726 0cf3 10010000 		.4byte	.LVL168
 3727 0cf7 02140000 		.4byte	0x1402
 3728 0cfb 1B       		.uleb128 0x1b
 3729 0cfc 20010000 		.4byte	.LVL171
 3730 0d00 2B060000 		.4byte	0x62b
 3731 0d04 0E0D0000 		.4byte	0xd0e
 3732 0d08 1C       		.uleb128 0x1c
 3733 0d09 01       		.uleb128 0x1
 3734 0d0a 50       		.byte	0x50
 3735 0d0b 01       		.uleb128 0x1
 3736 0d0c 34       		.byte	0x34
 3737 0d0d 00       		.byte	0
 3738 0d0e 1B       		.uleb128 0x1b
 3739 0d0f 2E010000 		.4byte	.LVL172
 3740 0d13 2B060000 		.4byte	0x62b
 3741 0d17 210D0000 		.4byte	0xd21
 3742 0d1b 1C       		.uleb128 0x1c
 3743 0d1c 01       		.uleb128 0x1
 3744 0d1d 50       		.byte	0x50
 3745 0d1e 01       		.uleb128 0x1
 3746 0d1f 32       		.byte	0x32
 3747 0d20 00       		.byte	0
 3748 0d21 1B       		.uleb128 0x1b
 3749 0d22 44010000 		.4byte	.LVL173
 3750 0d26 170B0000 		.4byte	0xb17
 3751 0d2a 340D0000 		.4byte	0xd34
 3752 0d2e 1C       		.uleb128 0x1c
 3753 0d2f 01       		.uleb128 0x1
 3754 0d30 50       		.byte	0x50
 3755 0d31 01       		.uleb128 0x1
 3756 0d32 31       		.byte	0x31
 3757 0d33 00       		.byte	0
 3758 0d34 1B       		.uleb128 0x1b
ARM GAS  C:\Users\PRICHA~1\AppData\Local\Temp\ccFt17DU.s 			page 96


 3759 0d35 58010000 		.4byte	.LVL174
 3760 0d39 170B0000 		.4byte	0xb17
 3761 0d3d 470D0000 		.4byte	0xd47
 3762 0d41 1C       		.uleb128 0x1c
 3763 0d42 01       		.uleb128 0x1
 3764 0d43 50       		.byte	0x50
 3765 0d44 01       		.uleb128 0x1
 3766 0d45 30       		.byte	0x30
 3767 0d46 00       		.byte	0
 3768 0d47 1B       		.uleb128 0x1b
 3769 0d48 AE010000 		.4byte	.LVL175
 3770 0d4c 9A0A0000 		.4byte	0xa9a
 3771 0d50 5B0D0000 		.4byte	0xd5b
 3772 0d54 1C       		.uleb128 0x1c
 3773 0d55 01       		.uleb128 0x1
 3774 0d56 50       		.byte	0x50
 3775 0d57 02       		.uleb128 0x2
 3776 0d58 74       		.byte	0x74
 3777 0d59 00       		.sleb128 0
 3778 0d5a 00       		.byte	0
 3779 0d5b 1A       		.uleb128 0x1a
 3780 0d5c B6010000 		.4byte	.LVL176
 3781 0d60 5E0B0000 		.4byte	0xb5e
 3782 0d64 1B       		.uleb128 0x1b
 3783 0d65 C4010000 		.4byte	.LVL177
 3784 0d69 D6130000 		.4byte	0x13d6
 3785 0d6d 770D0000 		.4byte	0xd77
 3786 0d71 1C       		.uleb128 0x1c
 3787 0d72 01       		.uleb128 0x1
 3788 0d73 50       		.byte	0x50
 3789 0d74 01       		.uleb128 0x1
 3790 0d75 30       		.byte	0x30
 3791 0d76 00       		.byte	0
 3792 0d77 1B       		.uleb128 0x1b
 3793 0d78 CA010000 		.4byte	.LVL178
 3794 0d7c 8F130000 		.4byte	0x138f
 3795 0d80 8A0D0000 		.4byte	0xd8a
 3796 0d84 1C       		.uleb128 0x1c
 3797 0d85 01       		.uleb128 0x1
 3798 0d86 50       		.byte	0x50
 3799 0d87 01       		.uleb128 0x1
 3800 0d88 35       		.byte	0x35
 3801 0d89 00       		.byte	0
 3802 0d8a 1D       		.uleb128 0x1d
 3803 0d8b D0010000 		.4byte	.LVL179
 3804 0d8f 53130000 		.4byte	0x1353
 3805 0d93 1C       		.uleb128 0x1c
 3806 0d94 01       		.uleb128 0x1
 3807 0d95 50       		.byte	0x50
 3808 0d96 01       		.uleb128 0x1
 3809 0d97 30       		.byte	0x30
 3810 0d98 00       		.byte	0
 3811 0d99 00       		.byte	0
 3812 0d9a 27       		.uleb128 0x27
 3813 0d9b 550A0000 		.4byte	.LASF125
 3814 0d9f 01       		.byte	0x1
 3815 0da0 5904     		.2byte	0x459
ARM GAS  C:\Users\PRICHA~1\AppData\Local\Temp\ccFt17DU.s 			page 97


 3816 0da2 2C000000 		.4byte	0x2c
 3817 0da6 00000000 		.4byte	.LFB45
 3818 0daa 40010000 		.4byte	.LFE45-.LFB45
 3819 0dae 01       		.uleb128 0x1
 3820 0daf 9C       		.byte	0x9c
 3821 0db0 F00F0000 		.4byte	0xff0
 3822 0db4 1E       		.uleb128 0x1e
 3823 0db5 7300     		.ascii	"s\000"
 3824 0db7 01       		.byte	0x1
 3825 0db8 5B04     		.2byte	0x45b
 3826 0dba A5000000 		.4byte	0xa5
 3827 0dbe CF040000 		.4byte	.LLST33
 3828 0dc2 1A       		.uleb128 0x1a
 3829 0dc3 08000000 		.4byte	.LVL180
 3830 0dc7 DF050000 		.4byte	0x5df
 3831 0dcb 1B       		.uleb128 0x1b
 3832 0dcc 0E000000 		.4byte	.LVL181
 3833 0dd0 EC130000 		.4byte	0x13ec
 3834 0dd4 DE0D0000 		.4byte	0xdde
 3835 0dd8 1C       		.uleb128 0x1c
 3836 0dd9 01       		.uleb128 0x1
 3837 0dda 50       		.byte	0x50
 3838 0ddb 01       		.uleb128 0x1
 3839 0ddc 31       		.byte	0x31
 3840 0ddd 00       		.byte	0
 3841 0dde 1B       		.uleb128 0x1b
 3842 0ddf 14000000 		.4byte	.LVL182
 3843 0de3 F7130000 		.4byte	0x13f7
 3844 0de7 F10D0000 		.4byte	0xdf1
 3845 0deb 1C       		.uleb128 0x1c
 3846 0dec 01       		.uleb128 0x1
 3847 0ded 50       		.byte	0x50
 3848 0dee 01       		.uleb128 0x1
 3849 0def 31       		.byte	0x31
 3850 0df0 00       		.byte	0
 3851 0df1 1B       		.uleb128 0x1b
 3852 0df2 28000000 		.4byte	.LVL183
 3853 0df6 0D140000 		.4byte	0x140d
 3854 0dfa 2A0E0000 		.4byte	0xe2a
 3855 0dfe 1C       		.uleb128 0x1c
 3856 0dff 01       		.uleb128 0x1
 3857 0e00 50       		.byte	0x50
 3858 0e01 05       		.uleb128 0x5
 3859 0e02 03       		.byte	0x3
 3860 0e03 00000000 		.4byte	PID_Task
 3861 0e07 1C       		.uleb128 0x1c
 3862 0e08 01       		.uleb128 0x1
 3863 0e09 51       		.byte	0x51
 3864 0e0a 05       		.uleb128 0x5
 3865 0e0b 03       		.byte	0x3
 3866 0e0c 00000000 		.4byte	.LC87
 3867 0e10 1C       		.uleb128 0x1c
 3868 0e11 01       		.uleb128 0x1
 3869 0e12 52       		.byte	0x52
 3870 0e13 02       		.uleb128 0x2
 3871 0e14 08       		.byte	0x8
 3872 0e15 40       		.byte	0x40
ARM GAS  C:\Users\PRICHA~1\AppData\Local\Temp\ccFt17DU.s 			page 98


 3873 0e16 1C       		.uleb128 0x1c
 3874 0e17 01       		.uleb128 0x1
 3875 0e18 53       		.byte	0x53
 3876 0e19 02       		.uleb128 0x2
 3877 0e1a 74       		.byte	0x74
 3878 0e1b 00       		.sleb128 0
 3879 0e1c 1C       		.uleb128 0x1c
 3880 0e1d 02       		.uleb128 0x2
 3881 0e1e 7D       		.byte	0x7d
 3882 0e1f 00       		.sleb128 0
 3883 0e20 01       		.uleb128 0x1
 3884 0e21 33       		.byte	0x33
 3885 0e22 1C       		.uleb128 0x1c
 3886 0e23 02       		.uleb128 0x2
 3887 0e24 7D       		.byte	0x7d
 3888 0e25 04       		.sleb128 4
 3889 0e26 02       		.uleb128 0x2
 3890 0e27 74       		.byte	0x74
 3891 0e28 00       		.sleb128 0
 3892 0e29 00       		.byte	0
 3893 0e2a 1B       		.uleb128 0x1b
 3894 0e2b 3A000000 		.4byte	.LVL184
 3895 0e2f 0D140000 		.4byte	0x140d
 3896 0e33 630E0000 		.4byte	0xe63
 3897 0e37 1C       		.uleb128 0x1c
 3898 0e38 01       		.uleb128 0x1
 3899 0e39 50       		.byte	0x50
 3900 0e3a 05       		.uleb128 0x5
 3901 0e3b 03       		.byte	0x3
 3902 0e3c 00000000 		.4byte	Comm_Task
 3903 0e40 1C       		.uleb128 0x1c
 3904 0e41 01       		.uleb128 0x1
 3905 0e42 51       		.byte	0x51
 3906 0e43 05       		.uleb128 0x5
 3907 0e44 03       		.byte	0x3
 3908 0e45 04000000 		.4byte	.LC90
 3909 0e49 1C       		.uleb128 0x1c
 3910 0e4a 01       		.uleb128 0x1
 3911 0e4b 52       		.byte	0x52
 3912 0e4c 02       		.uleb128 0x2
 3913 0e4d 08       		.byte	0x8
 3914 0e4e 64       		.byte	0x64
 3915 0e4f 1C       		.uleb128 0x1c
 3916 0e50 01       		.uleb128 0x1
 3917 0e51 53       		.byte	0x53
 3918 0e52 02       		.uleb128 0x2
 3919 0e53 74       		.byte	0x74
 3920 0e54 00       		.sleb128 0
 3921 0e55 1C       		.uleb128 0x1c
 3922 0e56 02       		.uleb128 0x2
 3923 0e57 7D       		.byte	0x7d
 3924 0e58 00       		.sleb128 0
 3925 0e59 01       		.uleb128 0x1
 3926 0e5a 32       		.byte	0x32
 3927 0e5b 1C       		.uleb128 0x1c
 3928 0e5c 02       		.uleb128 0x2
 3929 0e5d 7D       		.byte	0x7d
ARM GAS  C:\Users\PRICHA~1\AppData\Local\Temp\ccFt17DU.s 			page 99


 3930 0e5e 04       		.sleb128 4
 3931 0e5f 02       		.uleb128 0x2
 3932 0e60 74       		.byte	0x74
 3933 0e61 00       		.sleb128 0
 3934 0e62 00       		.byte	0
 3935 0e63 1B       		.uleb128 0x1b
 3936 0e64 4C000000 		.4byte	.LVL185
 3937 0e68 0D140000 		.4byte	0x140d
 3938 0e6c 9C0E0000 		.4byte	0xe9c
 3939 0e70 1C       		.uleb128 0x1c
 3940 0e71 01       		.uleb128 0x1
 3941 0e72 50       		.byte	0x50
 3942 0e73 05       		.uleb128 0x5
 3943 0e74 03       		.byte	0x3
 3944 0e75 00000000 		.4byte	Current_Read_Task
 3945 0e79 1C       		.uleb128 0x1c
 3946 0e7a 01       		.uleb128 0x1
 3947 0e7b 51       		.byte	0x51
 3948 0e7c 05       		.uleb128 0x5
 3949 0e7d 03       		.byte	0x3
 3950 0e7e 14000000 		.4byte	.LC93
 3951 0e82 1C       		.uleb128 0x1c
 3952 0e83 01       		.uleb128 0x1
 3953 0e84 52       		.byte	0x52
 3954 0e85 02       		.uleb128 0x2
 3955 0e86 08       		.byte	0x8
 3956 0e87 40       		.byte	0x40
 3957 0e88 1C       		.uleb128 0x1c
 3958 0e89 01       		.uleb128 0x1
 3959 0e8a 53       		.byte	0x53
 3960 0e8b 02       		.uleb128 0x2
 3961 0e8c 74       		.byte	0x74
 3962 0e8d 00       		.sleb128 0
 3963 0e8e 1C       		.uleb128 0x1c
 3964 0e8f 02       		.uleb128 0x2
 3965 0e90 7D       		.byte	0x7d
 3966 0e91 00       		.sleb128 0
 3967 0e92 01       		.uleb128 0x1
 3968 0e93 31       		.byte	0x31
 3969 0e94 1C       		.uleb128 0x1c
 3970 0e95 02       		.uleb128 0x2
 3971 0e96 7D       		.byte	0x7d
 3972 0e97 04       		.sleb128 4
 3973 0e98 02       		.uleb128 0x2
 3974 0e99 74       		.byte	0x74
 3975 0e9a 00       		.sleb128 0
 3976 0e9b 00       		.byte	0
 3977 0e9c 1B       		.uleb128 0x1b
 3978 0e9d 52000000 		.4byte	.LVL186
 3979 0ea1 19140000 		.4byte	0x1419
 3980 0ea5 AF0E0000 		.4byte	0xeaf
 3981 0ea9 1C       		.uleb128 0x1c
 3982 0eaa 01       		.uleb128 0x1
 3983 0eab 50       		.byte	0x50
 3984 0eac 01       		.uleb128 0x1
 3985 0ead 31       		.byte	0x31
 3986 0eae 00       		.byte	0
ARM GAS  C:\Users\PRICHA~1\AppData\Local\Temp\ccFt17DU.s 			page 100


 3987 0eaf 1B       		.uleb128 0x1b
 3988 0eb0 68000000 		.4byte	.LVL190
 3989 0eb4 25140000 		.4byte	0x1425
 3990 0eb8 C30E0000 		.4byte	0xec3
 3991 0ebc 1C       		.uleb128 0x1c
 3992 0ebd 01       		.uleb128 0x1
 3993 0ebe 50       		.byte	0x50
 3994 0ebf 02       		.uleb128 0x2
 3995 0ec0 74       		.byte	0x74
 3996 0ec1 00       		.sleb128 0
 3997 0ec2 00       		.byte	0
 3998 0ec3 1B       		.uleb128 0x1b
 3999 0ec4 70000000 		.4byte	.LVL191
 4000 0ec8 30140000 		.4byte	0x1430
 4001 0ecc D80E0000 		.4byte	0xed8
 4002 0ed0 1C       		.uleb128 0x1c
 4003 0ed1 01       		.uleb128 0x1
 4004 0ed2 50       		.byte	0x50
 4005 0ed3 03       		.uleb128 0x3
 4006 0ed4 0A       		.byte	0xa
 4007 0ed5 E803     		.2byte	0x3e8
 4008 0ed7 00       		.byte	0
 4009 0ed8 1B       		.uleb128 0x1b
 4010 0ed9 78000000 		.4byte	.LVL193
 4011 0edd 3B140000 		.4byte	0x143b
 4012 0ee1 EF0E0000 		.4byte	0xeef
 4013 0ee5 1C       		.uleb128 0x1c
 4014 0ee6 01       		.uleb128 0x1
 4015 0ee7 50       		.byte	0x50
 4016 0ee8 05       		.uleb128 0x5
 4017 0ee9 03       		.byte	0x3
 4018 0eea 00000000 		.4byte	HomeIsrHandler
 4019 0eee 00       		.byte	0
 4020 0eef 1B       		.uleb128 0x1b
 4021 0ef0 7E000000 		.4byte	.LVL194
 4022 0ef4 46140000 		.4byte	0x1446
 4023 0ef8 060F0000 		.4byte	0xf06
 4024 0efc 1C       		.uleb128 0x1c
 4025 0efd 01       		.uleb128 0x1
 4026 0efe 50       		.byte	0x50
 4027 0eff 05       		.uleb128 0x5
 4028 0f00 03       		.byte	0x3
 4029 0f01 00000000 		.4byte	RSTIsrHandler
 4030 0f05 00       		.byte	0
 4031 0f06 1B       		.uleb128 0x1b
 4032 0f07 84000000 		.4byte	.LVL195
 4033 0f0b 51140000 		.4byte	0x1451
 4034 0f0f 1D0F0000 		.4byte	0xf1d
 4035 0f13 1C       		.uleb128 0x1c
 4036 0f14 01       		.uleb128 0x1
 4037 0f15 50       		.byte	0x50
 4038 0f16 05       		.uleb128 0x5
 4039 0f17 03       		.byte	0x3
 4040 0f18 00000000 		.4byte	SPI_SS_IsrHandler
 4041 0f1c 00       		.byte	0
 4042 0f1d 1B       		.uleb128 0x1b
 4043 0f1e 8A000000 		.4byte	.LVL196
ARM GAS  C:\Users\PRICHA~1\AppData\Local\Temp\ccFt17DU.s 			page 101


 4044 0f22 5C140000 		.4byte	0x145c
 4045 0f26 300F0000 		.4byte	0xf30
 4046 0f2a 1C       		.uleb128 0x1c
 4047 0f2b 01       		.uleb128 0x1
 4048 0f2c 50       		.byte	0x50
 4049 0f2d 01       		.uleb128 0x1
 4050 0f2e 33       		.byte	0x33
 4051 0f2f 00       		.byte	0
 4052 0f30 1B       		.uleb128 0x1b
 4053 0f31 90000000 		.4byte	.LVL197
 4054 0f35 67140000 		.4byte	0x1467
 4055 0f39 430F0000 		.4byte	0xf43
 4056 0f3d 1C       		.uleb128 0x1c
 4057 0f3e 01       		.uleb128 0x1
 4058 0f3f 50       		.byte	0x50
 4059 0f40 01       		.uleb128 0x1
 4060 0f41 32       		.byte	0x32
 4061 0f42 00       		.byte	0
 4062 0f43 1B       		.uleb128 0x1b
 4063 0f44 96000000 		.4byte	.LVL198
 4064 0f48 72140000 		.4byte	0x1472
 4065 0f4c 560F0000 		.4byte	0xf56
 4066 0f50 1C       		.uleb128 0x1c
 4067 0f51 01       		.uleb128 0x1
 4068 0f52 50       		.byte	0x50
 4069 0f53 01       		.uleb128 0x1
 4070 0f54 33       		.byte	0x33
 4071 0f55 00       		.byte	0
 4072 0f56 1A       		.uleb128 0x1a
 4073 0f57 9C000000 		.4byte	.LVL199
 4074 0f5b 7D140000 		.4byte	0x147d
 4075 0f5f 1B       		.uleb128 0x1b
 4076 0f60 A2000000 		.4byte	.LVL200
 4077 0f64 30140000 		.4byte	0x1430
 4078 0f68 730F0000 		.4byte	0xf73
 4079 0f6c 1C       		.uleb128 0x1c
 4080 0f6d 01       		.uleb128 0x1
 4081 0f6e 50       		.byte	0x50
 4082 0f6f 02       		.uleb128 0x2
 4083 0f70 08       		.byte	0x8
 4084 0f71 64       		.byte	0x64
 4085 0f72 00       		.byte	0
 4086 0f73 1A       		.uleb128 0x1a
 4087 0f74 A6000000 		.4byte	.LVL201
 4088 0f78 88140000 		.4byte	0x1488
 4089 0f7c 1A       		.uleb128 0x1a
 4090 0f7d AA000000 		.4byte	.LVL202
 4091 0f81 93140000 		.4byte	0x1493
 4092 0f85 1B       		.uleb128 0x1b
 4093 0f86 B2000000 		.4byte	.LVL203
 4094 0f8a 9F140000 		.4byte	0x149f
 4095 0f8e 9A0F0000 		.4byte	0xf9a
 4096 0f92 1C       		.uleb128 0x1c
 4097 0f93 01       		.uleb128 0x1
 4098 0f94 50       		.byte	0x50
 4099 0f95 03       		.uleb128 0x3
 4100 0f96 0A       		.byte	0xa
ARM GAS  C:\Users\PRICHA~1\AppData\Local\Temp\ccFt17DU.s 			page 102


 4101 0f97 4006     		.2byte	0x640
 4102 0f99 00       		.byte	0
 4103 0f9a 1A       		.uleb128 0x1a
 4104 0f9b B8000000 		.4byte	.LVL204
 4105 0f9f 3B080000 		.4byte	0x83b
 4106 0fa3 1A       		.uleb128 0x1a
 4107 0fa4 C2000000 		.4byte	.LVL205
 4108 0fa8 AB140000 		.4byte	0x14ab
 4109 0fac 1B       		.uleb128 0x1b
 4110 0fad CA000000 		.4byte	.LVL206
 4111 0fb1 CD120000 		.4byte	0x12cd
 4112 0fb5 C00F0000 		.4byte	0xfc0
 4113 0fb9 1C       		.uleb128 0x1c
 4114 0fba 01       		.uleb128 0x1
 4115 0fbb 50       		.byte	0x50
 4116 0fbc 02       		.uleb128 0x2
 4117 0fbd 75       		.byte	0x75
 4118 0fbe 00       		.sleb128 0
 4119 0fbf 00       		.byte	0
 4120 0fc0 1A       		.uleb128 0x1a
 4121 0fc1 D2000000 		.4byte	.LVL207
 4122 0fc5 B6140000 		.4byte	0x14b6
 4123 0fc9 1B       		.uleb128 0x1b
 4124 0fca D8000000 		.4byte	.LVL208
 4125 0fce D8120000 		.4byte	0x12d8
 4126 0fd2 DD0F0000 		.4byte	0xfdd
 4127 0fd6 1C       		.uleb128 0x1c
 4128 0fd7 01       		.uleb128 0x1
 4129 0fd8 50       		.byte	0x50
 4130 0fd9 02       		.uleb128 0x2
 4131 0fda 74       		.byte	0x74
 4132 0fdb 00       		.sleb128 0
 4133 0fdc 00       		.byte	0
 4134 0fdd 1A       		.uleb128 0x1a
 4135 0fde DC000000 		.4byte	.LVL209
 4136 0fe2 0F130000 		.4byte	0x130f
 4137 0fe6 1A       		.uleb128 0x1a
 4138 0fe7 F2000000 		.4byte	.LVL210
 4139 0feb C1140000 		.4byte	0x14c1
 4140 0fef 00       		.byte	0
 4141 0ff0 2C       		.uleb128 0x2c
 4142 0ff1 92030000 		.4byte	.LASF126
 4143 0ff5 01       		.byte	0x1
 4144 0ff6 53       		.byte	0x53
 4145 0ff7 570B0000 		.4byte	0xb57
 4146 0ffb 05       		.uleb128 0x5
 4147 0ffc 03       		.byte	0x3
 4148 0ffd 00000000 		.4byte	inAuto
 4149 1001 2D       		.uleb128 0x2d
 4150 1002 4A6F6700 		.ascii	"Jog\000"
 4151 1006 01       		.byte	0x1
 4152 1007 55       		.byte	0x55
 4153 1008 12100000 		.4byte	0x1012
 4154 100c 05       		.uleb128 0x5
 4155 100d 03       		.byte	0x3
 4156 100e 00000000 		.4byte	Jog
 4157 1012 06       		.uleb128 0x6
ARM GAS  C:\Users\PRICHA~1\AppData\Local\Temp\ccFt17DU.s 			page 103


 4158 1013 C9000000 		.4byte	0xc9
 4159 1017 2C       		.uleb128 0x2c
 4160 1018 54010000 		.4byte	.LASF127
 4161 101c 01       		.byte	0x1
 4162 101d 55       		.byte	0x55
 4163 101e 12100000 		.4byte	0x1012
 4164 1022 05       		.uleb128 0x5
 4165 1023 03       		.byte	0x3
 4166 1024 00000000 		.4byte	LastJog
 4167 1028 2C       		.uleb128 0x2c
 4168 1029 61070000 		.4byte	.LASF128
 4169 102d 01       		.byte	0x1
 4170 102e 56       		.byte	0x56
 4171 102f 570B0000 		.4byte	0xb57
 4172 1033 05       		.uleb128 0x5
 4173 1034 03       		.byte	0x3
 4174 1035 00000000 		.4byte	PID_Enabled
 4175 1039 2C       		.uleb128 0x2c
 4176 103a 51070000 		.4byte	.LASF129
 4177 103e 01       		.byte	0x1
 4178 103f 56       		.byte	0x56
 4179 1040 570B0000 		.4byte	0xb57
 4180 1044 05       		.uleb128 0x5
 4181 1045 03       		.byte	0x3
 4182 1046 00000000 		.4byte	PID_Was_Enabled
 4183 104a 2C       		.uleb128 0x2c
 4184 104b 43080000 		.4byte	.LASF130
 4185 104f 01       		.byte	0x1
 4186 1050 57       		.byte	0x57
 4187 1051 E1000000 		.4byte	0xe1
 4188 1055 05       		.uleb128 0x5
 4189 1056 03       		.byte	0x3
 4190 1057 00000000 		.4byte	PID_Setpoint
 4191 105b 2C       		.uleb128 0x2c
 4192 105c 0B0B0000 		.4byte	.LASF131
 4193 1060 01       		.byte	0x1
 4194 1061 57       		.byte	0x57
 4195 1062 E1000000 		.4byte	0xe1
 4196 1066 05       		.uleb128 0x5
 4197 1067 03       		.byte	0x3
 4198 1068 00000000 		.4byte	PID_EffectiveSetpoint
 4199 106c 2C       		.uleb128 0x2c
 4200 106d 24020000 		.4byte	.LASF132
 4201 1071 01       		.byte	0x1
 4202 1072 58       		.byte	0x58
 4203 1073 A5000000 		.4byte	0xa5
 4204 1077 05       		.uleb128 0x5
 4205 1078 03       		.byte	0x3
 4206 1079 00000000 		.4byte	PID_EffSetDelta
 4207 107d 2C       		.uleb128 0x2c
 4208 107e 42020000 		.4byte	.LASF133
 4209 1082 01       		.byte	0x1
 4210 1083 59       		.byte	0x59
 4211 1084 BD000000 		.4byte	0xbd
 4212 1088 05       		.uleb128 0x5
 4213 1089 03       		.byte	0x3
 4214 108a 00000000 		.4byte	lastTime
ARM GAS  C:\Users\PRICHA~1\AppData\Local\Temp\ccFt17DU.s 			page 104


 4215 108e 2C       		.uleb128 0x2c
 4216 108f 0E070000 		.4byte	.LASF134
 4217 1093 01       		.byte	0x1
 4218 1094 5A       		.byte	0x5a
 4219 1095 25000000 		.4byte	0x25
 4220 1099 05       		.uleb128 0x5
 4221 109a 03       		.byte	0x3
 4222 109b 00000000 		.4byte	Output
 4223 109f 2C       		.uleb128 0x2c
 4224 10a0 6F020000 		.4byte	.LASF135
 4225 10a4 01       		.byte	0x1
 4226 10a5 5B       		.byte	0x5b
 4227 10a6 25000000 		.4byte	0x25
 4228 10aa 05       		.uleb128 0x5
 4229 10ab 03       		.byte	0x3
 4230 10ac 00000000 		.4byte	ITerm
 4231 10b0 2C       		.uleb128 0x2c
 4232 10b1 5E040000 		.4byte	.LASF136
 4233 10b5 01       		.byte	0x1
 4234 10b6 5C       		.byte	0x5c
 4235 10b7 C3080000 		.4byte	0x8c3
 4236 10bb 05       		.uleb128 0x5
 4237 10bc 03       		.byte	0x3
 4238 10bd 00000000 		.4byte	Position
 4239 10c1 2C       		.uleb128 0x2c
 4240 10c2 33060000 		.4byte	.LASF137
 4241 10c6 01       		.byte	0x1
 4242 10c7 5C       		.byte	0x5c
 4243 10c8 C3080000 		.4byte	0x8c3
 4244 10cc 05       		.uleb128 0x5
 4245 10cd 03       		.byte	0x3
 4246 10ce 00000000 		.4byte	LastPosition
 4247 10d2 2C       		.uleb128 0x2c
 4248 10d3 EA090000 		.4byte	.LASF138
 4249 10d7 01       		.byte	0x1
 4250 10d8 5D       		.byte	0x5d
 4251 10d9 25000000 		.4byte	0x25
 4252 10dd 05       		.uleb128 0x5
 4253 10de 03       		.byte	0x3
 4254 10df 00000000 		.4byte	refKp
 4255 10e3 2C       		.uleb128 0x2c
 4256 10e4 BE090000 		.4byte	.LASF139
 4257 10e8 01       		.byte	0x1
 4258 10e9 5D       		.byte	0x5d
 4259 10ea 25000000 		.4byte	0x25
 4260 10ee 05       		.uleb128 0x5
 4261 10ef 03       		.byte	0x3
 4262 10f0 00000000 		.4byte	refKi
 4263 10f4 2C       		.uleb128 0x2c
 4264 10f5 B8090000 		.4byte	.LASF140
 4265 10f9 01       		.byte	0x1
 4266 10fa 5D       		.byte	0x5d
 4267 10fb 25000000 		.4byte	0x25
 4268 10ff 05       		.uleb128 0x5
 4269 1100 03       		.byte	0x3
 4270 1101 00000000 		.4byte	refKd
 4271 1105 2D       		.uleb128 0x2d
ARM GAS  C:\Users\PRICHA~1\AppData\Local\Temp\ccFt17DU.s 			page 105


 4272 1106 6B7000   		.ascii	"kp\000"
 4273 1109 01       		.byte	0x1
 4274 110a 5E       		.byte	0x5e
 4275 110b 25000000 		.4byte	0x25
 4276 110f 05       		.uleb128 0x5
 4277 1110 03       		.byte	0x3
 4278 1111 00000000 		.4byte	kp
 4279 1115 2D       		.uleb128 0x2d
 4280 1116 6B6900   		.ascii	"ki\000"
 4281 1119 01       		.byte	0x1
 4282 111a 5E       		.byte	0x5e
 4283 111b 25000000 		.4byte	0x25
 4284 111f 05       		.uleb128 0x5
 4285 1120 03       		.byte	0x3
 4286 1121 00000000 		.4byte	ki
 4287 1125 2D       		.uleb128 0x2d
 4288 1126 6B6400   		.ascii	"kd\000"
 4289 1129 01       		.byte	0x1
 4290 112a 5E       		.byte	0x5e
 4291 112b 25000000 		.4byte	0x25
 4292 112f 05       		.uleb128 0x5
 4293 1130 03       		.byte	0x3
 4294 1131 00000000 		.4byte	kd
 4295 1135 2C       		.uleb128 0x2c
 4296 1136 25060000 		.4byte	.LASF141
 4297 113a 01       		.byte	0x1
 4298 113b 5F       		.byte	0x5f
 4299 113c BD000000 		.4byte	0xbd
 4300 1140 05       		.uleb128 0x5
 4301 1141 03       		.byte	0x3
 4302 1142 00000000 		.4byte	refSampleTime
 4303 1146 2C       		.uleb128 0x2c
 4304 1147 58030000 		.4byte	.LASF142
 4305 114b 01       		.byte	0x1
 4306 114c 60       		.byte	0x60
 4307 114d 25000000 		.4byte	0x25
 4308 1151 05       		.uleb128 0x5
 4309 1152 03       		.byte	0x3
 4310 1153 00000000 		.4byte	outMax_Total
 4311 1157 2C       		.uleb128 0x2c
 4312 1158 1B080000 		.4byte	.LASF143
 4313 115c 01       		.byte	0x1
 4314 115d 60       		.byte	0x60
 4315 115e 25000000 		.4byte	0x25
 4316 1162 05       		.uleb128 0x5
 4317 1163 03       		.byte	0x3
 4318 1164 00000000 		.4byte	outMax_ITerm
 4319 1168 2C       		.uleb128 0x2c
 4320 1169 33000000 		.4byte	.LASF144
 4321 116d 01       		.byte	0x1
 4322 116e 61       		.byte	0x61
 4323 116f 25000000 		.4byte	0x25
 4324 1173 05       		.uleb128 0x5
 4325 1174 03       		.byte	0x3
 4326 1175 00000000 		.4byte	pwmLimit
 4327 1179 2C       		.uleb128 0x2c
 4328 117a 3C080000 		.4byte	.LASF145
ARM GAS  C:\Users\PRICHA~1\AppData\Local\Temp\ccFt17DU.s 			page 106


 4329 117e 01       		.byte	0x1
 4330 117f 61       		.byte	0x61
 4331 1180 25000000 		.4byte	0x25
 4332 1184 05       		.uleb128 0x5
 4333 1185 03       		.byte	0x3
 4334 1186 00000000 		.4byte	pwmMax
 4335 118a 2C       		.uleb128 0x2c
 4336 118b 4B020000 		.4byte	.LASF146
 4337 118f 01       		.byte	0x1
 4338 1190 61       		.byte	0x61
 4339 1191 25000000 		.4byte	0x25
 4340 1195 05       		.uleb128 0x5
 4341 1196 03       		.byte	0x3
 4342 1197 00000000 		.4byte	pwmMin
 4343 119b 2C       		.uleb128 0x2c
 4344 119c B2020000 		.4byte	.LASF147
 4345 11a0 01       		.byte	0x1
 4346 11a1 CD       		.byte	0xcd
 4347 11a2 AC110000 		.4byte	0x11ac
 4348 11a6 05       		.uleb128 0x5
 4349 11a7 03       		.byte	0x3
 4350 11a8 00000000 		.4byte	ConfigState
 4351 11ac 06       		.uleb128 0x6
 4352 11ad C2010000 		.4byte	0x1c2
 4353 11b1 2C       		.uleb128 0x2c
 4354 11b2 79090000 		.4byte	.LASF148
 4355 11b6 01       		.byte	0x1
 4356 11b7 CE       		.byte	0xce
 4357 11b8 FB000000 		.4byte	0xfb
 4358 11bc 05       		.uleb128 0x5
 4359 11bd 03       		.byte	0x3
 4360 11be 00000000 		.4byte	FaultState
 4361 11c2 2C       		.uleb128 0x2c
 4362 11c3 9F090000 		.4byte	.LASF149
 4363 11c7 01       		.byte	0x1
 4364 11c8 CF       		.byte	0xcf
 4365 11c9 FB000000 		.4byte	0xfb
 4366 11cd 05       		.uleb128 0x5
 4367 11ce 03       		.byte	0x3
 4368 11cf 00000000 		.4byte	ConfigSequence
 4369 11d3 2C       		.uleb128 0x2c
 4370 11d4 AF080000 		.4byte	.LASF150
 4371 11d8 01       		.byte	0x1
 4372 11d9 D0       		.byte	0xd0
 4373 11da 00010000 		.4byte	0x100
 4374 11de 05       		.uleb128 0x5
 4375 11df 03       		.byte	0x3
 4376 11e0 00000000 		.4byte	ChecksumErrors
 4377 11e4 2C       		.uleb128 0x2c
 4378 11e5 98000000 		.4byte	.LASF151
 4379 11e9 01       		.byte	0x1
 4380 11ea D1       		.byte	0xd1
 4381 11eb 11080000 		.4byte	0x811
 4382 11ef 05       		.uleb128 0x5
 4383 11f0 03       		.byte	0x3
 4384 11f1 00000000 		.4byte	Current
 4385 11f5 2D       		.uleb128 0x2d
ARM GAS  C:\Users\PRICHA~1\AppData\Local\Temp\ccFt17DU.s 			page 107


 4386 11f6 50574D00 		.ascii	"PWM\000"
 4387 11fa 01       		.byte	0x1
 4388 11fb D2       		.byte	0xd2
 4389 11fc 06120000 		.4byte	0x1206
 4390 1200 05       		.uleb128 0x5
 4391 1201 03       		.byte	0x3
 4392 1202 00000000 		.4byte	PWM
 4393 1206 06       		.uleb128 0x6
 4394 1207 25000000 		.4byte	0x25
 4395 120b 16       		.uleb128 0x16
 4396 120c A5000000 		.4byte	0xa5
 4397 1210 1B120000 		.4byte	0x121b
 4398 1214 17       		.uleb128 0x17
 4399 1215 29010000 		.4byte	0x129
 4400 1219 13       		.byte	0x13
 4401 121a 00       		.byte	0
 4402 121b 2C       		.uleb128 0x2c
 4403 121c 15060000 		.4byte	.LASF152
 4404 1220 01       		.byte	0x1
 4405 1221 D3       		.byte	0xd3
 4406 1222 0B120000 		.4byte	0x120b
 4407 1226 05       		.uleb128 0x5
 4408 1227 03       		.byte	0x3
 4409 1228 00000000 		.4byte	CurrentI2Cinbuf
 4410 122c 2C       		.uleb128 0x2c
 4411 122d 28080000 		.4byte	.LASF153
 4412 1231 01       		.byte	0x1
 4413 1232 D6       		.byte	0xd6
 4414 1233 98010000 		.4byte	0x198
 4415 1237 05       		.uleb128 0x5
 4416 1238 03       		.byte	0x3
 4417 1239 00000000 		.4byte	uxHighWaterMark_PID
 4418 123d 2C       		.uleb128 0x2c
 4419 123e 87060000 		.4byte	.LASF154
 4420 1242 01       		.byte	0x1
 4421 1243 D7       		.byte	0xd7
 4422 1244 98010000 		.4byte	0x198
 4423 1248 05       		.uleb128 0x5
 4424 1249 03       		.byte	0x3
 4425 124a 00000000 		.4byte	uxHighWaterMark_Current
 4426 124e 2C       		.uleb128 0x2c
 4427 124f 940A0000 		.4byte	.LASF155
 4428 1253 01       		.byte	0x1
 4429 1254 D8       		.byte	0xd8
 4430 1255 98010000 		.4byte	0x198
 4431 1259 05       		.uleb128 0x5
 4432 125a 03       		.byte	0x3
 4433 125b 00000000 		.4byte	uxHighWaterMark_Comm
 4434 125f 2C       		.uleb128 0x2c
 4435 1260 46000000 		.4byte	.LASF156
 4436 1264 01       		.byte	0x1
 4437 1265 DB       		.byte	0xdb
 4438 1266 8D010000 		.4byte	0x18d
 4439 126a 05       		.uleb128 0x5
 4440 126b 03       		.byte	0x3
 4441 126c 00000000 		.4byte	Lock
 4442 1270 2C       		.uleb128 0x2c
ARM GAS  C:\Users\PRICHA~1\AppData\Local\Temp\ccFt17DU.s 			page 108


 4443 1271 61060000 		.4byte	.LASF157
 4444 1275 01       		.byte	0x1
 4445 1276 ED       		.byte	0xed
 4446 1277 BD000000 		.4byte	0xbd
 4447 127b 05       		.uleb128 0x5
 4448 127c 03       		.byte	0x3
 4449 127d 00000000 		.4byte	LastMessageTimeTick
 4450 1281 2E       		.uleb128 0x2e
 4451 1282 22000000 		.4byte	.LASF158
 4452 1286 01       		.byte	0x1
 4453 1287 2201     		.2byte	0x122
 4454 1289 8F030000 		.4byte	0x38f
 4455 128d 05       		.uleb128 0x5
 4456 128e 03       		.byte	0x3
 4457 128f 00000000 		.4byte	rxMessage
 4458 1293 2E       		.uleb128 0x2e
 4459 1294 40060000 		.4byte	.LASF159
 4460 1298 01       		.byte	0x1
 4461 1299 3901     		.2byte	0x139
 4462 129b 98040000 		.4byte	0x498
 4463 129f 05       		.uleb128 0x5
 4464 12a0 03       		.byte	0x3
 4465 12a1 00000000 		.4byte	txMessage
 4466 12a5 2E       		.uleb128 0x2e
 4467 12a6 C9070000 		.4byte	.LASF160
 4468 12aa 01       		.byte	0x1
 4469 12ab 4101     		.2byte	0x141
 4470 12ad D4040000 		.4byte	0x4d4
 4471 12b1 05       		.uleb128 0x5
 4472 12b2 03       		.byte	0x3
 4473 12b3 00000000 		.4byte	txMessageState
 4474 12b7 2F       		.uleb128 0x2f
 4475 12b8 15050000 		.4byte	.LASF161
 4476 12bc 15050000 		.4byte	.LASF161
 4477 12c0 08       		.byte	0x8
 4478 12c1 28       		.byte	0x28
 4479 12c2 2F       		.uleb128 0x2f
 4480 12c3 CD090000 		.4byte	.LASF162
 4481 12c7 CD090000 		.4byte	.LASF162
 4482 12cb 09       		.byte	0x9
 4483 12cc 39       		.byte	0x39
 4484 12cd 2F       		.uleb128 0x2f
 4485 12ce 4A060000 		.4byte	.LASF163
 4486 12d2 4A060000 		.4byte	.LASF163
 4487 12d6 0A       		.byte	0xa
 4488 12d7 5A       		.byte	0x5a
 4489 12d8 2F       		.uleb128 0x2f
 4490 12d9 52020000 		.4byte	.LASF164
 4491 12dd 52020000 		.4byte	.LASF164
 4492 12e1 0B       		.byte	0xb
 4493 12e2 5A       		.byte	0x5a
 4494 12e3 2F       		.uleb128 0x2f
 4495 12e4 CA0A0000 		.4byte	.LASF165
 4496 12e8 CA0A0000 		.4byte	.LASF165
 4497 12ec 0C       		.byte	0xc
 4498 12ed 28       		.byte	0x28
 4499 12ee 2F       		.uleb128 0x2f
ARM GAS  C:\Users\PRICHA~1\AppData\Local\Temp\ccFt17DU.s 			page 109


 4500 12ef D0000000 		.4byte	.LASF166
 4501 12f3 D0000000 		.4byte	.LASF166
 4502 12f7 0D       		.byte	0xd
 4503 12f8 39       		.byte	0x39
 4504 12f9 2F       		.uleb128 0x2f
 4505 12fa C9030000 		.4byte	.LASF167
 4506 12fe C9030000 		.4byte	.LASF167
 4507 1302 0E       		.byte	0xe
 4508 1303 39       		.byte	0x39
 4509 1304 2F       		.uleb128 0x2f
 4510 1305 FA010000 		.4byte	.LASF168
 4511 1309 FA010000 		.4byte	.LASF168
 4512 130d 0E       		.byte	0xe
 4513 130e 32       		.byte	0x32
 4514 130f 30       		.uleb128 0x30
 4515 1310 71050000 		.4byte	.LASF169
 4516 1314 71050000 		.4byte	.LASF169
 4517 1318 0F       		.byte	0xf
 4518 1319 3E05     		.2byte	0x53e
 4519 131b 31       		.uleb128 0x31
 4520 131c DA050000 		.4byte	.LASF211
 4521 1320 DA050000 		.4byte	.LASF211
 4522 1324 30       		.uleb128 0x30
 4523 1325 63080000 		.4byte	.LASF170
 4524 1329 63080000 		.4byte	.LASF170
 4525 132d 10       		.byte	0x10
 4526 132e 3D03     		.2byte	0x33d
 4527 1330 30       		.uleb128 0x30
 4528 1331 94040000 		.4byte	.LASF171
 4529 1335 94040000 		.4byte	.LASF171
 4530 1339 10       		.byte	0x10
 4531 133a 3F03     		.2byte	0x33f
 4532 133c 30       		.uleb128 0x30
 4533 133d 64010000 		.4byte	.LASF172
 4534 1341 64010000 		.4byte	.LASF172
 4535 1345 10       		.byte	0x10
 4536 1346 4703     		.2byte	0x347
 4537 1348 2F       		.uleb128 0x2f
 4538 1349 91070000 		.4byte	.LASF173
 4539 134d 91070000 		.4byte	.LASF173
 4540 1351 11       		.byte	0x11
 4541 1352 BA       		.byte	0xba
 4542 1353 30       		.uleb128 0x30
 4543 1354 84020000 		.4byte	.LASF174
 4544 1358 84020000 		.4byte	.LASF174
 4545 135c 0F       		.byte	0xf
 4546 135d 8E05     		.2byte	0x58e
 4547 135f 30       		.uleb128 0x30
 4548 1360 7B080000 		.4byte	.LASF175
 4549 1364 7B080000 		.4byte	.LASF175
 4550 1368 12       		.byte	0x12
 4551 1369 1B01     		.2byte	0x11b
 4552 136b 30       		.uleb128 0x30
 4553 136c 74000000 		.4byte	.LASF176
 4554 1370 74000000 		.4byte	.LASF176
 4555 1374 12       		.byte	0x12
 4556 1375 1E01     		.2byte	0x11e
ARM GAS  C:\Users\PRICHA~1\AppData\Local\Temp\ccFt17DU.s 			page 110


 4557 1377 30       		.uleb128 0x30
 4558 1378 32050000 		.4byte	.LASF177
 4559 137c 32050000 		.4byte	.LASF177
 4560 1380 12       		.byte	0x12
 4561 1381 1D01     		.2byte	0x11d
 4562 1383 30       		.uleb128 0x30
 4563 1384 1E010000 		.4byte	.LASF178
 4564 1388 1E010000 		.4byte	.LASF178
 4565 138c 12       		.byte	0x12
 4566 138d 1401     		.2byte	0x114
 4567 138f 30       		.uleb128 0x30
 4568 1390 72030000 		.4byte	.LASF179
 4569 1394 72030000 		.4byte	.LASF179
 4570 1398 0F       		.byte	0xf
 4571 1399 ED02     		.2byte	0x2ed
 4572 139b 30       		.uleb128 0x30
 4573 139c FB040000 		.4byte	.LASF180
 4574 13a0 FB040000 		.4byte	.LASF180
 4575 13a4 13       		.byte	0x13
 4576 13a5 5501     		.2byte	0x155
 4577 13a7 2F       		.uleb128 0x2f
 4578 13a8 EB030000 		.4byte	.LASF181
 4579 13ac EB030000 		.4byte	.LASF181
 4580 13b0 0A       		.byte	0xa
 4581 13b1 5D       		.byte	0x5d
 4582 13b2 30       		.uleb128 0x30
 4583 13b3 9F030000 		.4byte	.LASF182
 4584 13b7 9F030000 		.4byte	.LASF182
 4585 13bb 06       		.byte	0x6
 4586 13bc 8805     		.2byte	0x588
 4587 13be 30       		.uleb128 0x30
 4588 13bf B3030000 		.4byte	.LASF183
 4589 13c3 B3030000 		.4byte	.LASF183
 4590 13c7 10       		.byte	0x10
 4591 13c8 4503     		.2byte	0x345
 4592 13ca 30       		.uleb128 0x30
 4593 13cb 01040000 		.4byte	.LASF184
 4594 13cf 01040000 		.4byte	.LASF184
 4595 13d3 06       		.byte	0x6
 4596 13d4 8802     		.2byte	0x288
 4597 13d6 2F       		.uleb128 0x2f
 4598 13d7 0A0A0000 		.4byte	.LASF185
 4599 13db 0A0A0000 		.4byte	.LASF185
 4600 13df 14       		.byte	0x14
 4601 13e0 33       		.byte	0x33
 4602 13e1 2F       		.uleb128 0x2f
 4603 13e2 C4050000 		.4byte	.LASF186
 4604 13e6 C4050000 		.4byte	.LASF186
 4605 13ea 15       		.byte	0x15
 4606 13eb 77       		.byte	0x77
 4607 13ec 2F       		.uleb128 0x2f
 4608 13ed D8070000 		.4byte	.LASF187
 4609 13f1 D8070000 		.4byte	.LASF187
 4610 13f5 16       		.byte	0x16
 4611 13f6 36       		.byte	0x36
 4612 13f7 2F       		.uleb128 0x2f
 4613 13f8 E3010000 		.4byte	.LASF188
ARM GAS  C:\Users\PRICHA~1\AppData\Local\Temp\ccFt17DU.s 			page 111


 4614 13fc E3010000 		.4byte	.LASF188
 4615 1400 17       		.byte	0x17
 4616 1401 36       		.byte	0x36
 4617 1402 2F       		.uleb128 0x2f
 4618 1403 EE080000 		.4byte	.LASF189
 4619 1407 EE080000 		.4byte	.LASF189
 4620 140b 0B       		.byte	0xb
 4621 140c 5D       		.byte	0x5d
 4622 140d 30       		.uleb128 0x30
 4623 140e D8040000 		.4byte	.LASF190
 4624 1412 D8040000 		.4byte	.LASF190
 4625 1416 0F       		.byte	0xf
 4626 1417 4101     		.2byte	0x141
 4627 1419 30       		.uleb128 0x30
 4628 141a 48050000 		.4byte	.LASF191
 4629 141e 48050000 		.4byte	.LASF191
 4630 1422 06       		.byte	0x6
 4631 1423 8405     		.2byte	0x584
 4632 1425 2F       		.uleb128 0x2f
 4633 1426 ED000000 		.4byte	.LASF192
 4634 142a ED000000 		.4byte	.LASF192
 4635 142e 18       		.byte	0x18
 4636 142f 33       		.byte	0x33
 4637 1430 2F       		.uleb128 0x2f
 4638 1431 AF040000 		.4byte	.LASF193
 4639 1435 AF040000 		.4byte	.LASF193
 4640 1439 11       		.byte	0x11
 4641 143a D9       		.byte	0xd9
 4642 143b 2F       		.uleb128 0x2f
 4643 143c 160A0000 		.4byte	.LASF194
 4644 1440 160A0000 		.4byte	.LASF194
 4645 1444 0C       		.byte	0xc
 4646 1445 18       		.byte	0x18
 4647 1446 2F       		.uleb128 0x2f
 4648 1447 B20A0000 		.4byte	.LASF195
 4649 144b B20A0000 		.4byte	.LASF195
 4650 144f 08       		.byte	0x8
 4651 1450 18       		.byte	0x18
 4652 1451 2F       		.uleb128 0x2f
 4653 1452 C1010000 		.4byte	.LASF196
 4654 1456 C1010000 		.4byte	.LASF196
 4655 145a 19       		.byte	0x19
 4656 145b 18       		.byte	0x18
 4657 145c 2F       		.uleb128 0x2f
 4658 145d D9080000 		.4byte	.LASF197
 4659 1461 D9080000 		.4byte	.LASF197
 4660 1465 0C       		.byte	0xc
 4661 1466 20       		.byte	0x20
 4662 1467 2F       		.uleb128 0x2f
 4663 1468 42040000 		.4byte	.LASF198
 4664 146c 42040000 		.4byte	.LASF198
 4665 1470 08       		.byte	0x8
 4666 1471 20       		.byte	0x20
 4667 1472 2F       		.uleb128 0x2f
 4668 1473 5A050000 		.4byte	.LASF199
 4669 1477 5A050000 		.4byte	.LASF199
 4670 147b 19       		.byte	0x19
ARM GAS  C:\Users\PRICHA~1\AppData\Local\Temp\ccFt17DU.s 			page 112


 4671 147c 20       		.byte	0x20
 4672 147d 2F       		.uleb128 0x2f
 4673 147e 4A010000 		.4byte	.LASF200
 4674 1482 4A010000 		.4byte	.LASF200
 4675 1486 1A       		.byte	0x1a
 4676 1487 72       		.byte	0x72
 4677 1488 2F       		.uleb128 0x2f
 4678 1489 38090000 		.4byte	.LASF201
 4679 148d 38090000 		.4byte	.LASF201
 4680 1491 1B       		.byte	0x1b
 4681 1492 72       		.byte	0x72
 4682 1493 30       		.uleb128 0x30
 4683 1494 A0000000 		.4byte	.LASF202
 4684 1498 A0000000 		.4byte	.LASF202
 4685 149c 13       		.byte	0x13
 4686 149d 3201     		.2byte	0x132
 4687 149f 30       		.uleb128 0x30
 4688 14a0 A0020000 		.4byte	.LASF203
 4689 14a4 A0020000 		.4byte	.LASF203
 4690 14a8 13       		.byte	0x13
 4691 14a9 5001     		.2byte	0x150
 4692 14ab 2F       		.uleb128 0x2f
 4693 14ac 52090000 		.4byte	.LASF204
 4694 14b0 52090000 		.4byte	.LASF204
 4695 14b4 0A       		.byte	0xa
 4696 14b5 4F       		.byte	0x4f
 4697 14b6 2F       		.uleb128 0x2f
 4698 14b7 7E0A0000 		.4byte	.LASF205
 4699 14bb 7E0A0000 		.4byte	.LASF205
 4700 14bf 0B       		.byte	0xb
 4701 14c0 4F       		.byte	0x4f
 4702 14c1 30       		.uleb128 0x30
 4703 14c2 1C090000 		.4byte	.LASF206
 4704 14c6 1C090000 		.4byte	.LASF206
 4705 14ca 0F       		.byte	0xf
 4706 14cb 8E04     		.2byte	0x48e
 4707 14cd 00       		.byte	0
 4708              		.section	.debug_abbrev,"",%progbits
 4709              	.Ldebug_abbrev0:
 4710 0000 01       		.uleb128 0x1
 4711 0001 11       		.uleb128 0x11
 4712 0002 01       		.byte	0x1
 4713 0003 25       		.uleb128 0x25
 4714 0004 0E       		.uleb128 0xe
 4715 0005 13       		.uleb128 0x13
 4716 0006 0B       		.uleb128 0xb
 4717 0007 03       		.uleb128 0x3
 4718 0008 0E       		.uleb128 0xe
 4719 0009 1B       		.uleb128 0x1b
 4720 000a 0E       		.uleb128 0xe
 4721 000b 55       		.uleb128 0x55
 4722 000c 17       		.uleb128 0x17
 4723 000d 11       		.uleb128 0x11
 4724 000e 01       		.uleb128 0x1
 4725 000f 10       		.uleb128 0x10
 4726 0010 17       		.uleb128 0x17
 4727 0011 00       		.byte	0
ARM GAS  C:\Users\PRICHA~1\AppData\Local\Temp\ccFt17DU.s 			page 113


 4728 0012 00       		.byte	0
 4729 0013 02       		.uleb128 0x2
 4730 0014 24       		.uleb128 0x24
 4731 0015 00       		.byte	0
 4732 0016 0B       		.uleb128 0xb
 4733 0017 0B       		.uleb128 0xb
 4734 0018 3E       		.uleb128 0x3e
 4735 0019 0B       		.uleb128 0xb
 4736 001a 03       		.uleb128 0x3
 4737 001b 0E       		.uleb128 0xe
 4738 001c 00       		.byte	0
 4739 001d 00       		.byte	0
 4740 001e 03       		.uleb128 0x3
 4741 001f 24       		.uleb128 0x24
 4742 0020 00       		.byte	0
 4743 0021 0B       		.uleb128 0xb
 4744 0022 0B       		.uleb128 0xb
 4745 0023 3E       		.uleb128 0x3e
 4746 0024 0B       		.uleb128 0xb
 4747 0025 03       		.uleb128 0x3
 4748 0026 08       		.uleb128 0x8
 4749 0027 00       		.byte	0
 4750 0028 00       		.byte	0
 4751 0029 04       		.uleb128 0x4
 4752 002a 16       		.uleb128 0x16
 4753 002b 00       		.byte	0
 4754 002c 03       		.uleb128 0x3
 4755 002d 0E       		.uleb128 0xe
 4756 002e 3A       		.uleb128 0x3a
 4757 002f 0B       		.uleb128 0xb
 4758 0030 3B       		.uleb128 0x3b
 4759 0031 0B       		.uleb128 0xb
 4760 0032 49       		.uleb128 0x49
 4761 0033 13       		.uleb128 0x13
 4762 0034 00       		.byte	0
 4763 0035 00       		.byte	0
 4764 0036 05       		.uleb128 0x5
 4765 0037 16       		.uleb128 0x16
 4766 0038 00       		.byte	0
 4767 0039 03       		.uleb128 0x3
 4768 003a 0E       		.uleb128 0xe
 4769 003b 3A       		.uleb128 0x3a
 4770 003c 0B       		.uleb128 0xb
 4771 003d 3B       		.uleb128 0x3b
 4772 003e 05       		.uleb128 0x5
 4773 003f 49       		.uleb128 0x49
 4774 0040 13       		.uleb128 0x13
 4775 0041 00       		.byte	0
 4776 0042 00       		.byte	0
 4777 0043 06       		.uleb128 0x6
 4778 0044 35       		.uleb128 0x35
 4779 0045 00       		.byte	0
 4780 0046 49       		.uleb128 0x49
 4781 0047 13       		.uleb128 0x13
 4782 0048 00       		.byte	0
 4783 0049 00       		.byte	0
 4784 004a 07       		.uleb128 0x7
ARM GAS  C:\Users\PRICHA~1\AppData\Local\Temp\ccFt17DU.s 			page 114


 4785 004b 0F       		.uleb128 0xf
 4786 004c 00       		.byte	0
 4787 004d 0B       		.uleb128 0xb
 4788 004e 0B       		.uleb128 0xb
 4789 004f 49       		.uleb128 0x49
 4790 0050 13       		.uleb128 0x13
 4791 0051 00       		.byte	0
 4792 0052 00       		.byte	0
 4793 0053 08       		.uleb128 0x8
 4794 0054 15       		.uleb128 0x15
 4795 0055 00       		.byte	0
 4796 0056 27       		.uleb128 0x27
 4797 0057 19       		.uleb128 0x19
 4798 0058 00       		.byte	0
 4799 0059 00       		.byte	0
 4800 005a 09       		.uleb128 0x9
 4801 005b 0F       		.uleb128 0xf
 4802 005c 00       		.byte	0
 4803 005d 0B       		.uleb128 0xb
 4804 005e 0B       		.uleb128 0xb
 4805 005f 00       		.byte	0
 4806 0060 00       		.byte	0
 4807 0061 0A       		.uleb128 0xa
 4808 0062 04       		.uleb128 0x4
 4809 0063 01       		.byte	0x1
 4810 0064 03       		.uleb128 0x3
 4811 0065 0E       		.uleb128 0xe
 4812 0066 0B       		.uleb128 0xb
 4813 0067 0B       		.uleb128 0xb
 4814 0068 49       		.uleb128 0x49
 4815 0069 13       		.uleb128 0x13
 4816 006a 3A       		.uleb128 0x3a
 4817 006b 0B       		.uleb128 0xb
 4818 006c 3B       		.uleb128 0x3b
 4819 006d 0B       		.uleb128 0xb
 4820 006e 01       		.uleb128 0x1
 4821 006f 13       		.uleb128 0x13
 4822 0070 00       		.byte	0
 4823 0071 00       		.byte	0
 4824 0072 0B       		.uleb128 0xb
 4825 0073 28       		.uleb128 0x28
 4826 0074 00       		.byte	0
 4827 0075 03       		.uleb128 0x3
 4828 0076 0E       		.uleb128 0xe
 4829 0077 1C       		.uleb128 0x1c
 4830 0078 0D       		.uleb128 0xd
 4831 0079 00       		.byte	0
 4832 007a 00       		.byte	0
 4833 007b 0C       		.uleb128 0xc
 4834 007c 04       		.uleb128 0x4
 4835 007d 01       		.byte	0x1
 4836 007e 0B       		.uleb128 0xb
 4837 007f 0B       		.uleb128 0xb
 4838 0080 49       		.uleb128 0x49
 4839 0081 13       		.uleb128 0x13
 4840 0082 3A       		.uleb128 0x3a
 4841 0083 0B       		.uleb128 0xb
ARM GAS  C:\Users\PRICHA~1\AppData\Local\Temp\ccFt17DU.s 			page 115


 4842 0084 3B       		.uleb128 0x3b
 4843 0085 0B       		.uleb128 0xb
 4844 0086 01       		.uleb128 0x1
 4845 0087 13       		.uleb128 0x13
 4846 0088 00       		.byte	0
 4847 0089 00       		.byte	0
 4848 008a 0D       		.uleb128 0xd
 4849 008b 28       		.uleb128 0x28
 4850 008c 00       		.byte	0
 4851 008d 03       		.uleb128 0x3
 4852 008e 0E       		.uleb128 0xe
 4853 008f 1C       		.uleb128 0x1c
 4854 0090 0B       		.uleb128 0xb
 4855 0091 00       		.byte	0
 4856 0092 00       		.byte	0
 4857 0093 0E       		.uleb128 0xe
 4858 0094 13       		.uleb128 0x13
 4859 0095 01       		.byte	0x1
 4860 0096 0B       		.uleb128 0xb
 4861 0097 0B       		.uleb128 0xb
 4862 0098 3A       		.uleb128 0x3a
 4863 0099 0B       		.uleb128 0xb
 4864 009a 3B       		.uleb128 0x3b
 4865 009b 0B       		.uleb128 0xb
 4866 009c 01       		.uleb128 0x1
 4867 009d 13       		.uleb128 0x13
 4868 009e 00       		.byte	0
 4869 009f 00       		.byte	0
 4870 00a0 0F       		.uleb128 0xf
 4871 00a1 0D       		.uleb128 0xd
 4872 00a2 00       		.byte	0
 4873 00a3 03       		.uleb128 0x3
 4874 00a4 0E       		.uleb128 0xe
 4875 00a5 3A       		.uleb128 0x3a
 4876 00a6 0B       		.uleb128 0xb
 4877 00a7 3B       		.uleb128 0x3b
 4878 00a8 0B       		.uleb128 0xb
 4879 00a9 49       		.uleb128 0x49
 4880 00aa 13       		.uleb128 0x13
 4881 00ab 38       		.uleb128 0x38
 4882 00ac 0B       		.uleb128 0xb
 4883 00ad 00       		.byte	0
 4884 00ae 00       		.byte	0
 4885 00af 10       		.uleb128 0x10
 4886 00b0 13       		.uleb128 0x13
 4887 00b1 01       		.byte	0x1
 4888 00b2 0B       		.uleb128 0xb
 4889 00b3 0B       		.uleb128 0xb
 4890 00b4 3A       		.uleb128 0x3a
 4891 00b5 0B       		.uleb128 0xb
 4892 00b6 3B       		.uleb128 0x3b
 4893 00b7 05       		.uleb128 0x5
 4894 00b8 01       		.uleb128 0x1
 4895 00b9 13       		.uleb128 0x13
 4896 00ba 00       		.byte	0
 4897 00bb 00       		.byte	0
 4898 00bc 11       		.uleb128 0x11
ARM GAS  C:\Users\PRICHA~1\AppData\Local\Temp\ccFt17DU.s 			page 116


 4899 00bd 0D       		.uleb128 0xd
 4900 00be 00       		.byte	0
 4901 00bf 03       		.uleb128 0x3
 4902 00c0 0E       		.uleb128 0xe
 4903 00c1 3A       		.uleb128 0x3a
 4904 00c2 0B       		.uleb128 0xb
 4905 00c3 3B       		.uleb128 0x3b
 4906 00c4 05       		.uleb128 0x5
 4907 00c5 49       		.uleb128 0x49
 4908 00c6 13       		.uleb128 0x13
 4909 00c7 38       		.uleb128 0x38
 4910 00c8 0B       		.uleb128 0xb
 4911 00c9 00       		.byte	0
 4912 00ca 00       		.byte	0
 4913 00cb 12       		.uleb128 0x12
 4914 00cc 0D       		.uleb128 0xd
 4915 00cd 00       		.byte	0
 4916 00ce 03       		.uleb128 0x3
 4917 00cf 08       		.uleb128 0x8
 4918 00d0 3A       		.uleb128 0x3a
 4919 00d1 0B       		.uleb128 0xb
 4920 00d2 3B       		.uleb128 0x3b
 4921 00d3 05       		.uleb128 0x5
 4922 00d4 49       		.uleb128 0x49
 4923 00d5 13       		.uleb128 0x13
 4924 00d6 38       		.uleb128 0x38
 4925 00d7 0B       		.uleb128 0xb
 4926 00d8 00       		.byte	0
 4927 00d9 00       		.byte	0
 4928 00da 13       		.uleb128 0x13
 4929 00db 17       		.uleb128 0x17
 4930 00dc 01       		.byte	0x1
 4931 00dd 0B       		.uleb128 0xb
 4932 00de 0B       		.uleb128 0xb
 4933 00df 3A       		.uleb128 0x3a
 4934 00e0 0B       		.uleb128 0xb
 4935 00e1 3B       		.uleb128 0x3b
 4936 00e2 05       		.uleb128 0x5
 4937 00e3 01       		.uleb128 0x1
 4938 00e4 13       		.uleb128 0x13
 4939 00e5 00       		.byte	0
 4940 00e6 00       		.byte	0
 4941 00e7 14       		.uleb128 0x14
 4942 00e8 0D       		.uleb128 0xd
 4943 00e9 00       		.byte	0
 4944 00ea 03       		.uleb128 0x3
 4945 00eb 08       		.uleb128 0x8
 4946 00ec 3A       		.uleb128 0x3a
 4947 00ed 0B       		.uleb128 0xb
 4948 00ee 3B       		.uleb128 0x3b
 4949 00ef 05       		.uleb128 0x5
 4950 00f0 49       		.uleb128 0x49
 4951 00f1 13       		.uleb128 0x13
 4952 00f2 00       		.byte	0
 4953 00f3 00       		.byte	0
 4954 00f4 15       		.uleb128 0x15
 4955 00f5 0D       		.uleb128 0xd
ARM GAS  C:\Users\PRICHA~1\AppData\Local\Temp\ccFt17DU.s 			page 117


 4956 00f6 00       		.byte	0
 4957 00f7 03       		.uleb128 0x3
 4958 00f8 0E       		.uleb128 0xe
 4959 00f9 3A       		.uleb128 0x3a
 4960 00fa 0B       		.uleb128 0xb
 4961 00fb 3B       		.uleb128 0x3b
 4962 00fc 05       		.uleb128 0x5
 4963 00fd 49       		.uleb128 0x49
 4964 00fe 13       		.uleb128 0x13
 4965 00ff 00       		.byte	0
 4966 0100 00       		.byte	0
 4967 0101 16       		.uleb128 0x16
 4968 0102 01       		.uleb128 0x1
 4969 0103 01       		.byte	0x1
 4970 0104 49       		.uleb128 0x49
 4971 0105 13       		.uleb128 0x13
 4972 0106 01       		.uleb128 0x1
 4973 0107 13       		.uleb128 0x13
 4974 0108 00       		.byte	0
 4975 0109 00       		.byte	0
 4976 010a 17       		.uleb128 0x17
 4977 010b 21       		.uleb128 0x21
 4978 010c 00       		.byte	0
 4979 010d 49       		.uleb128 0x49
 4980 010e 13       		.uleb128 0x13
 4981 010f 2F       		.uleb128 0x2f
 4982 0110 0B       		.uleb128 0xb
 4983 0111 00       		.byte	0
 4984 0112 00       		.byte	0
 4985 0113 18       		.uleb128 0x18
 4986 0114 04       		.uleb128 0x4
 4987 0115 01       		.byte	0x1
 4988 0116 0B       		.uleb128 0xb
 4989 0117 0B       		.uleb128 0xb
 4990 0118 49       		.uleb128 0x49
 4991 0119 13       		.uleb128 0x13
 4992 011a 3A       		.uleb128 0x3a
 4993 011b 0B       		.uleb128 0xb
 4994 011c 3B       		.uleb128 0x3b
 4995 011d 05       		.uleb128 0x5
 4996 011e 01       		.uleb128 0x1
 4997 011f 13       		.uleb128 0x13
 4998 0120 00       		.byte	0
 4999 0121 00       		.byte	0
 5000 0122 19       		.uleb128 0x19
 5001 0123 2E       		.uleb128 0x2e
 5002 0124 01       		.byte	0x1
 5003 0125 3F       		.uleb128 0x3f
 5004 0126 19       		.uleb128 0x19
 5005 0127 03       		.uleb128 0x3
 5006 0128 0E       		.uleb128 0xe
 5007 0129 3A       		.uleb128 0x3a
 5008 012a 0B       		.uleb128 0xb
 5009 012b 3B       		.uleb128 0x3b
 5010 012c 05       		.uleb128 0x5
 5011 012d 27       		.uleb128 0x27
 5012 012e 19       		.uleb128 0x19
ARM GAS  C:\Users\PRICHA~1\AppData\Local\Temp\ccFt17DU.s 			page 118


 5013 012f 11       		.uleb128 0x11
 5014 0130 01       		.uleb128 0x1
 5015 0131 12       		.uleb128 0x12
 5016 0132 06       		.uleb128 0x6
 5017 0133 40       		.uleb128 0x40
 5018 0134 18       		.uleb128 0x18
 5019 0135 9742     		.uleb128 0x2117
 5020 0137 19       		.uleb128 0x19
 5021 0138 01       		.uleb128 0x1
 5022 0139 13       		.uleb128 0x13
 5023 013a 00       		.byte	0
 5024 013b 00       		.byte	0
 5025 013c 1A       		.uleb128 0x1a
 5026 013d 898201   		.uleb128 0x4109
 5027 0140 00       		.byte	0
 5028 0141 11       		.uleb128 0x11
 5029 0142 01       		.uleb128 0x1
 5030 0143 31       		.uleb128 0x31
 5031 0144 13       		.uleb128 0x13
 5032 0145 00       		.byte	0
 5033 0146 00       		.byte	0
 5034 0147 1B       		.uleb128 0x1b
 5035 0148 898201   		.uleb128 0x4109
 5036 014b 01       		.byte	0x1
 5037 014c 11       		.uleb128 0x11
 5038 014d 01       		.uleb128 0x1
 5039 014e 31       		.uleb128 0x31
 5040 014f 13       		.uleb128 0x13
 5041 0150 01       		.uleb128 0x1
 5042 0151 13       		.uleb128 0x13
 5043 0152 00       		.byte	0
 5044 0153 00       		.byte	0
 5045 0154 1C       		.uleb128 0x1c
 5046 0155 8A8201   		.uleb128 0x410a
 5047 0158 00       		.byte	0
 5048 0159 02       		.uleb128 0x2
 5049 015a 18       		.uleb128 0x18
 5050 015b 9142     		.uleb128 0x2111
 5051 015d 18       		.uleb128 0x18
 5052 015e 00       		.byte	0
 5053 015f 00       		.byte	0
 5054 0160 1D       		.uleb128 0x1d
 5055 0161 898201   		.uleb128 0x4109
 5056 0164 01       		.byte	0x1
 5057 0165 11       		.uleb128 0x11
 5058 0166 01       		.uleb128 0x1
 5059 0167 31       		.uleb128 0x31
 5060 0168 13       		.uleb128 0x13
 5061 0169 00       		.byte	0
 5062 016a 00       		.byte	0
 5063 016b 1E       		.uleb128 0x1e
 5064 016c 34       		.uleb128 0x34
 5065 016d 00       		.byte	0
 5066 016e 03       		.uleb128 0x3
 5067 016f 08       		.uleb128 0x8
 5068 0170 3A       		.uleb128 0x3a
 5069 0171 0B       		.uleb128 0xb
ARM GAS  C:\Users\PRICHA~1\AppData\Local\Temp\ccFt17DU.s 			page 119


 5070 0172 3B       		.uleb128 0x3b
 5071 0173 05       		.uleb128 0x5
 5072 0174 49       		.uleb128 0x49
 5073 0175 13       		.uleb128 0x13
 5074 0176 02       		.uleb128 0x2
 5075 0177 17       		.uleb128 0x17
 5076 0178 00       		.byte	0
 5077 0179 00       		.byte	0
 5078 017a 1F       		.uleb128 0x1f
 5079 017b 05       		.uleb128 0x5
 5080 017c 00       		.byte	0
 5081 017d 03       		.uleb128 0x3
 5082 017e 0E       		.uleb128 0xe
 5083 017f 3A       		.uleb128 0x3a
 5084 0180 0B       		.uleb128 0xb
 5085 0181 3B       		.uleb128 0x3b
 5086 0182 05       		.uleb128 0x5
 5087 0183 49       		.uleb128 0x49
 5088 0184 13       		.uleb128 0x13
 5089 0185 02       		.uleb128 0x2
 5090 0186 17       		.uleb128 0x17
 5091 0187 00       		.byte	0
 5092 0188 00       		.byte	0
 5093 0189 20       		.uleb128 0x20
 5094 018a 2E       		.uleb128 0x2e
 5095 018b 01       		.byte	0x1
 5096 018c 3F       		.uleb128 0x3f
 5097 018d 19       		.uleb128 0x19
 5098 018e 03       		.uleb128 0x3
 5099 018f 0E       		.uleb128 0xe
 5100 0190 3A       		.uleb128 0x3a
 5101 0191 0B       		.uleb128 0xb
 5102 0192 3B       		.uleb128 0x3b
 5103 0193 05       		.uleb128 0x5
 5104 0194 27       		.uleb128 0x27
 5105 0195 19       		.uleb128 0x19
 5106 0196 8701     		.uleb128 0x87
 5107 0198 19       		.uleb128 0x19
 5108 0199 11       		.uleb128 0x11
 5109 019a 01       		.uleb128 0x1
 5110 019b 12       		.uleb128 0x12
 5111 019c 06       		.uleb128 0x6
 5112 019d 40       		.uleb128 0x40
 5113 019e 18       		.uleb128 0x18
 5114 019f 9742     		.uleb128 0x2117
 5115 01a1 19       		.uleb128 0x19
 5116 01a2 01       		.uleb128 0x1
 5117 01a3 13       		.uleb128 0x13
 5118 01a4 00       		.byte	0
 5119 01a5 00       		.byte	0
 5120 01a6 21       		.uleb128 0x21
 5121 01a7 05       		.uleb128 0x5
 5122 01a8 00       		.byte	0
 5123 01a9 03       		.uleb128 0x3
 5124 01aa 08       		.uleb128 0x8
 5125 01ab 3A       		.uleb128 0x3a
 5126 01ac 0B       		.uleb128 0xb
ARM GAS  C:\Users\PRICHA~1\AppData\Local\Temp\ccFt17DU.s 			page 120


 5127 01ad 3B       		.uleb128 0x3b
 5128 01ae 05       		.uleb128 0x5
 5129 01af 49       		.uleb128 0x49
 5130 01b0 13       		.uleb128 0x13
 5131 01b1 02       		.uleb128 0x2
 5132 01b2 17       		.uleb128 0x17
 5133 01b3 00       		.byte	0
 5134 01b4 00       		.byte	0
 5135 01b5 22       		.uleb128 0x22
 5136 01b6 34       		.uleb128 0x34
 5137 01b7 00       		.byte	0
 5138 01b8 03       		.uleb128 0x3
 5139 01b9 08       		.uleb128 0x8
 5140 01ba 3A       		.uleb128 0x3a
 5141 01bb 0B       		.uleb128 0xb
 5142 01bc 3B       		.uleb128 0x3b
 5143 01bd 05       		.uleb128 0x5
 5144 01be 49       		.uleb128 0x49
 5145 01bf 13       		.uleb128 0x13
 5146 01c0 02       		.uleb128 0x2
 5147 01c1 18       		.uleb128 0x18
 5148 01c2 00       		.byte	0
 5149 01c3 00       		.byte	0
 5150 01c4 23       		.uleb128 0x23
 5151 01c5 34       		.uleb128 0x34
 5152 01c6 00       		.byte	0
 5153 01c7 03       		.uleb128 0x3
 5154 01c8 0E       		.uleb128 0xe
 5155 01c9 3A       		.uleb128 0x3a
 5156 01ca 0B       		.uleb128 0xb
 5157 01cb 3B       		.uleb128 0x3b
 5158 01cc 05       		.uleb128 0x5
 5159 01cd 49       		.uleb128 0x49
 5160 01ce 13       		.uleb128 0x13
 5161 01cf 02       		.uleb128 0x2
 5162 01d0 17       		.uleb128 0x17
 5163 01d1 00       		.byte	0
 5164 01d2 00       		.byte	0
 5165 01d3 24       		.uleb128 0x24
 5166 01d4 34       		.uleb128 0x34
 5167 01d5 00       		.byte	0
 5168 01d6 03       		.uleb128 0x3
 5169 01d7 0E       		.uleb128 0xe
 5170 01d8 3A       		.uleb128 0x3a
 5171 01d9 0B       		.uleb128 0xb
 5172 01da 3B       		.uleb128 0x3b
 5173 01db 05       		.uleb128 0x5
 5174 01dc 49       		.uleb128 0x49
 5175 01dd 13       		.uleb128 0x13
 5176 01de 02       		.uleb128 0x2
 5177 01df 18       		.uleb128 0x18
 5178 01e0 00       		.byte	0
 5179 01e1 00       		.byte	0
 5180 01e2 25       		.uleb128 0x25
 5181 01e3 05       		.uleb128 0x5
 5182 01e4 00       		.byte	0
 5183 01e5 03       		.uleb128 0x3
ARM GAS  C:\Users\PRICHA~1\AppData\Local\Temp\ccFt17DU.s 			page 121


 5184 01e6 0E       		.uleb128 0xe
 5185 01e7 3A       		.uleb128 0x3a
 5186 01e8 0B       		.uleb128 0xb
 5187 01e9 3B       		.uleb128 0x3b
 5188 01ea 05       		.uleb128 0x5
 5189 01eb 49       		.uleb128 0x49
 5190 01ec 13       		.uleb128 0x13
 5191 01ed 02       		.uleb128 0x2
 5192 01ee 18       		.uleb128 0x18
 5193 01ef 00       		.byte	0
 5194 01f0 00       		.byte	0
 5195 01f1 26       		.uleb128 0x26
 5196 01f2 2E       		.uleb128 0x2e
 5197 01f3 01       		.byte	0x1
 5198 01f4 3F       		.uleb128 0x3f
 5199 01f5 19       		.uleb128 0x19
 5200 01f6 03       		.uleb128 0x3
 5201 01f7 0E       		.uleb128 0xe
 5202 01f8 3A       		.uleb128 0x3a
 5203 01f9 0B       		.uleb128 0xb
 5204 01fa 3B       		.uleb128 0x3b
 5205 01fb 05       		.uleb128 0x5
 5206 01fc 27       		.uleb128 0x27
 5207 01fd 19       		.uleb128 0x19
 5208 01fe 11       		.uleb128 0x11
 5209 01ff 01       		.uleb128 0x1
 5210 0200 12       		.uleb128 0x12
 5211 0201 06       		.uleb128 0x6
 5212 0202 40       		.uleb128 0x40
 5213 0203 18       		.uleb128 0x18
 5214 0204 9642     		.uleb128 0x2116
 5215 0206 19       		.uleb128 0x19
 5216 0207 01       		.uleb128 0x1
 5217 0208 13       		.uleb128 0x13
 5218 0209 00       		.byte	0
 5219 020a 00       		.byte	0
 5220 020b 27       		.uleb128 0x27
 5221 020c 2E       		.uleb128 0x2e
 5222 020d 01       		.byte	0x1
 5223 020e 3F       		.uleb128 0x3f
 5224 020f 19       		.uleb128 0x19
 5225 0210 03       		.uleb128 0x3
 5226 0211 0E       		.uleb128 0xe
 5227 0212 3A       		.uleb128 0x3a
 5228 0213 0B       		.uleb128 0xb
 5229 0214 3B       		.uleb128 0x3b
 5230 0215 05       		.uleb128 0x5
 5231 0216 27       		.uleb128 0x27
 5232 0217 19       		.uleb128 0x19
 5233 0218 49       		.uleb128 0x49
 5234 0219 13       		.uleb128 0x13
 5235 021a 11       		.uleb128 0x11
 5236 021b 01       		.uleb128 0x1
 5237 021c 12       		.uleb128 0x12
 5238 021d 06       		.uleb128 0x6
 5239 021e 40       		.uleb128 0x40
 5240 021f 18       		.uleb128 0x18
ARM GAS  C:\Users\PRICHA~1\AppData\Local\Temp\ccFt17DU.s 			page 122


 5241 0220 9742     		.uleb128 0x2117
 5242 0222 19       		.uleb128 0x19
 5243 0223 01       		.uleb128 0x1
 5244 0224 13       		.uleb128 0x13
 5245 0225 00       		.byte	0
 5246 0226 00       		.byte	0
 5247 0227 28       		.uleb128 0x28
 5248 0228 2E       		.uleb128 0x2e
 5249 0229 01       		.byte	0x1
 5250 022a 3F       		.uleb128 0x3f
 5251 022b 19       		.uleb128 0x19
 5252 022c 03       		.uleb128 0x3
 5253 022d 0E       		.uleb128 0xe
 5254 022e 3A       		.uleb128 0x3a
 5255 022f 0B       		.uleb128 0xb
 5256 0230 3B       		.uleb128 0x3b
 5257 0231 05       		.uleb128 0x5
 5258 0232 27       		.uleb128 0x27
 5259 0233 19       		.uleb128 0x19
 5260 0234 8701     		.uleb128 0x87
 5261 0236 19       		.uleb128 0x19
 5262 0237 11       		.uleb128 0x11
 5263 0238 01       		.uleb128 0x1
 5264 0239 12       		.uleb128 0x12
 5265 023a 06       		.uleb128 0x6
 5266 023b 40       		.uleb128 0x40
 5267 023c 18       		.uleb128 0x18
 5268 023d 9642     		.uleb128 0x2116
 5269 023f 19       		.uleb128 0x19
 5270 0240 01       		.uleb128 0x1
 5271 0241 13       		.uleb128 0x13
 5272 0242 00       		.byte	0
 5273 0243 00       		.byte	0
 5274 0244 29       		.uleb128 0x29
 5275 0245 0B       		.uleb128 0xb
 5276 0246 01       		.byte	0x1
 5277 0247 11       		.uleb128 0x11
 5278 0248 01       		.uleb128 0x1
 5279 0249 12       		.uleb128 0x12
 5280 024a 06       		.uleb128 0x6
 5281 024b 00       		.byte	0
 5282 024c 00       		.byte	0
 5283 024d 2A       		.uleb128 0x2a
 5284 024e 2E       		.uleb128 0x2e
 5285 024f 01       		.byte	0x1
 5286 0250 3F       		.uleb128 0x3f
 5287 0251 19       		.uleb128 0x19
 5288 0252 03       		.uleb128 0x3
 5289 0253 0E       		.uleb128 0xe
 5290 0254 3A       		.uleb128 0x3a
 5291 0255 0B       		.uleb128 0xb
 5292 0256 3B       		.uleb128 0x3b
 5293 0257 05       		.uleb128 0x5
 5294 0258 27       		.uleb128 0x27
 5295 0259 19       		.uleb128 0x19
 5296 025a 49       		.uleb128 0x49
 5297 025b 13       		.uleb128 0x13
ARM GAS  C:\Users\PRICHA~1\AppData\Local\Temp\ccFt17DU.s 			page 123


 5298 025c 11       		.uleb128 0x11
 5299 025d 01       		.uleb128 0x1
 5300 025e 12       		.uleb128 0x12
 5301 025f 06       		.uleb128 0x6
 5302 0260 40       		.uleb128 0x40
 5303 0261 18       		.uleb128 0x18
 5304 0262 9642     		.uleb128 0x2116
 5305 0264 19       		.uleb128 0x19
 5306 0265 01       		.uleb128 0x1
 5307 0266 13       		.uleb128 0x13
 5308 0267 00       		.byte	0
 5309 0268 00       		.byte	0
 5310 0269 2B       		.uleb128 0x2b
 5311 026a 34       		.uleb128 0x34
 5312 026b 00       		.byte	0
 5313 026c 03       		.uleb128 0x3
 5314 026d 0E       		.uleb128 0xe
 5315 026e 3A       		.uleb128 0x3a
 5316 026f 0B       		.uleb128 0xb
 5317 0270 3B       		.uleb128 0x3b
 5318 0271 05       		.uleb128 0x5
 5319 0272 49       		.uleb128 0x49
 5320 0273 13       		.uleb128 0x13
 5321 0274 1C       		.uleb128 0x1c
 5322 0275 0B       		.uleb128 0xb
 5323 0276 00       		.byte	0
 5324 0277 00       		.byte	0
 5325 0278 2C       		.uleb128 0x2c
 5326 0279 34       		.uleb128 0x34
 5327 027a 00       		.byte	0
 5328 027b 03       		.uleb128 0x3
 5329 027c 0E       		.uleb128 0xe
 5330 027d 3A       		.uleb128 0x3a
 5331 027e 0B       		.uleb128 0xb
 5332 027f 3B       		.uleb128 0x3b
 5333 0280 0B       		.uleb128 0xb
 5334 0281 49       		.uleb128 0x49
 5335 0282 13       		.uleb128 0x13
 5336 0283 3F       		.uleb128 0x3f
 5337 0284 19       		.uleb128 0x19
 5338 0285 02       		.uleb128 0x2
 5339 0286 18       		.uleb128 0x18
 5340 0287 00       		.byte	0
 5341 0288 00       		.byte	0
 5342 0289 2D       		.uleb128 0x2d
 5343 028a 34       		.uleb128 0x34
 5344 028b 00       		.byte	0
 5345 028c 03       		.uleb128 0x3
 5346 028d 08       		.uleb128 0x8
 5347 028e 3A       		.uleb128 0x3a
 5348 028f 0B       		.uleb128 0xb
 5349 0290 3B       		.uleb128 0x3b
 5350 0291 0B       		.uleb128 0xb
 5351 0292 49       		.uleb128 0x49
 5352 0293 13       		.uleb128 0x13
 5353 0294 3F       		.uleb128 0x3f
 5354 0295 19       		.uleb128 0x19
ARM GAS  C:\Users\PRICHA~1\AppData\Local\Temp\ccFt17DU.s 			page 124


 5355 0296 02       		.uleb128 0x2
 5356 0297 18       		.uleb128 0x18
 5357 0298 00       		.byte	0
 5358 0299 00       		.byte	0
 5359 029a 2E       		.uleb128 0x2e
 5360 029b 34       		.uleb128 0x34
 5361 029c 00       		.byte	0
 5362 029d 03       		.uleb128 0x3
 5363 029e 0E       		.uleb128 0xe
 5364 029f 3A       		.uleb128 0x3a
 5365 02a0 0B       		.uleb128 0xb
 5366 02a1 3B       		.uleb128 0x3b
 5367 02a2 05       		.uleb128 0x5
 5368 02a3 49       		.uleb128 0x49
 5369 02a4 13       		.uleb128 0x13
 5370 02a5 3F       		.uleb128 0x3f
 5371 02a6 19       		.uleb128 0x19
 5372 02a7 02       		.uleb128 0x2
 5373 02a8 18       		.uleb128 0x18
 5374 02a9 00       		.byte	0
 5375 02aa 00       		.byte	0
 5376 02ab 2F       		.uleb128 0x2f
 5377 02ac 2E       		.uleb128 0x2e
 5378 02ad 00       		.byte	0
 5379 02ae 3F       		.uleb128 0x3f
 5380 02af 19       		.uleb128 0x19
 5381 02b0 3C       		.uleb128 0x3c
 5382 02b1 19       		.uleb128 0x19
 5383 02b2 6E       		.uleb128 0x6e
 5384 02b3 0E       		.uleb128 0xe
 5385 02b4 03       		.uleb128 0x3
 5386 02b5 0E       		.uleb128 0xe
 5387 02b6 3A       		.uleb128 0x3a
 5388 02b7 0B       		.uleb128 0xb
 5389 02b8 3B       		.uleb128 0x3b
 5390 02b9 0B       		.uleb128 0xb
 5391 02ba 00       		.byte	0
 5392 02bb 00       		.byte	0
 5393 02bc 30       		.uleb128 0x30
 5394 02bd 2E       		.uleb128 0x2e
 5395 02be 00       		.byte	0
 5396 02bf 3F       		.uleb128 0x3f
 5397 02c0 19       		.uleb128 0x19
 5398 02c1 3C       		.uleb128 0x3c
 5399 02c2 19       		.uleb128 0x19
 5400 02c3 6E       		.uleb128 0x6e
 5401 02c4 0E       		.uleb128 0xe
 5402 02c5 03       		.uleb128 0x3
 5403 02c6 0E       		.uleb128 0xe
 5404 02c7 3A       		.uleb128 0x3a
 5405 02c8 0B       		.uleb128 0xb
 5406 02c9 3B       		.uleb128 0x3b
 5407 02ca 05       		.uleb128 0x5
 5408 02cb 00       		.byte	0
 5409 02cc 00       		.byte	0
 5410 02cd 31       		.uleb128 0x31
 5411 02ce 2E       		.uleb128 0x2e
ARM GAS  C:\Users\PRICHA~1\AppData\Local\Temp\ccFt17DU.s 			page 125


 5412 02cf 00       		.byte	0
 5413 02d0 3F       		.uleb128 0x3f
 5414 02d1 19       		.uleb128 0x19
 5415 02d2 3C       		.uleb128 0x3c
 5416 02d3 19       		.uleb128 0x19
 5417 02d4 6E       		.uleb128 0x6e
 5418 02d5 0E       		.uleb128 0xe
 5419 02d6 03       		.uleb128 0x3
 5420 02d7 0E       		.uleb128 0xe
 5421 02d8 00       		.byte	0
 5422 02d9 00       		.byte	0
 5423 02da 00       		.byte	0
 5424              		.section	.debug_loc,"",%progbits
 5425              	.Ldebug_loc0:
 5426              	.LLST0:
 5427 0000 28000000 		.4byte	.LVL10
 5428 0004 2C000000 		.4byte	.LVL11
 5429 0008 0200     		.2byte	0x2
 5430 000a 30       		.byte	0x30
 5431 000b 9F       		.byte	0x9f
 5432 000c 2C000000 		.4byte	.LVL11
 5433 0010 48000000 		.4byte	.LVL16
 5434 0014 0100     		.2byte	0x1
 5435 0016 54       		.byte	0x54
 5436 0017 00000000 		.4byte	0
 5437 001b 00000000 		.4byte	0
 5438              	.LLST1:
 5439 001f 00000000 		.4byte	.LVL20
 5440 0023 12000000 		.4byte	.LVL21
 5441 0027 0100     		.2byte	0x1
 5442 0029 50       		.byte	0x50
 5443 002a 12000000 		.4byte	.LVL21
 5444 002e 1C000000 		.4byte	.LFE33
 5445 0032 0400     		.2byte	0x4
 5446 0034 F3       		.byte	0xf3
 5447 0035 01       		.uleb128 0x1
 5448 0036 50       		.byte	0x50
 5449 0037 9F       		.byte	0x9f
 5450 0038 00000000 		.4byte	0
 5451 003c 00000000 		.4byte	0
 5452              	.LLST2:
 5453 0040 00000000 		.4byte	.LVL22
 5454 0044 06000000 		.4byte	.LVL23
 5455 0048 0100     		.2byte	0x1
 5456 004a 50       		.byte	0x50
 5457 004b 06000000 		.4byte	.LVL23
 5458 004f D8000000 		.4byte	.LFE35
 5459 0053 0400     		.2byte	0x4
 5460 0055 F3       		.byte	0xf3
 5461 0056 01       		.uleb128 0x1
 5462 0057 50       		.byte	0x50
 5463 0058 9F       		.byte	0x9f
 5464 0059 00000000 		.4byte	0
 5465 005d 00000000 		.4byte	0
 5466              	.LLST3:
 5467 0061 28000000 		.4byte	.LVL26
 5468 0065 40000000 		.4byte	.LVL30
ARM GAS  C:\Users\PRICHA~1\AppData\Local\Temp\ccFt17DU.s 			page 126


 5469 0069 0300     		.2byte	0x3
 5470 006b 08       		.byte	0x8
 5471 006c 20       		.byte	0x20
 5472 006d 9F       		.byte	0x9f
 5473 006e 00000000 		.4byte	0
 5474 0072 00000000 		.4byte	0
 5475              	.LLST4:
 5476 0076 30000000 		.4byte	.LVL27
 5477 007a 40000000 		.4byte	.LVL30
 5478 007e 0200     		.2byte	0x2
 5479 0080 30       		.byte	0x30
 5480 0081 9F       		.byte	0x9f
 5481 0082 00000000 		.4byte	0
 5482 0086 00000000 		.4byte	0
 5483              	.LLST5:
 5484 008a 00000000 		.4byte	.LVL41
 5485 008e 0D000000 		.4byte	.LVL43-1
 5486 0092 0100     		.2byte	0x1
 5487 0094 50       		.byte	0x50
 5488 0095 0D000000 		.4byte	.LVL43-1
 5489 0099 36000000 		.4byte	.LVL50
 5490 009d 0100     		.2byte	0x1
 5491 009f 55       		.byte	0x55
 5492 00a0 36000000 		.4byte	.LVL50
 5493 00a4 40000000 		.4byte	.LFE37
 5494 00a8 0600     		.2byte	0x6
 5495 00aa F3       		.byte	0xf3
 5496 00ab 03       		.uleb128 0x3
 5497 00ac F5       		.byte	0xf5
 5498 00ad 00       		.uleb128 0
 5499 00ae 25       		.uleb128 0x25
 5500 00af 9F       		.byte	0x9f
 5501 00b0 00000000 		.4byte	0
 5502 00b4 00000000 		.4byte	0
 5503              	.LLST6:
 5504 00b8 04000000 		.4byte	.LVL42
 5505 00bc 0D000000 		.4byte	.LVL43-1
 5506 00c0 0100     		.2byte	0x1
 5507 00c2 50       		.byte	0x50
 5508 00c3 0D000000 		.4byte	.LVL43-1
 5509 00c7 24000000 		.4byte	.LVL45
 5510 00cb 0100     		.2byte	0x1
 5511 00cd 55       		.byte	0x55
 5512 00ce 24000000 		.4byte	.LVL45
 5513 00d2 36000000 		.4byte	.LVL49
 5514 00d6 0100     		.2byte	0x1
 5515 00d8 54       		.byte	0x54
 5516 00d9 00000000 		.4byte	0
 5517 00dd 00000000 		.4byte	0
 5518              	.LLST7:
 5519 00e1 00000000 		.4byte	.LVL52
 5520 00e5 04000000 		.4byte	.LVL53
 5521 00e9 0100     		.2byte	0x1
 5522 00eb 50       		.byte	0x50
 5523 00ec 04000000 		.4byte	.LVL53
 5524 00f0 D4020000 		.4byte	.LFE36
 5525 00f4 0400     		.2byte	0x4
ARM GAS  C:\Users\PRICHA~1\AppData\Local\Temp\ccFt17DU.s 			page 127


 5526 00f6 F3       		.byte	0xf3
 5527 00f7 01       		.uleb128 0x1
 5528 00f8 50       		.byte	0x50
 5529 00f9 9F       		.byte	0x9f
 5530 00fa 00000000 		.4byte	0
 5531 00fe 00000000 		.4byte	0
 5532              	.LLST8:
 5533 0102 36000000 		.4byte	.LVL57
 5534 0106 E8000000 		.4byte	.LVL72
 5535 010a 0100     		.2byte	0x1
 5536 010c 54       		.byte	0x54
 5537 010d 3E010000 		.4byte	.LVL81
 5538 0111 6E010000 		.4byte	.LVL85
 5539 0115 0100     		.2byte	0x1
 5540 0117 54       		.byte	0x54
 5541 0118 00000000 		.4byte	0
 5542 011c 00000000 		.4byte	0
 5543              	.LLST9:
 5544 0120 34000000 		.4byte	.LVL56
 5545 0124 DC000000 		.4byte	.LVL69
 5546 0128 0100     		.2byte	0x1
 5547 012a 50       		.byte	0x50
 5548 012b 3E010000 		.4byte	.LVL81
 5549 012f 40010000 		.4byte	.LVL82
 5550 0133 0100     		.2byte	0x1
 5551 0135 50       		.byte	0x50
 5552 0136 00000000 		.4byte	0
 5553 013a 00000000 		.4byte	0
 5554              	.LLST10:
 5555 013e 3C000000 		.4byte	.LVL58
 5556 0142 42000000 		.4byte	.LVL59
 5557 0146 0200     		.2byte	0x2
 5558 0148 30       		.byte	0x30
 5559 0149 9F       		.byte	0x9f
 5560 014a 42000000 		.4byte	.LVL59
 5561 014e 4C000000 		.4byte	.LVL62
 5562 0152 0100     		.2byte	0x1
 5563 0154 53       		.byte	0x53
 5564 0155 4E000000 		.4byte	.LVL63
 5565 0159 58000000 		.4byte	.LVL64
 5566 015d 0100     		.2byte	0x1
 5567 015f 53       		.byte	0x53
 5568 0160 6A000000 		.4byte	.LVL66
 5569 0164 6C000000 		.4byte	.LVL67
 5570 0168 0100     		.2byte	0x1
 5571 016a 53       		.byte	0x53
 5572 016b 0A020000 		.4byte	.LVL88
 5573 016f 10020000 		.4byte	.LVL89
 5574 0173 0200     		.2byte	0x2
 5575 0175 30       		.byte	0x30
 5576 0176 9F       		.byte	0x9f
 5577 0177 10020000 		.4byte	.LVL89
 5578 017b 1A020000 		.4byte	.LVL92
 5579 017f 0100     		.2byte	0x1
 5580 0181 53       		.byte	0x53
 5581 0182 1C020000 		.4byte	.LVL93
 5582 0186 2B020000 		.4byte	.LVL95-1
ARM GAS  C:\Users\PRICHA~1\AppData\Local\Temp\ccFt17DU.s 			page 128


 5583 018a 0100     		.2byte	0x1
 5584 018c 53       		.byte	0x53
 5585 018d 00000000 		.4byte	0
 5586 0191 00000000 		.4byte	0
 5587              	.LLST11:
 5588 0195 3C000000 		.4byte	.LVL58
 5589 0199 42000000 		.4byte	.LVL59
 5590 019d 0200     		.2byte	0x2
 5591 019f 30       		.byte	0x30
 5592 01a0 9F       		.byte	0x9f
 5593 01a1 42000000 		.4byte	.LVL59
 5594 01a5 48000000 		.4byte	.LVL60
 5595 01a9 0100     		.2byte	0x1
 5596 01ab 52       		.byte	0x52
 5597 01ac 4A000000 		.4byte	.LVL61
 5598 01b0 5C000000 		.4byte	.LVL65
 5599 01b4 0100     		.2byte	0x1
 5600 01b6 52       		.byte	0x52
 5601 01b7 6A000000 		.4byte	.LVL66
 5602 01bb 82000000 		.4byte	.LVL68
 5603 01bf 0100     		.2byte	0x1
 5604 01c1 52       		.byte	0x52
 5605 01c2 3E010000 		.4byte	.LVL81
 5606 01c6 46010000 		.4byte	.LVL83
 5607 01ca 0100     		.2byte	0x1
 5608 01cc 52       		.byte	0x52
 5609 01cd 0A020000 		.4byte	.LVL88
 5610 01d1 10020000 		.4byte	.LVL89
 5611 01d5 0200     		.2byte	0x2
 5612 01d7 30       		.byte	0x30
 5613 01d8 9F       		.byte	0x9f
 5614 01d9 10020000 		.4byte	.LVL89
 5615 01dd 16020000 		.4byte	.LVL90
 5616 01e1 0100     		.2byte	0x1
 5617 01e3 52       		.byte	0x52
 5618 01e4 18020000 		.4byte	.LVL91
 5619 01e8 24020000 		.4byte	.LVL94
 5620 01ec 0100     		.2byte	0x1
 5621 01ee 52       		.byte	0x52
 5622 01ef 00000000 		.4byte	0
 5623 01f3 00000000 		.4byte	0
 5624              	.LLST12:
 5625 01f7 DC000000 		.4byte	.LVL69
 5626 01fb E5000000 		.4byte	.LVL71-1
 5627 01ff 0100     		.2byte	0x1
 5628 0201 50       		.byte	0x50
 5629 0202 F0000000 		.4byte	.LVL73
 5630 0206 F9000000 		.4byte	.LVL75-1
 5631 020a 0100     		.2byte	0x1
 5632 020c 50       		.byte	0x50
 5633 020d 00000000 		.4byte	0
 5634 0211 00000000 		.4byte	0
 5635              	.LLST13:
 5636 0215 00000000 		.4byte	.LVL101
 5637 0219 0F000000 		.4byte	.LVL102-1
 5638 021d 0100     		.2byte	0x1
 5639 021f 50       		.byte	0x50
ARM GAS  C:\Users\PRICHA~1\AppData\Local\Temp\ccFt17DU.s 			page 129


 5640 0220 0F000000 		.4byte	.LVL102-1
 5641 0224 44000000 		.4byte	.LFE40
 5642 0228 0400     		.2byte	0x4
 5643 022a F3       		.byte	0xf3
 5644 022b 01       		.uleb128 0x1
 5645 022c 50       		.byte	0x50
 5646 022d 9F       		.byte	0x9f
 5647 022e 00000000 		.4byte	0
 5648 0232 00000000 		.4byte	0
 5649              	.LLST14:
 5650 0236 00000000 		.4byte	.LVL101
 5651 023a 0F000000 		.4byte	.LVL102-1
 5652 023e 0100     		.2byte	0x1
 5653 0240 51       		.byte	0x51
 5654 0241 0F000000 		.4byte	.LVL102-1
 5655 0245 32000000 		.4byte	.LVL110
 5656 0249 0100     		.2byte	0x1
 5657 024b 56       		.byte	0x56
 5658 024c 32000000 		.4byte	.LVL110
 5659 0250 44000000 		.4byte	.LFE40
 5660 0254 0600     		.2byte	0x6
 5661 0256 F3       		.byte	0xf3
 5662 0257 03       		.uleb128 0x3
 5663 0258 F5       		.byte	0xf5
 5664 0259 01       		.uleb128 0x1
 5665 025a 25       		.uleb128 0x25
 5666 025b 9F       		.byte	0x9f
 5667 025c 00000000 		.4byte	0
 5668 0260 00000000 		.4byte	0
 5669              	.LLST15:
 5670 0264 00000000 		.4byte	.LVL101
 5671 0268 0F000000 		.4byte	.LVL102-1
 5672 026c 0100     		.2byte	0x1
 5673 026e 52       		.byte	0x52
 5674 026f 0F000000 		.4byte	.LVL102-1
 5675 0273 32000000 		.4byte	.LVL109
 5676 0277 0100     		.2byte	0x1
 5677 0279 55       		.byte	0x55
 5678 027a 32000000 		.4byte	.LVL109
 5679 027e 44000000 		.4byte	.LFE40
 5680 0282 0600     		.2byte	0x6
 5681 0284 F3       		.byte	0xf3
 5682 0285 03       		.uleb128 0x3
 5683 0286 F5       		.byte	0xf5
 5684 0287 02       		.uleb128 0x2
 5685 0288 25       		.uleb128 0x25
 5686 0289 9F       		.byte	0x9f
 5687 028a 00000000 		.4byte	0
 5688 028e 00000000 		.4byte	0
 5689              	.LLST16:
 5690 0292 00000000 		.4byte	.LVL101
 5691 0296 0F000000 		.4byte	.LVL102-1
 5692 029a 0100     		.2byte	0x1
 5693 029c 53       		.byte	0x53
 5694 029d 0F000000 		.4byte	.LVL102-1
 5695 02a1 32000000 		.4byte	.LVL108
 5696 02a5 0100     		.2byte	0x1
ARM GAS  C:\Users\PRICHA~1\AppData\Local\Temp\ccFt17DU.s 			page 130


 5697 02a7 54       		.byte	0x54
 5698 02a8 32000000 		.4byte	.LVL108
 5699 02ac 44000000 		.4byte	.LFE40
 5700 02b0 0600     		.2byte	0x6
 5701 02b2 F3       		.byte	0xf3
 5702 02b3 03       		.uleb128 0x3
 5703 02b4 F5       		.byte	0xf5
 5704 02b5 03       		.uleb128 0x3
 5705 02b6 25       		.uleb128 0x25
 5706 02b7 9F       		.byte	0x9f
 5707 02b8 00000000 		.4byte	0
 5708 02bc 00000000 		.4byte	0
 5709              	.LLST17:
 5710 02c0 18000000 		.4byte	.LVL104
 5711 02c4 21000000 		.4byte	.LVL105-1
 5712 02c8 0100     		.2byte	0x1
 5713 02ca 50       		.byte	0x50
 5714 02cb 21000000 		.4byte	.LVL105-1
 5715 02cf 32000000 		.4byte	.LVL107
 5716 02d3 0100     		.2byte	0x1
 5717 02d5 57       		.byte	0x57
 5718 02d6 00000000 		.4byte	0
 5719 02da 00000000 		.4byte	0
 5720              	.LLST18:
 5721 02de 00000000 		.4byte	.LVL111
 5722 02e2 11000000 		.4byte	.LVL112-1
 5723 02e6 0100     		.2byte	0x1
 5724 02e8 50       		.byte	0x50
 5725 02e9 11000000 		.4byte	.LVL112-1
 5726 02ed F8000000 		.4byte	.LVL131
 5727 02f1 0100     		.2byte	0x1
 5728 02f3 54       		.byte	0x54
 5729 02f4 F8000000 		.4byte	.LVL131
 5730 02f8 FA000000 		.4byte	.LVL132
 5731 02fc 0100     		.2byte	0x1
 5732 02fe 50       		.byte	0x50
 5733 02ff FA000000 		.4byte	.LVL132
 5734 0303 FA000000 		.4byte	.LVL133
 5735 0307 0100     		.2byte	0x1
 5736 0309 54       		.byte	0x54
 5737 030a FA000000 		.4byte	.LVL133
 5738 030e 38010000 		.4byte	.LFE41
 5739 0312 0400     		.2byte	0x4
 5740 0314 F3       		.byte	0xf3
 5741 0315 01       		.uleb128 0x1
 5742 0316 50       		.byte	0x50
 5743 0317 9F       		.byte	0x9f
 5744 0318 00000000 		.4byte	0
 5745 031c 00000000 		.4byte	0
 5746              	.LLST19:
 5747 0320 00000000 		.4byte	.LVL111
 5748 0324 11000000 		.4byte	.LVL112-1
 5749 0328 0100     		.2byte	0x1
 5750 032a 51       		.byte	0x51
 5751 032b 11000000 		.4byte	.LVL112-1
 5752 032f 4A000000 		.4byte	.LVL118
 5753 0333 0100     		.2byte	0x1
ARM GAS  C:\Users\PRICHA~1\AppData\Local\Temp\ccFt17DU.s 			page 131


 5754 0335 55       		.byte	0x55
 5755 0336 4A000000 		.4byte	.LVL118
 5756 033a F8000000 		.4byte	.LVL131
 5757 033e 0400     		.2byte	0x4
 5758 0340 F3       		.byte	0xf3
 5759 0341 01       		.uleb128 0x1
 5760 0342 51       		.byte	0x51
 5761 0343 9F       		.byte	0x9f
 5762 0344 F8000000 		.4byte	.LVL131
 5763 0348 FA000000 		.4byte	.LVL132
 5764 034c 0100     		.2byte	0x1
 5765 034e 51       		.byte	0x51
 5766 034f FA000000 		.4byte	.LVL132
 5767 0353 38010000 		.4byte	.LFE41
 5768 0357 0400     		.2byte	0x4
 5769 0359 F3       		.byte	0xf3
 5770 035a 01       		.uleb128 0x1
 5771 035b 51       		.byte	0x51
 5772 035c 9F       		.byte	0x9f
 5773 035d 00000000 		.4byte	0
 5774 0361 00000000 		.4byte	0
 5775              	.LLST20:
 5776 0365 3A000000 		.4byte	.LVL115
 5777 0369 3D000000 		.4byte	.LVL116-1
 5778 036d 0100     		.2byte	0x1
 5779 036f 50       		.byte	0x50
 5780 0370 00000000 		.4byte	0
 5781 0374 00000000 		.4byte	0
 5782              	.LLST21:
 5783 0378 8A000000 		.4byte	.LVL122
 5784 037c BE000000 		.4byte	.LVL128
 5785 0380 0100     		.2byte	0x1
 5786 0382 55       		.byte	0x55
 5787 0383 00000000 		.4byte	0
 5788 0387 00000000 		.4byte	0
 5789              	.LLST22:
 5790 038b 1C000000 		.4byte	.LVL113
 5791 038f 33000000 		.4byte	.LVL114-1
 5792 0393 0100     		.2byte	0x1
 5793 0395 50       		.byte	0x50
 5794 0396 00000000 		.4byte	0
 5795 039a 00000000 		.4byte	0
 5796              	.LLST23:
 5797 039e 00000000 		.4byte	.LVL134
 5798 03a2 19000000 		.4byte	.LVL136-1
 5799 03a6 0100     		.2byte	0x1
 5800 03a8 50       		.byte	0x50
 5801 03a9 19000000 		.4byte	.LVL136-1
 5802 03ad 24000000 		.4byte	.LFE42
 5803 03b1 0400     		.2byte	0x4
 5804 03b3 F3       		.byte	0xf3
 5805 03b4 01       		.uleb128 0x1
 5806 03b5 50       		.byte	0x50
 5807 03b6 9F       		.byte	0x9f
 5808 03b7 00000000 		.4byte	0
 5809 03bb 00000000 		.4byte	0
 5810              	.LLST24:
ARM GAS  C:\Users\PRICHA~1\AppData\Local\Temp\ccFt17DU.s 			page 132


 5811 03bf 0A000000 		.4byte	.LVL135
 5812 03c3 1E000000 		.4byte	.LVL137
 5813 03c7 0100     		.2byte	0x1
 5814 03c9 54       		.byte	0x54
 5815 03ca 1E000000 		.4byte	.LVL137
 5816 03ce 24000000 		.4byte	.LFE42
 5817 03d2 0500     		.2byte	0x5
 5818 03d4 03       		.byte	0x3
 5819 03d5 00000000 		.4byte	inAuto
 5820 03d9 00000000 		.4byte	0
 5821 03dd 00000000 		.4byte	0
 5822              	.LLST25:
 5823 03e1 00000000 		.4byte	.LVL138
 5824 03e5 07000000 		.4byte	.LVL139-1
 5825 03e9 0100     		.2byte	0x1
 5826 03eb 50       		.byte	0x50
 5827 03ec 07000000 		.4byte	.LVL139-1
 5828 03f0 1C000000 		.4byte	.LFE43
 5829 03f4 0600     		.2byte	0x6
 5830 03f6 F3       		.byte	0xf3
 5831 03f7 03       		.uleb128 0x3
 5832 03f8 F5       		.byte	0xf5
 5833 03f9 00       		.uleb128 0
 5834 03fa 25       		.uleb128 0x25
 5835 03fb 9F       		.byte	0x9f
 5836 03fc 00000000 		.4byte	0
 5837 0400 00000000 		.4byte	0
 5838              	.LLST26:
 5839 0404 10000000 		.4byte	.LVL140
 5840 0408 13000000 		.4byte	.LVL141-1
 5841 040c 0100     		.2byte	0x1
 5842 040e 50       		.byte	0x50
 5843 040f 00000000 		.4byte	0
 5844 0413 00000000 		.4byte	0
 5845              	.LLST27:
 5846 0417 00000000 		.4byte	.LVL142
 5847 041b 04000000 		.4byte	.LVL144
 5848 041f 0100     		.2byte	0x1
 5849 0421 50       		.byte	0x50
 5850 0422 04000000 		.4byte	.LVL144
 5851 0426 34020000 		.4byte	.LFE44
 5852 042a 0400     		.2byte	0x4
 5853 042c F3       		.byte	0xf3
 5854 042d 01       		.uleb128 0x1
 5855 042e 50       		.byte	0x50
 5856 042f 9F       		.byte	0x9f
 5857 0430 00000000 		.4byte	0
 5858 0434 00000000 		.4byte	0
 5859              	.LLST28:
 5860 0438 48000000 		.4byte	.LVL149
 5861 043c 60000000 		.4byte	.LVL150
 5862 0440 0200     		.2byte	0x2
 5863 0442 30       		.byte	0x30
 5864 0443 9F       		.byte	0x9f
 5865 0444 74000000 		.4byte	.LVL154
 5866 0448 88000000 		.4byte	.LVL155
 5867 044c 0100     		.2byte	0x1
ARM GAS  C:\Users\PRICHA~1\AppData\Local\Temp\ccFt17DU.s 			page 133


 5868 044e 50       		.byte	0x50
 5869 044f 88000000 		.4byte	.LVL155
 5870 0453 98000000 		.4byte	.LVL157
 5871 0457 0100     		.2byte	0x1
 5872 0459 54       		.byte	0x54
 5873 045a 98000000 		.4byte	.LVL157
 5874 045e A4000000 		.4byte	.LVL158
 5875 0462 0100     		.2byte	0x1
 5876 0464 50       		.byte	0x50
 5877 0465 A4000000 		.4byte	.LVL158
 5878 0469 34020000 		.4byte	.LFE44
 5879 046d 0100     		.2byte	0x1
 5880 046f 54       		.byte	0x54
 5881 0470 00000000 		.4byte	0
 5882 0474 00000000 		.4byte	0
 5883              	.LLST29:
 5884 0478 AE010000 		.4byte	.LVL175
 5885 047c B5010000 		.4byte	.LVL176-1
 5886 0480 0100     		.2byte	0x1
 5887 0482 50       		.byte	0x50
 5888 0483 00000000 		.4byte	0
 5889 0487 00000000 		.4byte	0
 5890              	.LLST30:
 5891 048b 00010000 		.4byte	.LVL165
 5892 048f 06010000 		.4byte	.LVL166
 5893 0493 0100     		.2byte	0x1
 5894 0495 50       		.byte	0x50
 5895 0496 00000000 		.4byte	0
 5896 049a 00000000 		.4byte	0
 5897              	.LLST31:
 5898 049e 0C010000 		.4byte	.LVL167
 5899 04a2 2E010000 		.4byte	.LVL172
 5900 04a6 0100     		.2byte	0x1
 5901 04a8 55       		.byte	0x55
 5902 04a9 00000000 		.4byte	0
 5903 04ad 00000000 		.4byte	0
 5904              	.LLST32:
 5905 04b1 12010000 		.4byte	.LVL169
 5906 04b5 1C010000 		.4byte	.LVL170
 5907 04b9 0100     		.2byte	0x1
 5908 04bb 50       		.byte	0x50
 5909 04bc 1C010000 		.4byte	.LVL170
 5910 04c0 2E010000 		.4byte	.LVL172
 5911 04c4 0100     		.2byte	0x1
 5912 04c6 56       		.byte	0x56
 5913 04c7 00000000 		.4byte	0
 5914 04cb 00000000 		.4byte	0
 5915              	.LLST33:
 5916 04cf 5C000000 		.4byte	.LVL187
 5917 04d3 60000000 		.4byte	.LVL188
 5918 04d7 0100     		.2byte	0x1
 5919 04d9 54       		.byte	0x54
 5920 04da 62000000 		.4byte	.LVL189
 5921 04de 72000000 		.4byte	.LVL192
 5922 04e2 0100     		.2byte	0x1
 5923 04e4 54       		.byte	0x54
 5924 04e5 00000000 		.4byte	0
ARM GAS  C:\Users\PRICHA~1\AppData\Local\Temp\ccFt17DU.s 			page 134


 5925 04e9 00000000 		.4byte	0
 5926              		.section	.debug_aranges,"",%progbits
 5927 0000 9C000000 		.4byte	0x9c
 5928 0004 0200     		.2byte	0x2
 5929 0006 00000000 		.4byte	.Ldebug_info0
 5930 000a 04       		.byte	0x4
 5931 000b 00       		.byte	0
 5932 000c 0000     		.2byte	0
 5933 000e 0000     		.2byte	0
 5934 0010 00000000 		.4byte	.LFB46
 5935 0014 18000000 		.4byte	.LFE46-.LFB46
 5936 0018 00000000 		.4byte	.LFB47
 5937 001c 12000000 		.4byte	.LFE47-.LFB47
 5938 0020 00000000 		.4byte	.LFB48
 5939 0024 5C000000 		.4byte	.LFE48-.LFB48
 5940 0028 00000000 		.4byte	.LFB32
 5941 002c 28000000 		.4byte	.LFE32-.LFB32
 5942 0030 00000000 		.4byte	.LFB33
 5943 0034 1C000000 		.4byte	.LFE33-.LFB33
 5944 0038 00000000 		.4byte	.LFB35
 5945 003c D8000000 		.4byte	.LFE35-.LFB35
 5946 0040 00000000 		.4byte	.LFB34
 5947 0044 1C000000 		.4byte	.LFE34-.LFB34
 5948 0048 00000000 		.4byte	.LFB37
 5949 004c 40000000 		.4byte	.LFE37-.LFB37
 5950 0050 00000000 		.4byte	.LFB38
 5951 0054 44000000 		.4byte	.LFE38-.LFB38
 5952 0058 00000000 		.4byte	.LFB36
 5953 005c D4020000 		.4byte	.LFE36-.LFB36
 5954 0060 00000000 		.4byte	.LFB39
 5955 0064 30000000 		.4byte	.LFE39-.LFB39
 5956 0068 00000000 		.4byte	.LFB40
 5957 006c 44000000 		.4byte	.LFE40-.LFB40
 5958 0070 00000000 		.4byte	.LFB41
 5959 0074 38010000 		.4byte	.LFE41-.LFB41
 5960 0078 00000000 		.4byte	.LFB42
 5961 007c 24000000 		.4byte	.LFE42-.LFB42
 5962 0080 00000000 		.4byte	.LFB43
 5963 0084 1C000000 		.4byte	.LFE43-.LFB43
 5964 0088 00000000 		.4byte	.LFB44
 5965 008c 34020000 		.4byte	.LFE44-.LFB44
 5966 0090 00000000 		.4byte	.LFB45
 5967 0094 40010000 		.4byte	.LFE45-.LFB45
 5968 0098 00000000 		.4byte	0
 5969 009c 00000000 		.4byte	0
 5970              		.section	.debug_ranges,"",%progbits
 5971              	.Ldebug_ranges0:
 5972 0000 00000000 		.4byte	.LFB46
 5973 0004 18000000 		.4byte	.LFE46
 5974 0008 00000000 		.4byte	.LFB47
 5975 000c 12000000 		.4byte	.LFE47
 5976 0010 00000000 		.4byte	.LFB48
 5977 0014 5C000000 		.4byte	.LFE48
 5978 0018 00000000 		.4byte	.LFB32
 5979 001c 28000000 		.4byte	.LFE32
 5980 0020 00000000 		.4byte	.LFB33
 5981 0024 1C000000 		.4byte	.LFE33
ARM GAS  C:\Users\PRICHA~1\AppData\Local\Temp\ccFt17DU.s 			page 135


 5982 0028 00000000 		.4byte	.LFB35
 5983 002c D8000000 		.4byte	.LFE35
 5984 0030 00000000 		.4byte	.LFB34
 5985 0034 1C000000 		.4byte	.LFE34
 5986 0038 00000000 		.4byte	.LFB37
 5987 003c 40000000 		.4byte	.LFE37
 5988 0040 00000000 		.4byte	.LFB38
 5989 0044 44000000 		.4byte	.LFE38
 5990 0048 00000000 		.4byte	.LFB36
 5991 004c D4020000 		.4byte	.LFE36
 5992 0050 00000000 		.4byte	.LFB39
 5993 0054 30000000 		.4byte	.LFE39
 5994 0058 00000000 		.4byte	.LFB40
 5995 005c 44000000 		.4byte	.LFE40
 5996 0060 00000000 		.4byte	.LFB41
 5997 0064 38010000 		.4byte	.LFE41
 5998 0068 00000000 		.4byte	.LFB42
 5999 006c 24000000 		.4byte	.LFE42
 6000 0070 00000000 		.4byte	.LFB43
 6001 0074 1C000000 		.4byte	.LFE43
 6002 0078 00000000 		.4byte	.LFB44
 6003 007c 34020000 		.4byte	.LFE44
 6004 0080 00000000 		.4byte	.LFB45
 6005 0084 40010000 		.4byte	.LFE45
 6006 0088 00000000 		.4byte	0
 6007 008c 00000000 		.4byte	0
 6008              		.section	.debug_line,"",%progbits
 6009              	.Ldebug_line0:
 6010 0000 48050000 		.section	.debug_str,"MS",%progbits,1
 6010      02009902 
 6010      00000201 
 6010      FB0E0D00 
 6010      01010101 
 6011              	.LASF97:
 6012 0000 43757272 		.ascii	"Current_Read_Task\000"
 6012      656E745F 
 6012      52656164 
 6012      5F546173 
 6012      6B00
 6013              	.LASF122:
 6014 0012 43757272 		.ascii	"CurrentPosition\000"
 6014      656E7450 
 6014      6F736974 
 6014      696F6E00 
 6015              	.LASF158:
 6016 0022 72784D65 		.ascii	"rxMessage\000"
 6016      73736167 
 6016      6500
 6017              	.LASF208:
 6018 002c 6D61696E 		.ascii	"main.c\000"
 6018      2E6300
 6019              	.LASF144:
 6020 0033 70776D4C 		.ascii	"pwmLimit\000"
 6020      696D6974 
 6020      00
 6021              	.LASF82:
 6022 003c 74786D73 		.ascii	"txmsClear\000"
ARM GAS  C:\Users\PRICHA~1\AppData\Local\Temp\ccFt17DU.s 			page 136


 6022      436C6561 
 6022      7200
 6023              	.LASF156:
 6024 0046 4C6F636B 		.ascii	"Lock\000"
 6024      00
 6025              	.LASF64:
 6026 004b 65666673 		.ascii	"effsetdelta\000"
 6026      65746465 
 6026      6C746100 
 6027              	.LASF43:
 6028 0057 6673456E 		.ascii	"fsEncoder\000"
 6028      636F6465 
 6028      7200
 6029              	.LASF37:
 6030 0061 6373556E 		.ascii	"csUnconfig\000"
 6030      636F6E66 
 6030      696700
 6031              	.LASF116:
 6032 006c 6E657741 		.ascii	"newAuto\000"
 6032      75746F00 
 6033              	.LASF176:
 6034 0074 4932435F 		.ascii	"I2C_I2CMasterWriteByte\000"
 6034      4932434D 
 6034      61737465 
 6034      72577269 
 6034      74654279 
 6035              	.LASF1:
 6036 008b 756E7369 		.ascii	"unsigned int\000"
 6036      676E6564 
 6036      20696E74 
 6036      00
 6037              	.LASF151:
 6038 0098 43757272 		.ascii	"Current\000"
 6038      656E7400 
 6039              	.LASF202:
 6040 00a0 50574D5F 		.ascii	"PWM_1_Start\000"
 6040      315F5374 
 6040      61727400 
 6041              	.LASF68:
 6042 00ac 636C6561 		.ascii	"clearfaults\000"
 6042      72666175 
 6042      6C747300 
 6043              	.LASF19:
 6044 00b8 696E7431 		.ascii	"int16\000"
 6044      3600
 6045              	.LASF108:
 6046 00be 6E65774B 		.ascii	"newKd\000"
 6046      6400
 6047              	.LASF107:
 6048 00c4 6E65774B 		.ascii	"newKi\000"
 6048      6900
 6049              	.LASF106:
 6050 00ca 6E65774B 		.ascii	"newKp\000"
 6050      7000
 6051              	.LASF166:
 6052 00d0 484F4D45 		.ascii	"HOME_IN_ClearInterrupt\000"
 6052      5F494E5F 
ARM GAS  C:\Users\PRICHA~1\AppData\Local\Temp\ccFt17DU.s 			page 137


 6052      436C6561 
 6052      72496E74 
 6052      65727275 
 6053              	.LASF102:
 6054 00e7 6C696D69 		.ascii	"limit\000"
 6054      7400
 6055              	.LASF192:
 6056 00ed 4C45445F 		.ascii	"LED_Write\000"
 6056      57726974 
 6056      6500
 6057              	.LASF86:
 6058 00f7 486F6D65 		.ascii	"HomeIsrHandler\000"
 6058      49737248 
 6058      616E646C 
 6058      657200
 6059              	.LASF84:
 6060 0106 74784D65 		.ascii	"txMessageStates_t\000"
 6060      73736167 
 6060      65537461 
 6060      7465735F 
 6060      7400
 6061              	.LASF111:
 6062 0118 6572726F 		.ascii	"error\000"
 6062      7200
 6063              	.LASF178:
 6064 011e 4932435F 		.ascii	"I2C_I2CMasterReadBuf\000"
 6064      4932434D 
 6064      61737465 
 6064      72526561 
 6064      64427566 
 6065              	.LASF93:
 6066 0133 436C6561 		.ascii	"ClearFault\000"
 6066      72466175 
 6066      6C7400
 6067              	.LASF29:
 6068 013e 50656E64 		.ascii	"PendSV_IRQn\000"
 6068      53565F49 
 6068      52516E00 
 6069              	.LASF200:
 6070 014a 4932435F 		.ascii	"I2C_Start\000"
 6070      53746172 
 6070      7400
 6071              	.LASF127:
 6072 0154 4C617374 		.ascii	"LastJog\000"
 6072      4A6F6700 
 6073              	.LASF38:
 6074 015c 63735265 		.ascii	"csReady\000"
 6074      61647900 
 6075              	.LASF172:
 6076 0164 5350495F 		.ascii	"SPI_1_SpiUartClearTxBuffer\000"
 6076      315F5370 
 6076      69556172 
 6076      74436C65 
 6076      61725478 
 6077              	.LASF14:
 6078 017f 75696E74 		.ascii	"uint32_t\000"
 6078      33325F74 
ARM GAS  C:\Users\PRICHA~1\AppData\Local\Temp\ccFt17DU.s 			page 138


 6078      00
 6079              	.LASF56:
 6080 0188 72784D65 		.ascii	"rxMessage_opcodes_t\000"
 6080      73736167 
 6080      655F6F70 
 6080      636F6465 
 6080      735F7400 
 6081              	.LASF69:
 6082 019c 72784D65 		.ascii	"rxMessage_status_t\000"
 6082      73736167 
 6082      655F7374 
 6082      61747573 
 6082      5F7400
 6083              	.LASF89:
 6084 01af 41737365 		.ascii	"AssertFault\000"
 6084      72744661 
 6084      756C7400 
 6085              	.LASF0:
 6086 01bb 666C6F61 		.ascii	"float\000"
 6086      7400
 6087              	.LASF196:
 6088 01c1 6973725F 		.ascii	"isr_spi_ss_StartEx\000"
 6088      7370695F 
 6088      73735F53 
 6088      74617274 
 6088      457800
 6089              	.LASF57:
 6090 01d4 63686563 		.ascii	"checksum\000"
 6090      6B73756D 
 6090      00
 6091              	.LASF20:
 6092 01dd 696E7433 		.ascii	"int32\000"
 6092      3200
 6093              	.LASF188:
 6094 01e3 494E4445 		.ascii	"INDEX_OUT_SetDriveMode\000"
 6094      585F4F55 
 6094      545F5365 
 6094      74447269 
 6094      76654D6F 
 6095              	.LASF168:
 6096 01fa 7370695F 		.ascii	"spi_ss_Read\000"
 6096      73735F52 
 6096      65616400 
 6097              	.LASF100:
 6098 0206 72657375 		.ascii	"result\000"
 6098      6C7400
 6099              	.LASF12:
 6100 020d 6C6F6E67 		.ascii	"long long unsigned int\000"
 6100      206C6F6E 
 6100      6720756E 
 6100      7369676E 
 6100      65642069 
 6101              	.LASF132:
 6102 0224 5049445F 		.ascii	"PID_EffSetDelta\000"
 6102      45666653 
 6102      65744465 
 6102      6C746100 
ARM GAS  C:\Users\PRICHA~1\AppData\Local\Temp\ccFt17DU.s 			page 139


 6103              	.LASF88:
 6104 0234 73657475 		.ascii	"setupFreeRTOS\000"
 6104      70467265 
 6104      6552544F 
 6104      5300
 6105              	.LASF133:
 6106 0242 6C617374 		.ascii	"lastTime\000"
 6106      54696D65 
 6106      00
 6107              	.LASF146:
 6108 024b 70776D4D 		.ascii	"pwmMin\000"
 6108      696E00
 6109              	.LASF164:
 6110 0252 496E6465 		.ascii	"Index_Counter_1_WriteCounter\000"
 6110      785F436F 
 6110      756E7465 
 6110      725F315F 
 6110      57726974 
 6111              	.LASF135:
 6112 026f 49546572 		.ascii	"ITerm\000"
 6112      6D00
 6113              	.LASF90:
 6114 0275 62797465 		.ascii	"byteMSB\000"
 6114      4D534200 
 6115              	.LASF66:
 6116 027d 656E6162 		.ascii	"enable\000"
 6116      6C6500
 6117              	.LASF174:
 6118 0284 75785461 		.ascii	"uxTaskGetStackHighWaterMark\000"
 6118      736B4765 
 6118      74537461 
 6118      636B4869 
 6118      67685761 
 6119              	.LASF203:
 6120 02a0 50574D5F 		.ascii	"PWM_1_WritePeriod\000"
 6120      315F5772 
 6120      69746550 
 6120      6572696F 
 6120      6400
 6121              	.LASF147:
 6122 02b2 436F6E66 		.ascii	"ConfigState\000"
 6122      69675374 
 6122      61746500 
 6123              	.LASF207:
 6124 02be 474E5520 		.ascii	"GNU C11 5.4.1 20160609 (release) [ARM/embedded-5-br"
 6124      43313120 
 6124      352E342E 
 6124      31203230 
 6124      31363036 
 6125 02f1 616E6368 		.ascii	"anch revision 237715] -mcpu=cortex-m0 -mthumb -g -O"
 6125      20726576 
 6125      6973696F 
 6125      6E203233 
 6125      37373135 
 6126 0324 67202D66 		.ascii	"g -ffunction-sections -ffat-lto-objects\000"
 6126      66756E63 
 6126      74696F6E 
ARM GAS  C:\Users\PRICHA~1\AppData\Local\Temp\ccFt17DU.s 			page 140


 6126      2D736563 
 6126      74696F6E 
 6127              	.LASF63:
 6128 034c 6C696D69 		.ascii	"limit_ITerm\000"
 6128      745F4954 
 6128      65726D00 
 6129              	.LASF142:
 6130 0358 6F75744D 		.ascii	"outMax_Total\000"
 6130      61785F54 
 6130      6F74616C 
 6130      00
 6131              	.LASF118:
 6132 0365 5049445F 		.ascii	"PID_SetDrive\000"
 6132      53657444 
 6132      72697665 
 6132      00
 6133              	.LASF179:
 6134 0372 76546173 		.ascii	"vTaskDelay\000"
 6134      6B44656C 
 6134      617900
 6135              	.LASF117:
 6136 037d 5F426F6F 		.ascii	"_Bool\000"
 6136      6C00
 6137              	.LASF42:
 6138 0383 6673556E 		.ascii	"fsUnconfigured\000"
 6138      636F6E66 
 6138      69677572 
 6138      656400
 6139              	.LASF126:
 6140 0392 696E4175 		.ascii	"inAuto\000"
 6140      746F00
 6141              	.LASF96:
 6142 0399 64726976 		.ascii	"drive\000"
 6142      6500
 6143              	.LASF182:
 6144 039f 78517565 		.ascii	"xQueueSemaphoreTake\000"
 6144      75655365 
 6144      6D617068 
 6144      6F726554 
 6144      616B6500 
 6145              	.LASF183:
 6146 03b3 5350495F 		.ascii	"SPI_1_SpiUartPutArray\000"
 6146      315F5370 
 6146      69556172 
 6146      74507574 
 6146      41727261 
 6147              	.LASF167:
 6148 03c9 7370695F 		.ascii	"spi_ss_ClearInterrupt\000"
 6148      73735F43 
 6148      6C656172 
 6148      496E7465 
 6148      72727570 
 6149              	.LASF92:
 6150 03df 43757272 		.ascii	"CurrentTemp\000"
 6150      656E7454 
 6150      656D7000 
 6151              	.LASF181:
ARM GAS  C:\Users\PRICHA~1\AppData\Local\Temp\ccFt17DU.s 			page 141


 6152 03eb 436F756E 		.ascii	"Counter_1_ReadCounter\000"
 6152      7465725F 
 6152      315F5265 
 6152      6164436F 
 6152      756E7465 
 6153              	.LASF184:
 6154 0401 78517565 		.ascii	"xQueueGenericSend\000"
 6154      75654765 
 6154      6E657269 
 6154      6353656E 
 6154      6400
 6155              	.LASF73:
 6156 0413 76657273 		.ascii	"version0\000"
 6156      696F6E30 
 6156      00
 6157              	.LASF74:
 6158 041c 76657273 		.ascii	"version1\000"
 6158      696F6E31 
 6158      00
 6159              	.LASF75:
 6160 0425 76657273 		.ascii	"version2\000"
 6160      696F6E32 
 6160      00
 6161              	.LASF60:
 6162 042e 72784D65 		.ascii	"rxMessage_overlay_t\000"
 6162      73736167 
 6162      655F6F76 
 6162      65726C61 
 6162      795F7400 
 6163              	.LASF198:
 6164 0442 6973725F 		.ascii	"isr_rst_encoder_SetPriority\000"
 6164      7273745F 
 6164      656E636F 
 6164      6465725F 
 6164      53657450 
 6165              	.LASF136:
 6166 045e 506F7369 		.ascii	"Position\000"
 6166      74696F6E 
 6166      00
 6167              	.LASF22:
 6168 0467 63686172 		.ascii	"char\000"
 6168      00
 6169              	.LASF32:
 6170 046c 55426173 		.ascii	"UBaseType_t\000"
 6170      65547970 
 6170      655F7400 
 6171              	.LASF70:
 6172 0478 6F766572 		.ascii	"overlay\000"
 6172      6C617900 
 6173              	.LASF114:
 6174 0480 5049445F 		.ascii	"PID_SetMode\000"
 6174      5365744D 
 6174      6F646500 
 6175              	.LASF94:
 6176 048c 50574D5F 		.ascii	"PWM_Set\000"
 6176      53657400 
 6177              	.LASF171:
ARM GAS  C:\Users\PRICHA~1\AppData\Local\Temp\ccFt17DU.s 			page 142


 6178 0494 5350495F 		.ascii	"SPI_1_SpiUartClearRxBuffer\000"
 6178      315F5370 
 6178      69556172 
 6178      74436C65 
 6178      61725278 
 6179              	.LASF193:
 6180 04af 43794465 		.ascii	"CyDelay\000"
 6180      6C617900 
 6181              	.LASF16:
 6182 04b7 75696E74 		.ascii	"uint16\000"
 6182      313600
 6183              	.LASF18:
 6184 04be 696E7438 		.ascii	"int8\000"
 6184      00
 6185              	.LASF59:
 6186 04c3 6F70636F 		.ascii	"opcode\000"
 6186      646500
 6187              	.LASF34:
 6188 04ca 51756575 		.ascii	"QueueHandle_t\000"
 6188      6548616E 
 6188      646C655F 
 6188      7400
 6189              	.LASF190:
 6190 04d8 78546173 		.ascii	"xTaskCreate\000"
 6190      6B437265 
 6190      61746500 
 6191              	.LASF13:
 6192 04e4 75696E74 		.ascii	"uint8_t\000"
 6192      385F7400 
 6193              	.LASF72:
 6194 04ec 73746174 		.ascii	"status\000"
 6194      757300
 6195              	.LASF44:
 6196 04f3 6673496E 		.ascii	"fsIndex\000"
 6196      64657800 
 6197              	.LASF180:
 6198 04fb 50574D5F 		.ascii	"PWM_1_WriteCompare\000"
 6198      315F5772 
 6198      69746543 
 6198      6F6D7061 
 6198      726500
 6199              	.LASF41:
 6200 050e 66734E4F 		.ascii	"fsNONE\000"
 6200      4E4500
 6201              	.LASF161:
 6202 0515 6973725F 		.ascii	"isr_rst_encoder_ClearPending\000"
 6202      7273745F 
 6202      656E636F 
 6202      6465725F 
 6202      436C6561 
 6203              	.LASF177:
 6204 0532 4932435F 		.ascii	"I2C_I2CMasterSendStop\000"
 6204      4932434D 
 6204      61737465 
 6204      7253656E 
 6204      6453746F 
 6205              	.LASF191:
ARM GAS  C:\Users\PRICHA~1\AppData\Local\Temp\ccFt17DU.s 			page 143


 6206 0548 78517565 		.ascii	"xQueueCreateMutex\000"
 6206      75654372 
 6206      65617465 
 6206      4D757465 
 6206      7800
 6207              	.LASF199:
 6208 055a 6973725F 		.ascii	"isr_spi_ss_SetPriority\000"
 6208      7370695F 
 6208      73735F53 
 6208      65745072 
 6208      696F7269 
 6209              	.LASF169:
 6210 0571 78546173 		.ascii	"xTaskGetTickCount\000"
 6210      6B476574 
 6210      5469636B 
 6210      436F756E 
 6210      7400
 6211              	.LASF113:
 6212 0583 74696D65 		.ascii	"timeChange\000"
 6212      4368616E 
 6212      676500
 6213              	.LASF2:
 6214 058e 6C6F6E67 		.ascii	"long long int\000"
 6214      206C6F6E 
 6214      6720696E 
 6214      7400
 6215              	.LASF46:
 6216 059c 66734368 		.ascii	"fsChecksum\000"
 6216      65636B73 
 6216      756D00
 6217              	.LASF31:
 6218 05a7 42617365 		.ascii	"BaseType_t\000"
 6218      54797065 
 6218      5F7400
 6219              	.LASF54:
 6220 05b2 6F704572 		.ascii	"opError\000"
 6220      726F7200 
 6221              	.LASF121:
 6222 05ba 736C6565 		.ascii	"sleeptime\000"
 6222      7074696D 
 6222      6500
 6223              	.LASF186:
 6224 05c4 43795379 		.ascii	"CySysWdtResetCounters\000"
 6224      73576474 
 6224      52657365 
 6224      74436F75 
 6224      6E746572 
 6225              	.LASF211:
 6226 05da 6D656D73 		.ascii	"memset\000"
 6226      657400
 6227              	.LASF24:
 6228 05e1 63796973 		.ascii	"cyisraddress\000"
 6228      72616464 
 6228      72657373 
 6228      00
 6229              	.LASF78:
 6230 05ee 63686563 		.ascii	"checksum_errors\000"
ARM GAS  C:\Users\PRICHA~1\AppData\Local\Temp\ccFt17DU.s 			page 144


 6230      6B73756D 
 6230      5F657272 
 6230      6F727300 
 6231              	.LASF58:
 6232 05fe 73697A65 		.ascii	"size\000"
 6232      00
 6233              	.LASF17:
 6234 0603 75696E74 		.ascii	"uint32\000"
 6234      333200
 6235              	.LASF83:
 6236 060a 74786D73 		.ascii	"txmsLoaded\000"
 6236      4C6F6164 
 6236      656400
 6237              	.LASF152:
 6238 0615 43757272 		.ascii	"CurrentI2Cinbuf\000"
 6238      656E7449 
 6238      3243696E 
 6238      62756600 
 6239              	.LASF141:
 6240 0625 72656653 		.ascii	"refSampleTime\000"
 6240      616D706C 
 6240      6554696D 
 6240      6500
 6241              	.LASF137:
 6242 0633 4C617374 		.ascii	"LastPosition\000"
 6242      506F7369 
 6242      74696F6E 
 6242      00
 6243              	.LASF159:
 6244 0640 74784D65 		.ascii	"txMessage\000"
 6244      73736167 
 6244      6500
 6245              	.LASF163:
 6246 064a 436F756E 		.ascii	"Counter_1_WriteCounter\000"
 6246      7465725F 
 6246      315F5772 
 6246      69746543 
 6246      6F756E74 
 6247              	.LASF157:
 6248 0661 4C617374 		.ascii	"LastMessageTimeTick\000"
 6248      4D657373 
 6248      61676554 
 6248      696D6554 
 6248      69636B00 
 6249              	.LASF87:
 6250 0675 5350495F 		.ascii	"SPI_SS_IsrHandler\000"
 6250      53535F49 
 6250      73724861 
 6250      6E646C65 
 6250      7200
 6251              	.LASF154:
 6252 0687 75784869 		.ascii	"uxHighWaterMark_Current\000"
 6252      67685761 
 6252      7465724D 
 6252      61726B5F 
 6252      43757272 
 6253              	.LASF33:
ARM GAS  C:\Users\PRICHA~1\AppData\Local\Temp\ccFt17DU.s 			page 145


 6254 069f 5469636B 		.ascii	"TickType_t\000"
 6254      54797065 
 6254      5F7400
 6255              	.LASF40:
 6256 06aa 436F6E66 		.ascii	"ConfigStates_t\000"
 6256      69675374 
 6256      61746573 
 6256      5F7400
 6257              	.LASF104:
 6258 06b9 5049445F 		.ascii	"PID_SetTunings\000"
 6258      53657454 
 6258      756E696E 
 6258      677300
 6259              	.LASF3:
 6260 06c8 6C6F6E67 		.ascii	"long double\000"
 6260      20646F75 
 6260      626C6500 
 6261              	.LASF210:
 6262 06d4 4952516E 		.ascii	"IRQn\000"
 6262      00
 6263              	.LASF23:
 6264 06d9 72656733 		.ascii	"reg32\000"
 6264      3200
 6265              	.LASF36:
 6266 06df 6373554E 		.ascii	"csUNDEFINED\000"
 6266      44454649 
 6266      4E454400 
 6267              	.LASF110:
 6268 06eb 5049445F 		.ascii	"PID_Compute\000"
 6268      436F6D70 
 6268      75746500 
 6269              	.LASF105:
 6270 06f7 6E657753 		.ascii	"newSampleTime\000"
 6270      616D706C 
 6270      6554696D 
 6270      6500
 6271              	.LASF61:
 6272 0705 73657175 		.ascii	"sequence\000"
 6272      656E6365 
 6272      00
 6273              	.LASF134:
 6274 070e 4F757470 		.ascii	"Output\000"
 6274      757400
 6275              	.LASF71:
 6276 0715 636F6E66 		.ascii	"config\000"
 6276      696700
 6277              	.LASF45:
 6278 071c 66734375 		.ascii	"fsCurrentRead\000"
 6278      7272656E 
 6278      74526561 
 6278      6400
 6279              	.LASF6:
 6280 072a 73686F72 		.ascii	"short int\000"
 6280      7420696E 
 6280      7400
 6281              	.LASF112:
 6282 0734 64506F73 		.ascii	"dPosition\000"
ARM GAS  C:\Users\PRICHA~1\AppData\Local\Temp\ccFt17DU.s 			page 146


 6282      6974696F 
 6282      6E00
 6283              	.LASF65:
 6284 073e 72784D65 		.ascii	"rxMessage_config_t\000"
 6284      73736167 
 6284      655F636F 
 6284      6E666967 
 6284      5F7400
 6285              	.LASF129:
 6286 0751 5049445F 		.ascii	"PID_Was_Enabled\000"
 6286      5761735F 
 6286      456E6162 
 6286      6C656400 
 6287              	.LASF128:
 6288 0761 5049445F 		.ascii	"PID_Enabled\000"
 6288      456E6162 
 6288      6C656400 
 6289              	.LASF115:
 6290 076d 4D6F6465 		.ascii	"Mode\000"
 6290      00
 6291              	.LASF8:
 6292 0772 6C6F6E67 		.ascii	"long int\000"
 6292      20696E74 
 6292      00
 6293              	.LASF39:
 6294 077b 63734D41 		.ascii	"csMAX\000"
 6294      5800
 6295              	.LASF109:
 6296 0781 73616D70 		.ascii	"sampleTimeInSec\000"
 6296      6C655469 
 6296      6D65496E 
 6296      53656300 
 6297              	.LASF173:
 6298 0791 4379496E 		.ascii	"CyIntSetSysVector\000"
 6298      74536574 
 6298      53797356 
 6298      6563746F 
 6298      7200
 6299              	.LASF26:
 6300 07a3 4E6F6E4D 		.ascii	"NonMaskableInt_IRQn\000"
 6300      61736B61 
 6300      626C6549 
 6300      6E745F49 
 6300      52516E00 
 6301              	.LASF35:
 6302 07b7 53656D61 		.ascii	"SemaphoreHandle_t\000"
 6302      70686F72 
 6302      6548616E 
 6302      646C655F 
 6302      7400
 6303              	.LASF160:
 6304 07c9 74784D65 		.ascii	"txMessageState\000"
 6304      73736167 
 6304      65537461 
 6304      746500
 6305              	.LASF187:
 6306 07d8 484F4D45 		.ascii	"HOME_OUT_SetDriveMode\000"
ARM GAS  C:\Users\PRICHA~1\AppData\Local\Temp\ccFt17DU.s 			page 147


 6306      5F4F5554 
 6306      5F536574 
 6306      44726976 
 6306      654D6F64 
 6307              	.LASF99:
 6308 07ee 52617750 		.ascii	"RawPosition\000"
 6308      6F736974 
 6308      696F6E00 
 6309              	.LASF81:
 6310 07fa 74784D65 		.ascii	"txMessage_t\000"
 6310      73736167 
 6310      655F7400 
 6311              	.LASF67:
 6312 0806 73657470 		.ascii	"setpoint\000"
 6312      6F696E74 
 6312      00
 6313              	.LASF98:
 6314 080f 47657450 		.ascii	"GetPosition\000"
 6314      6F736974 
 6314      696F6E00 
 6315              	.LASF143:
 6316 081b 6F75744D 		.ascii	"outMax_ITerm\000"
 6316      61785F49 
 6316      5465726D 
 6316      00
 6317              	.LASF153:
 6318 0828 75784869 		.ascii	"uxHighWaterMark_PID\000"
 6318      67685761 
 6318      7465724D 
 6318      61726B5F 
 6318      50494400 
 6319              	.LASF145:
 6320 083c 70776D4D 		.ascii	"pwmMax\000"
 6320      617800
 6321              	.LASF130:
 6322 0843 5049445F 		.ascii	"PID_Setpoint\000"
 6322      53657470 
 6322      6F696E74 
 6322      00
 6323              	.LASF9:
 6324 0850 5F5F7569 		.ascii	"__uint8_t\000"
 6324      6E74385F 
 6324      7400
 6325              	.LASF53:
 6326 085a 6F705374 		.ascii	"opStatus\000"
 6326      61747573 
 6326      00
 6327              	.LASF170:
 6328 0863 5350495F 		.ascii	"SPI_1_SpiUartReadRxData\000"
 6328      315F5370 
 6328      69556172 
 6328      74526561 
 6328      64527844 
 6329              	.LASF175:
 6330 087b 4932435F 		.ascii	"I2C_I2CMasterSendStart\000"
 6330      4932434D 
 6330      61737465 
ARM GAS  C:\Users\PRICHA~1\AppData\Local\Temp\ccFt17DU.s 			page 148


 6330      7253656E 
 6330      64537461 
 6331              	.LASF55:
 6332 0892 6F704D41 		.ascii	"opMAX\000"
 6332      5800
 6333              	.LASF101:
 6334 0898 436F6D6D 		.ascii	"Comm_Task\000"
 6334      5F546173 
 6334      6B00
 6335              	.LASF30:
 6336 08a2 53797354 		.ascii	"SysTick_IRQn\000"
 6336      69636B5F 
 6336      4952516E 
 6336      00
 6337              	.LASF150:
 6338 08af 43686563 		.ascii	"ChecksumErrors\000"
 6338      6B73756D 
 6338      4572726F 
 6338      727300
 6339              	.LASF25:
 6340 08be 73697A65 		.ascii	"sizetype\000"
 6340      74797065 
 6340      00
 6341              	.LASF11:
 6342 08c7 6C6F6E67 		.ascii	"long unsigned int\000"
 6342      20756E73 
 6342      69676E65 
 6342      6420696E 
 6342      7400
 6343              	.LASF197:
 6344 08d9 6973725F 		.ascii	"isr_home_SetPriority\000"
 6344      686F6D65 
 6344      5F536574 
 6344      5072696F 
 6344      72697479 
 6345              	.LASF189:
 6346 08ee 496E6465 		.ascii	"Index_Counter_1_ReadCounter\000"
 6346      785F436F 
 6346      756E7465 
 6346      725F315F 
 6346      52656164 
 6347              	.LASF124:
 6348 090a 43757272 		.ascii	"CurrentIndexCount\000"
 6348      656E7449 
 6348      6E646578 
 6348      436F756E 
 6348      7400
 6349              	.LASF206:
 6350 091c 76546173 		.ascii	"vTaskStartScheduler\000"
 6350      6B537461 
 6350      72745363 
 6350      68656475 
 6350      6C657200 
 6351              	.LASF119:
 6352 0930 70657263 		.ascii	"percent\000"
 6352      656E7400 
 6353              	.LASF201:
ARM GAS  C:\Users\PRICHA~1\AppData\Local\Temp\ccFt17DU.s 			page 149


 6354 0938 5350495F 		.ascii	"SPI_1_Start\000"
 6354      315F5374 
 6354      61727400 
 6355              	.LASF5:
 6356 0944 756E7369 		.ascii	"unsigned char\000"
 6356      676E6564 
 6356      20636861 
 6356      7200
 6357              	.LASF204:
 6358 0952 436F756E 		.ascii	"Counter_1_Start\000"
 6358      7465725F 
 6358      315F5374 
 6358      61727400 
 6359              	.LASF10:
 6360 0962 5F5F7569 		.ascii	"__uint32_t\000"
 6360      6E743332 
 6360      5F7400
 6361              	.LASF51:
 6362 096d 6F70554E 		.ascii	"opUNDEFINED\000"
 6362      44454649 
 6362      4E454400 
 6363              	.LASF148:
 6364 0979 4661756C 		.ascii	"FaultState\000"
 6364      74537461 
 6364      746500
 6365              	.LASF28:
 6366 0984 53564361 		.ascii	"SVCall_IRQn\000"
 6366      6C6C5F49 
 6366      52516E00 
 6367              	.LASF47:
 6368 0990 66735832 		.ascii	"fsX2\000"
 6368      00
 6369              	.LASF48:
 6370 0995 66735833 		.ascii	"fsX3\000"
 6370      00
 6371              	.LASF49:
 6372 099a 66735834 		.ascii	"fsX4\000"
 6372      00
 6373              	.LASF149:
 6374 099f 436F6E66 		.ascii	"ConfigSequence\000"
 6374      69675365 
 6374      7175656E 
 6374      636500
 6375              	.LASF95:
 6376 09ae 64757479 		.ascii	"dutycycle\000"
 6376      6379636C 
 6376      6500
 6377              	.LASF140:
 6378 09b8 7265664B 		.ascii	"refKd\000"
 6378      6400
 6379              	.LASF139:
 6380 09be 7265664B 		.ascii	"refKi\000"
 6380      6900
 6381              	.LASF120:
 6382 09c4 5049445F 		.ascii	"PID_Task\000"
 6382      5461736B 
 6382      00
ARM GAS  C:\Users\PRICHA~1\AppData\Local\Temp\ccFt17DU.s 			page 150


 6383              	.LASF162:
 6384 09cd 52657365 		.ascii	"Reset_Encoder_ClearInterrupt\000"
 6384      745F456E 
 6384      636F6465 
 6384      725F436C 
 6384      65617249 
 6385              	.LASF138:
 6386 09ea 7265664B 		.ascii	"refKp\000"
 6386      7000
 6387              	.LASF76:
 6388 09f0 73746174 		.ascii	"state\000"
 6388      6500
 6389              	.LASF62:
 6390 09f6 6C696D69 		.ascii	"limit_Total\000"
 6390      745F546F 
 6390      74616C00 
 6391              	.LASF91:
 6392 0a02 62797465 		.ascii	"byteLSB\000"
 6392      4C534200 
 6393              	.LASF185:
 6394 0a0a 50524F42 		.ascii	"PROBE_Write\000"
 6394      455F5772 
 6394      69746500 
 6395              	.LASF194:
 6396 0a16 6973725F 		.ascii	"isr_home_StartEx\000"
 6396      686F6D65 
 6396      5F537461 
 6396      72744578 
 6396      00
 6397              	.LASF4:
 6398 0a27 7369676E 		.ascii	"signed char\000"
 6398      65642063 
 6398      68617200 
 6399              	.LASF7:
 6400 0a33 73686F72 		.ascii	"short unsigned int\000"
 6400      7420756E 
 6400      7369676E 
 6400      65642069 
 6400      6E7400
 6401              	.LASF103:
 6402 0a46 5049445F 		.ascii	"PID_Initialize\000"
 6402      496E6974 
 6402      69616C69 
 6402      7A6500
 6403              	.LASF125:
 6404 0a55 6D61696E 		.ascii	"main\000"
 6404      00
 6405              	.LASF27:
 6406 0a5a 48617264 		.ascii	"HardFault_IRQn\000"
 6406      4661756C 
 6406      745F4952 
 6406      516E00
 6407              	.LASF79:
 6408 0a69 63757272 		.ascii	"current\000"
 6408      656E7400 
 6409              	.LASF15:
 6410 0a71 75696E74 		.ascii	"uint8\000"
ARM GAS  C:\Users\PRICHA~1\AppData\Local\Temp\ccFt17DU.s 			page 151


 6410      3800
 6411              	.LASF21:
 6412 0a77 646F7562 		.ascii	"double\000"
 6412      6C6500
 6413              	.LASF205:
 6414 0a7e 496E6465 		.ascii	"Index_Counter_1_Start\000"
 6414      785F436F 
 6414      756E7465 
 6414      725F315F 
 6414      53746172 
 6415              	.LASF155:
 6416 0a94 75784869 		.ascii	"uxHighWaterMark_Comm\000"
 6416      67685761 
 6416      7465724D 
 6416      61726B5F 
 6416      436F6D6D 
 6417              	.LASF52:
 6418 0aa9 6F70436F 		.ascii	"opConfig\000"
 6418      6E666967 
 6418      00
 6419              	.LASF195:
 6420 0ab2 6973725F 		.ascii	"isr_rst_encoder_StartEx\000"
 6420      7273745F 
 6420      656E636F 
 6420      6465725F 
 6420      53746172 
 6421              	.LASF165:
 6422 0aca 6973725F 		.ascii	"isr_home_ClearPending\000"
 6422      686F6D65 
 6422      5F436C65 
 6422      61725065 
 6422      6E64696E 
 6423              	.LASF77:
 6424 0ae0 6661756C 		.ascii	"fault\000"
 6424      7400
 6425              	.LASF85:
 6426 0ae6 52535449 		.ascii	"RSTIsrHandler\000"
 6426      73724861 
 6426      6E646C65 
 6426      7200
 6427              	.LASF80:
 6428 0af4 706F7369 		.ascii	"position\000"
 6428      74696F6E 
 6428      00
 6429              	.LASF50:
 6430 0afd 4661756C 		.ascii	"FaultStates_t\000"
 6430      74537461 
 6430      7465735F 
 6430      7400
 6431              	.LASF131:
 6432 0b0b 5049445F 		.ascii	"PID_EffectiveSetpoint\000"
 6432      45666665 
 6432      63746976 
 6432      65536574 
 6432      706F696E 
 6433              	.LASF209:
 6434 0b21 433A5C70 		.ascii	"C:\\proj\\acsnb-motor-cypress\\QuadEncoderRTOS.cyds"
ARM GAS  C:\Users\PRICHA~1\AppData\Local\Temp\ccFt17DU.s 			page 152


 6434      726F6A5C 
 6434      6163736E 
 6434      622D6D6F 
 6434      746F722D 
 6435 0b51 6E00     		.ascii	"n\000"
 6436              	.LASF123:
 6437 0b53 44656C74 		.ascii	"DeltaPosition\000"
 6437      61506F73 
 6437      6974696F 
 6437      6E00
 6438              		.ident	"GCC: (GNU Tools for ARM Embedded Processors) 5.4.1 20160609 (release) [ARM/embedded-5-bran
