ARM GAS  C:\Users\PRICHA~1\AppData\Local\Temp\ccecR4Xo.s 			page 1


   1              		.syntax unified
   2              		.cpu cortex-m0
   3              		.fpu softvfp
   4              		.eabi_attribute 20, 1
   5              		.eabi_attribute 21, 1
   6              		.eabi_attribute 23, 3
   7              		.eabi_attribute 24, 1
   8              		.eabi_attribute 25, 1
   9              		.eabi_attribute 26, 1
  10              		.eabi_attribute 30, 1
  11              		.eabi_attribute 34, 0
  12              		.eabi_attribute 18, 4
  13              		.thumb
  14              		.syntax unified
  15              		.file	"main.c"
  16              		.text
  17              	.Ltext0:
  18              		.cfi_sections	.debug_frame
  19              		.section	.text.RSTIsrHandler,"ax",%progbits
  20              		.align	2
  21              		.global	RSTIsrHandler
  22              		.code	16
  23              		.thumb_func
  24              		.type	RSTIsrHandler, %function
  25              	RSTIsrHandler:
  26              	.LFB46:
  27              		.file 1 "main.c"
   1:main.c        **** /*******************************************************************************
   2:main.c        **** * File Name: main.c
   3:main.c        **** * Author: Paul Richards, W.M. Keck Observatory
   4:main.c        **** *   (Adapted from original non-RTOS version from Kona Scientific, JP Fumo)
   5:main.c        **** *
   6:main.c        **** * Description:
   7:main.c        **** *  This file provides a SPI interface for the Quadrature Encoder for the ACS project.
   8:main.c        **** *  The I2C device provides readback of motor current consumption.
   9:main.c        **** *
  10:main.c        **** * History:
  11:main.c        **** * 12/18/18 PMR  Rev: B  Implement checksummed messaging and max PWM limiting
  12:main.c        **** * 10/11/18 PMR  Rev: A  Implement PWM functions for PDI control
  13:main.c        **** * 07/31/18 PMR  Rev: NC Initial Release after port from Kona Scientific code
  14:main.c        **** *******************************************************************************/
  15:main.c        **** #include <FreeRTOS.h>
  16:main.c        **** #include <semphr.h>
  17:main.c        **** #include <task.h>
  18:main.c        **** #include <I2C_I2C.h>
  19:main.c        **** #include <stdbool.h>
  20:main.c        **** #include <stdlib.h>
  21:main.c        **** #include <math.h>
  22:main.c        **** #include "INA219.h"
  23:main.c        **** 
  24:main.c        **** /* Debugging - undefine this for a production system that needs to watchdog */
  25:main.c        **** #define DEBUG_PROBE_ATTACHED 1
  26:main.c        **** 
  27:main.c        **** /* --------------------------------------------------------------------- 
  28:main.c        ****  * CONSTANTS
  29:main.c        ****  * --------------------------------------------------------------------- */
  30:main.c        **** 
ARM GAS  C:\Users\PRICHA~1\AppData\Local\Temp\ccecR4Xo.s 			page 2


  31:main.c        **** /* Interrupt priorities (not to be confused with RTOS task priorities) */
  32:main.c        **** #define NESTED_ISR                             (1u)
  33:main.c        **** #define DEFAULT_PRIORITY                       (3u)
  34:main.c        **** #define HIGHER_PRIORITY                        (2u)
  35:main.c        **** 
  36:main.c        **** /* Interrupt prototypes */
  37:main.c        **** CY_ISR_PROTO(HomeIsrHandler);
  38:main.c        **** CY_ISR_PROTO(RSTIsrHandler);
  39:main.c        **** CY_ISR_PROTO(SPI_IsrHandler);
  40:main.c        **** CY_ISR_PROTO(SPI_SS_IsrHandler);
  41:main.c        **** 
  42:main.c        **** /* --------------------------------------------------------------------- 
  43:main.c        ****  * WDT Defines
  44:main.c        ****  *
  45:main.c        ****  * ILO clock is 32KHz (approx. 31ms/count)
  46:main.c        ****  * We will allow the CPU to stall for 2 full seconds before forcibly
  47:main.c        ****  * resetting.  That comes to 64,000 counts for that 2 seconds.
  48:main.c        ****  * --------------------------------------------------------------------- */
  49:main.c        **** #define WDT_COUNT1_REFRESH()                   CySysWdtResetCounters(CY_SYS_WDT_COUNTER1_RESET)
  50:main.c        **** #define WDT_COUNT1_MATCH_RESET                 (0xFA00u)
  51:main.c        **** 
  52:main.c        **** /* --------------------------------------------------------------------- 
  53:main.c        ****  * PWM Defines
  54:main.c        ****  * --------------------------------------------------------------------- */
  55:main.c        **** #define PWM_15KHZ_PERIOD 1600
  56:main.c        **** #define PWM_PCT_TO_COMPARE(x) trunc((float) x * (PWM_15KHZ_PERIOD/100))
  57:main.c        **** #define PWM_IDLE 50.0
  58:main.c        **** 
  59:main.c        **** /* TI INA219 Zero-Drift, Bidirectional Current/Power Monitor With I2C Interface */
  60:main.c        **** #define INA219_I2C_ADDR                        (0x40)
  61:main.c        **** #define INA219_CAL_VALUE                       (8192)
  62:main.c        **** 
  63:main.c        **** volatile int8 Jog, Last_Jog;
  64:main.c        **** int8 PWM_Max_Fwd, PWM_Max_Rev;
  65:main.c        **** 
  66:main.c        **** /* Neutral PWM jog is a 50% duty cycle */
  67:main.c        **** #define PWM_JOG_NEUTRAL                        (50)
  68:main.c        **** 
  69:main.c        **** /* PWM maximum current value clipped to +/- X% duty cycle around the center (50 by default, full po
  70:main.c        **** #define PWM_MAX_MAGNITUDE                      (50) 
  71:main.c        **** 
  72:main.c        **** /* --------------------------------------------------------------------- 
  73:main.c        ****  * PID Defines
  74:main.c        ****  * --------------------------------------------------------------------- */
  75:main.c        **** bool PID_Enabled, PID_Was_Enabled;
  76:main.c        **** uint32 PID_Setpoint;
  77:main.c        **** 
  78:main.c        **** uint32 lastTime;
  79:main.c        **** float Output;
  80:main.c        **** float ITerm, lastPosition;
  81:main.c        **** float refKp, refKi, refKd;
  82:main.c        **** float kp, ki, kd;
  83:main.c        **** uint32 refSampleTime = 5; // Default to 5ms
  84:main.c        **** float outMin, outMax;
  85:main.c        **** bool inAuto = false;
  86:main.c        ****  
  87:main.c        **** #define PID_MANUAL 0
ARM GAS  C:\Users\PRICHA~1\AppData\Local\Temp\ccecR4Xo.s 			page 3


  88:main.c        **** #define PID_AUTOMATIC 1
  89:main.c        **** 
  90:main.c        **** /* --------------------------------------------------------------------- 
  91:main.c        ****  * ENCODER PROPERTIES
  92:main.c        ****  * --------------------------------------------------------------------- */
  93:main.c        **** #define ENCODER_MAX                            (0x00800000)
  94:main.c        **** #define ENCODER_COUNTS_PER_INDEX               (10000)
  95:main.c        **** 
  96:main.c        **** /* --------------------------------------------------------------------- 
  97:main.c        ****  * INA219 REGISTERS
  98:main.c        ****  * --------------------------------------------------------------------- */
  99:main.c        **** #define INA219_REG_CONFIG                      (0x00)
 100:main.c        **** #define INA219_REG_SHUNTVOLTAGE                (0x01)
 101:main.c        **** #define INA219_REG_BUSVOLTAGE                  (0x02)
 102:main.c        **** #define INA219_REG_POWER                       (0x03)
 103:main.c        **** #define INA219_REG_CURRENT                     (0x04)
 104:main.c        **** #define INA219_REG_CALIBRATION                 (0x05)
 105:main.c        **** 
 106:main.c        **** /* ****************************
 107:main.c        ****  * INA219 CONFIG REGISTER (R/W)
 108:main.c        ****  * **************************** */
 109:main.c        **** #define INA219_CONFIG_RESET                    (0x8000)  // Reset Bit
 110:main.c        **** 
 111:main.c        **** #define INA219_CONFIG_BVOLTAGERANGE_MASK       (0x2000)  // Bus Voltage Range Mask
 112:main.c        **** #define INA219_CONFIG_BVOLTAGERANGE_16V        (0x0000)  // 0-16V Range
 113:main.c        **** #define INA219_CONFIG_BVOLTAGERANGE_32V        (0x2000)  // 0-32V Range
 114:main.c        **** 
 115:main.c        **** #define INA219_CONFIG_GAIN_MASK                (0x1800)  // Gain Mask
 116:main.c        **** #define INA219_CONFIG_GAIN_1_40MV              (0x0000)  // Gain 1, 40mV Range
 117:main.c        **** #define INA219_CONFIG_GAIN_2_80MV              (0x0800)  // Gain 2, 80mV Range
 118:main.c        **** #define INA219_CONFIG_GAIN_4_160MV             (0x1000)  // Gain 4, 160mV Range
 119:main.c        **** #define INA219_CONFIG_GAIN_8_320MV             (0x1800)  // Gain 8, 320mV Range
 120:main.c        **** 
 121:main.c        **** #define INA219_CONFIG_BADCRES_MASK             (0x0780)  // Bus ADC Resolution Mask
 122:main.c        **** #define INA219_CONFIG_BADCRES_9BIT             (0x0080)  // 9-bit bus res = 0..511
 123:main.c        **** #define INA219_CONFIG_BADCRES_10BIT            (0x0100)  // 10-bit bus res = 0..1023
 124:main.c        **** #define INA219_CONFIG_BADCRES_11BIT            (0x0200)  // 11-bit bus res = 0..2047
 125:main.c        **** #define INA219_CONFIG_BADCRES_12BIT            (0x0400)  // 12-bit bus res = 0..4097
 126:main.c        **** 
 127:main.c        **** #define INA219_CONFIG_SADCRES_MASK             (0x0078)  // Shunt ADC Resolution and Averaging Mask
 128:main.c        **** #define INA219_CONFIG_SADCRES_9BIT_1S_84US     (0x0000)  // 1 x 9-bit shunt sample
 129:main.c        **** #define INA219_CONFIG_SADCRES_10BIT_1S_148US   (0x0008)  // 1 x 10-bit shunt sample
 130:main.c        **** #define INA219_CONFIG_SADCRES_11BIT_1S_276US   (0x0010)  // 1 x 11-bit shunt sample
 131:main.c        **** #define INA219_CONFIG_SADCRES_12BIT_1S_532US   (0x0018)  // 1 x 12-bit shunt sample
 132:main.c        **** #define INA219_CONFIG_SADCRES_12BIT_2S_1060US  (0x0048)	 // 2 x 12-bit shunt samples averaged toget
 133:main.c        **** #define INA219_CONFIG_SADCRES_12BIT_4S_2130US  (0x0050)  // 4 x 12-bit shunt samples averaged toget
 134:main.c        **** #define INA219_CONFIG_SADCRES_12BIT_8S_4260US  (0x0058)  // 8 x 12-bit shunt samples averaged toget
 135:main.c        **** #define INA219_CONFIG_SADCRES_12BIT_16S_8510US (0x0060)  // 16 x 12-bit shunt samples averaged toge
 136:main.c        **** #define INA219_CONFIG_SADCRES_12BIT_32S_17MS   (0x0068)  // 32 x 12-bit shunt samples averaged toge
 137:main.c        **** #define INA219_CONFIG_SADCRES_12BIT_64S_34MS   (0x0070)  // 64 x 12-bit shunt samples averaged toge
 138:main.c        **** #define INA219_CONFIG_SADCRES_12BIT_128S_69MS  (0x0078)  // 128 x 12-bit shunt samples averaged tog
 139:main.c        **** 
 140:main.c        **** #define INA219_CONFIG_MODE_MASK                (0x0007)  // Operating Mode Mask
 141:main.c        **** #define INA219_CONFIG_MODE_POWERDOWN           (0x0000)
 142:main.c        **** #define INA219_CONFIG_MODE_SVOLT_TRIGGERED     (0x0001)
 143:main.c        **** #define INA219_CONFIG_MODE_BVOLT_TRIGGERED     (0x0002)
 144:main.c        **** #define INA219_CONFIG_MODE_SANDBVOLT_TRIGGERED (0x0003)
ARM GAS  C:\Users\PRICHA~1\AppData\Local\Temp\ccecR4Xo.s 			page 4


 145:main.c        **** #define INA219_CONFIG_MODE_ADCOFF              (0x0004)
 146:main.c        **** #define INA219_CONFIG_MODE_SVOLT_CONTINUOUS    (0x0005)
 147:main.c        **** #define INA219_CONFIG_MODE_BVOLT_CONTINUOUS    (0x0006)
 148:main.c        **** #define INA219_CONFIG_MODE_SANDBVOLT_CONTINUOUS (0x0007)	
 149:main.c        **** 
 150:main.c        **** 
 151:main.c        **** /* --------------------------------------------------------------------- 
 152:main.c        ****  * RTOS INTERFACES
 153:main.c        ****  * --------------------------------------------------------------------- */
 154:main.c        **** /* Define macros for delaying a task by an amount, returning control back to the OS.
 155:main.c        ****    We have to sleep in OS ticks, so compute how many that is and sleep that long.
 156:main.c        ****    Minimum sleep time is 1ms. */
 157:main.c        **** #define Sleep(MSToSleep)    vTaskDelay( ( MSToSleep * 1000 ) / configTICK_RATE_HZ )
 158:main.c        **** 
 159:main.c        **** 
 160:main.c        **** /* --------------------------------------------------------------------- 
 161:main.c        ****  * GLOBALS
 162:main.c        ****  * --------------------------------------------------------------------- */
 163:main.c        **** /* Coarse reporting of state back to the node box software */
 164:main.c        **** typedef enum {    
 165:main.c        ****     csUNDEFINED   = 0,  /* Invalid state */
 166:main.c        ****     csUnconfig    = 1,  /* Unconfigured, freshly rebooted */
 167:main.c        ****     csReady       = 2,  /* Configuration complete and ready for commands */
 168:main.c        ****     csMAX    
 169:main.c        **** } ConfigStates_t;
 170:main.c        **** 
 171:main.c        **** #define configStateValid(s) ( ((ConfigStates_t) s > csUNDEFINED) && ((ConfigStates_t) s < csMAX) )
 172:main.c        **** 
 173:main.c        **** /* Fault codes, these are bit encoded into a uint8 */
 174:main.c        **** typedef enum {
 175:main.c        ****     fsNONE         = 0b00000000,    /* No faults detected */
 176:main.c        ****     fsUnconfigured = 0b00000001,    /* Attempt to move an unconfigured system */
 177:main.c        ****     fsEncoder      = 0b00000010,    /* One or more encoder phases not changing during a move */
 178:main.c        ****     fsIndex        = 0b00000100,    /* Index marks not seen during a move */
 179:main.c        ****     fsCurrentRead  = 0b00001000,    /* Unable to read current from INA219 device */
 180:main.c        ****     fsChecksum     = 0b00010000,    /* Too many checksum faults */
 181:main.c        ****     fsX2           = 0b00100000,    /* */
 182:main.c        ****     fsX3           = 0b01000000,    /* */
 183:main.c        ****     fsX4           = 0b10000000     /* */
 184:main.c        **** } FaultStates_t;
 185:main.c        **** 
 186:main.c        **** volatile ConfigStates_t ConfigState;
 187:main.c        **** volatile uint8 FaultState;
 188:main.c        **** volatile uint8 ConfigSequence;
 189:main.c        **** volatile uint16 ChecksumErrors;
 190:main.c        **** volatile uint16 Current;
 191:main.c        **** volatile float PWM;
 192:main.c        **** volatile uint32 PID_Last_Position;
 193:main.c        **** uint8 CurrentI2Cinbuf[20];
 194:main.c        **** 
 195:main.c        **** /* Task stack information */
 196:main.c        **** volatile UBaseType_t uxHighWaterMark_PID;
 197:main.c        **** volatile UBaseType_t uxHighWaterMark_Current;
 198:main.c        **** volatile UBaseType_t uxHighWaterMark_Comm;
 199:main.c        **** 
 200:main.c        **** /* Message buffer lock */
 201:main.c        **** SemaphoreHandle_t Lock;
ARM GAS  C:\Users\PRICHA~1\AppData\Local\Temp\ccecR4Xo.s 			page 5


 202:main.c        **** 
 203:main.c        **** /* --------------------------------------------------------------------- 
 204:main.c        ****  * SPI MESSAGING
 205:main.c        ****  * --------------------------------------------------------------------- */
 206:main.c        **** /* V2 protocol 
 207:main.c        **** 
 208:main.c        ****    1) Messages have opcodes (configuration, position, get status)
 209:main.c        ****    2) Messages are validated by a checksum instead of an arbitrary signature pattern.
 210:main.c        ****    3) Transfer the max message size every time, regardless of all bytes used or not.
 211:main.c        **** 
 212:main.c        **** */
 213:main.c        ****     
 214:main.c        **** /* Set this to match the size of the status response message, 18 bytes */    
 215:main.c        **** #define MAX_MESSAGE_SIZE 30
 216:main.c        ****     
 217:main.c        **** /* Remember the last time a message came in so we can timeout moves if the node box stops 
 218:main.c        ****    talking.  5000 ticks is 1 second of not talking. */
 219:main.c        **** #define MAX_LAST_MESSAGE_TIME_TICKS 1000
 220:main.c        **** uint32 LastMessageTimeTick;
 221:main.c        **** 
 222:main.c        **** /* Opcodes that can come from the node box software */
 223:main.c        **** typedef enum {
 224:main.c        ****     opUNDEFINED = 0,
 225:main.c        ****     opConfig    = 1,
 226:main.c        ****     opStatus    = 2,
 227:main.c        ****     opError     = 3,
 228:main.c        ****     opMAX       
 229:main.c        **** } rxMessage_opcodes_t;    
 230:main.c        **** 
 231:main.c        **** /* Sanity check for opcodes */
 232:main.c        **** #define rxMessageOpcodeValid(op) ( ((rxMessage_opcodes_t) op > opUNDEFINED) && ((rxMessage_opcodes_
 233:main.c        **** 
 234:main.c        **** typedef struct { 
 235:main.c        ****     uint8 checksum;        
 236:main.c        ****     uint8 size;       /* Size of the message bytes, including opcode and size and checksum */
 237:main.c        ****     uint8 opcode;     /* Operation (generic overlay for previewing opcode value) */
 238:main.c        **** } __attribute__ ((__packed__)) rxMessage_overlay_t;
 239:main.c        **** 
 240:main.c        **** /* Configuration message, 17 bytes */
 241:main.c        **** typedef struct {
 242:main.c        ****     uint8 checksum;        
 243:main.c        ****     uint8 size;       /* Size of the message bytes, including opcode and size and checksum */
 244:main.c        ****     uint8 opcode;     /* Operation: 01 == config */        
 245:main.c        ****     uint8 sequence;   /* Configuration message sequence number */
 246:main.c        ****     float Kp;         /* PID constants to be used in calculation */
 247:main.c        ****     float Ki;
 248:main.c        ****     float Kd;
 249:main.c        ****     uint8 limit;      /* PWM duty cycle (speed) limit, +/- percent */
 250:main.c        **** } __attribute__ ((__packed__)) rxMessage_config_t;
 251:main.c        **** 
 252:main.c        **** /* Status message, contains desired position and such values, 12 bytes */
 253:main.c        **** typedef struct {
 254:main.c        ****     uint8  checksum;        
 255:main.c        ****     uint8  size;       /* Size of the message bytes, including opcode and size and checksum */
 256:main.c        ****     uint8  opcode;     /* Operation: 02 == status */
 257:main.c        ****     uint8  enable;     /* Enable/disable PID algorithm */
 258:main.c        ****     uint32 setpoint;   /* Setpoint (desired actuator position) */
ARM GAS  C:\Users\PRICHA~1\AppData\Local\Temp\ccecR4Xo.s 			page 6


 259:main.c        ****     int8   jog;        /* Jog value, to manually move the motor; valid range -100 to 100 */ 
 260:main.c        ****     uint8  clearfaults;/* Set to nonzero to clear all the current faults */
 261:main.c        **** } __attribute__ ((__packed__)) rxMessage_status_t;
 262:main.c        ****    
 263:main.c        **** 
 264:main.c        **** 
 265:main.c        **** /* Wrap the message with an array of bytes */
 266:main.c        **** union {
 267:main.c        ****     uint8               buf[MAX_MESSAGE_SIZE];
 268:main.c        ****     rxMessage_overlay_t overlay;
 269:main.c        ****     rxMessage_config_t  config;
 270:main.c        ****     rxMessage_status_t  status;  
 271:main.c        **** } rxMessage;
 272:main.c        **** 
 273:main.c        **** /* Message back to the BBB, watch out for alignment here by packing the structure (should be 18 byt
 274:main.c        **** typedef struct  {  
 275:main.c        ****     uint8  checksum;   /* Message checksum */    
 276:main.c        ****     uint8  size;       /* Size of the message bytes, including opcode and size and checksum */
 277:main.c        ****     uint8  opcode;     /* Echo back of the opcode this response is for, operation: 03 == status */
 278:main.c        ****     uint8  state;      /* Enum value for current device configuration state */ 
 279:main.c        ****     uint8  fault;      /* Bit encoded fields for current fault status */
 280:main.c        ****     uint8  sequence;   /* Echo back the config sequence number currently set */
 281:main.c        ****     uint16 checksum_errors; /* Count of checksum errors */
 282:main.c        ****     uint16 current;    /* Motor current consumption (mA) */
 283:main.c        ****     uint32 position;   /* Actual actuator position */ 
 284:main.c        ****     float pwm;         /* PWM value the motor is moving at */     
 285:main.c        **** } __attribute__ ((__packed__)) txMessage_t;
 286:main.c        **** 
 287:main.c        **** /* Wrap the message with an array of bytes */
 288:main.c        **** union {    
 289:main.c        ****     uint8       buf[MAX_MESSAGE_SIZE];
 290:main.c        ****     txMessage_t msg;
 291:main.c        **** } txMessage;
 292:main.c        **** 
 293:main.c        **** /* State machine definition for transmit side of messaging */
 294:main.c        **** typedef enum {
 295:main.c        ****     txmsClear,    /* Transmit message buffer is empty and needs loading */
 296:main.c        ****     txmsLoaded    /* Transmit message buffer has been loaded by the message thread for sending */
 297:main.c        **** } txMessageStates_t;
 298:main.c        **** 
 299:main.c        **** txMessageStates_t txMessageState;
 300:main.c        **** 
 301:main.c        ****     
 302:main.c        **** 
 303:main.c        **** /*******************************************************************************
 304:main.c        **** * Function Name: setupFreeRTOS
 305:main.c        **** ********************************************************************************
 306:main.c        **** * Summary:
 307:main.c        **** *  Hooks the tick and service handlers for the RTOS at runtime.
 308:main.c        **** *
 309:main.c        **** * Parameters: None
 310:main.c        **** * Return: None
 311:main.c        **** *******************************************************************************/
 312:main.c        **** 
 313:main.c        **** extern void xPortPendSVHandler(void);
 314:main.c        **** extern void xPortSysTickHandler(void);
 315:main.c        **** extern void vPortSVCHandler(void);
ARM GAS  C:\Users\PRICHA~1\AppData\Local\Temp\ccecR4Xo.s 			page 7


 316:main.c        **** 
 317:main.c        **** void setupFreeRTOS(void) {
 318:main.c        **** #define CORTEX_INTERRUPT_BASE (16)
 319:main.c        ****     
 320:main.c        ****     /* Handler for Cortex Supervisor Call (SVC, formerly SWI) - address 11 */
 321:main.c        ****     CyIntSetSysVector( CORTEX_INTERRUPT_BASE + SVCall_IRQn, (cyisraddress)vPortSVCHandler );
 322:main.c        ****     
 323:main.c        ****     /* Handler for Cortex PendSV Call - address 14 */
 324:main.c        ****     CyIntSetSysVector( CORTEX_INTERRUPT_BASE + PendSV_IRQn, (cyisraddress)xPortPendSVHandler );    
 325:main.c        ****     
 326:main.c        ****     /* Handler for Cortex SYSTICK - address 15 */
 327:main.c        ****     CyIntSetSysVector( CORTEX_INTERRUPT_BASE + SysTick_IRQn, (cyisraddress)xPortSysTickHandler );
 328:main.c        **** }
 329:main.c        **** 
 330:main.c        **** 
 331:main.c        **** /*******************************************************************************
 332:main.c        **** * Function Name: AssertFault
 333:main.c        **** ********************************************************************************
 334:main.c        **** * Summary:
 335:main.c        **** *  Sets a flag that a particular fault has been detected.  Assert fsNONE to clear
 336:main.c        **** *  all faults.
 337:main.c        **** *
 338:main.c        **** * Parameters: FaultStates_t of the fault detected.
 339:main.c        **** * Return: None
 340:main.c        **** *******************************************************************************/
 341:main.c        **** void AssertFault(FaultStates_t fault) {
 342:main.c        ****  
 343:main.c        ****     switch (fault) {
 344:main.c        ****      
 345:main.c        ****         /* Clears all asserted faults */
 346:main.c        ****         case fsNONE:
 347:main.c        ****             FaultState = fsNONE;
 348:main.c        ****             break;        
 349:main.c        ****         
 350:main.c        ****         /* Any other fault has its bit turned on in the fault status */
 351:main.c        ****         default:
 352:main.c        ****             FaultState |= fault;
 353:main.c        ****             break;        
 354:main.c        ****     }    
 355:main.c        **** }
 356:main.c        **** 
 357:main.c        **** 
 358:main.c        **** /*******************************************************************************
 359:main.c        **** * Function Name: ClearFault
 360:main.c        **** ********************************************************************************
 361:main.c        **** * Summary:
 362:main.c        **** *  Clears a flag that a particular fault has been detected.  Assert fsNONE to clear
 363:main.c        **** *  all faults.
 364:main.c        **** *
 365:main.c        **** * Parameters: FaultStates_t of the fault to be cleared.
 366:main.c        **** * Return: None
 367:main.c        **** *******************************************************************************/
 368:main.c        **** void ClearFault(FaultStates_t fault) {
 369:main.c        ****  
 370:main.c        ****     switch (fault) {
 371:main.c        ****      
 372:main.c        ****         /* Clears all asserted faults */
ARM GAS  C:\Users\PRICHA~1\AppData\Local\Temp\ccecR4Xo.s 			page 8


 373:main.c        ****         case fsNONE:
 374:main.c        ****             FaultState = fsNONE;
 375:main.c        ****             break;        
 376:main.c        ****         
 377:main.c        ****         /* Any other fault has its bit turned off in the fault status */
 378:main.c        ****         default:
 379:main.c        ****             FaultState &= ~fault;
 380:main.c        ****             break;        
 381:main.c        ****     }    
 382:main.c        **** }
 383:main.c        **** 
 384:main.c        **** 
 385:main.c        **** /*******************************************************************************
 386:main.c        **** * Function Name: Current_Read_Task
 387:main.c        **** ********************************************************************************
 388:main.c        **** * Summary:
 389:main.c        **** *  RTOS task to read the motor current consumption.
 390:main.c        **** *
 391:main.c        **** * Parameters: None
 392:main.c        **** * Return: None
 393:main.c        **** *******************************************************************************/
 394:main.c        **** void Current_Read_Task(void *arg) {
 395:main.c        ****     
 396:main.c        **** //#ifdef zero
 397:main.c        ****     volatile uint32 err;
 398:main.c        ****     uint8 byteMSB;
 399:main.c        ****     uint8 byteLSB;
 400:main.c        **** //#endif
 401:main.c        **** 
 402:main.c        ****     volatile uint16 CurrentTemp;
 403:main.c        ****     uint8 foo = 0;
 404:main.c        ****     
 405:main.c        ****     /* Initial high water mark reading */
 406:main.c        ****     uxHighWaterMark_Current = uxTaskGetStackHighWaterMark( NULL );
 407:main.c        ****     
 408:main.c        ****     //TODO Init_INA(INA219_I2C_ADDR);
 409:main.c        ****     
 410:main.c        ****     while (1) {
 411:main.c        ****         LED_Write(foo);
 412:main.c        ****         PROBE_Write(foo);
 413:main.c        **** 
 414:main.c        ****         if (foo) { foo = 0; } else { foo = 1; }
 415:main.c        ****         
 416:main.c        ****         //TODO CurrentTemp = getCurrent_raw(INA219_I2C_ADDR);
 417:main.c        ****         
 418:main.c        ****         
 419:main.c        **** //#ifdef zero        
 420:main.c        ****         err = I2C_I2CMasterSendStart(INA219_I2C_ADDR, 0x00, 10); // send start condition for the IN
 421:main.c        ****         if (err == I2C_I2C_MSTR_NO_ERROR) {
 422:main.c        ****             
 423:main.c        ****             I2C_I2CMasterWriteByte(INA219_REG_CALIBRATION, 10);
 424:main.c        ****             
 425:main.c        ****             byteMSB = (uint8)((INA219_CAL_VALUE & 0xFF00) >> 8);
 426:main.c        ****             I2C_I2CMasterWriteByte(byteMSB, 10);
 427:main.c        ****             
 428:main.c        ****             byteLSB = (uint8)(INA219_CAL_VALUE & 0x00FF);
 429:main.c        ****             I2C_I2CMasterWriteByte(byteLSB, 10);
ARM GAS  C:\Users\PRICHA~1\AppData\Local\Temp\ccecR4Xo.s 			page 9


 430:main.c        ****             I2C_I2CMasterSendStop(10);
 431:main.c        ****         } else {
 432:main.c        ****             Current = 0;
 433:main.c        ****             AssertFault(fsCurrentRead);
 434:main.c        ****         }
 435:main.c        ****         
 436:main.c        ****         err = I2C_I2CMasterSendStart(INA219_I2C_ADDR, 0x00, 10); // send start condition for the IN
 437:main.c        ****         if (err == I2C_I2C_MSTR_NO_ERROR) {
 438:main.c        ****             
 439:main.c        ****             I2C_I2CMasterWriteByte(INA219_REG_CURRENT, 10);
 440:main.c        ****             I2C_I2CMasterSendStop(10);
 441:main.c        ****             
 442:main.c        ****             /* Read back the value for the current usage */
 443:main.c        ****             err = I2C_I2CMasterReadBuf(INA219_I2C_ADDR, CurrentI2Cinbuf, 5, 1);
 444:main.c        ****             
 445:main.c        ****             /* Reassemble the current value into a 16 bit value */
 446:main.c        ****             if (err == I2C_I2C_MSTR_NO_ERROR) {
 447:main.c        ****                 CurrentTemp = (uint16)(CurrentI2Cinbuf[0] << 8) + CurrentI2Cinbuf[1];
 448:main.c        ****             } else {
 449:main.c        ****                 CurrentTemp = 0;   
 450:main.c        ****                 AssertFault(fsCurrentRead);
 451:main.c        ****             }
 452:main.c        ****         } else {
 453:main.c        ****             CurrentTemp = 0; 
 454:main.c        ****             AssertFault(fsCurrentRead);
 455:main.c        ****         }
 456:main.c        **** //#endif
 457:main.c        **** 
 458:main.c        **** 
 459:main.c        ****         /* Perform the assignment as one operation, to make it as atomic as possible (may need more
 460:main.c        ****         Current = CurrentTemp;
 461:main.c        **** 
 462:main.c        ****         /* Read the current at 2Hz */        
 463:main.c        ****         Sleep(500);
 464:main.c        ****         
 465:main.c        ****         /* Get our task stack usage high water mark */    
 466:main.c        ****         uxHighWaterMark_Current = uxTaskGetStackHighWaterMark( NULL );
 467:main.c        ****     }
 468:main.c        ****    
 469:main.c        **** }
 470:main.c        **** 
 471:main.c        **** /*******************************************************************************
 472:main.c        **** * Function Name: Comm_Task
 473:main.c        **** ********************************************************************************
 474:main.c        **** * Summary:
 475:main.c        **** *  RTOS task to perform the SPI communications.
 476:main.c        **** *
 477:main.c        **** * Parameters: None
 478:main.c        **** * Return: None
 479:main.c        **** *******************************************************************************/
 480:main.c        **** void Comm_Task(void *arg) {
 481:main.c        ****  
 482:main.c        ****     rxMessage_opcodes_t opcode;
 483:main.c        ****     uint8 size;
 484:main.c        ****     uint8 i;
 485:main.c        ****     uint8 checksum;
 486:main.c        ****     
ARM GAS  C:\Users\PRICHA~1\AppData\Local\Temp\ccecR4Xo.s 			page 10


 487:main.c        ****     /* Initial high water mark reading */
 488:main.c        ****     uxHighWaterMark_Comm = uxTaskGetStackHighWaterMark( NULL );  
 489:main.c        ****     
 490:main.c        ****     while (1) {
 491:main.c        ****         
 492:main.c        ****         /* If the SPI is moving data out right now, skip any touching of the message buffer */
 493:main.c        ****         if (!SPI_1_SpiIsBusBusy()) {
 494:main.c        ****         
 495:main.c        ****             /* In certain states, this thread is responsible for loading the outbound messaging */
 496:main.c        ****             switch (txMessageState) {
 497:main.c        ****              
 498:main.c        ****                 /* Output buffer is clear and ready for loading, rxMessage is (probably) good and n
 499:main.c        ****                 case txmsClear:
 500:main.c        **** 
 501:main.c        ****                     /* Take the lock, set the fields, and release the lock.  If we can't get the lo
 502:main.c        ****                        we have missed this messaging cycle have to skip it.
 503:main.c        ****                        2018-12-18 PMR: At the moment, this is the only task taking the lock so it w
 504:main.c        ****                                        Sometime in the future we might need the lock so I am leavin
 505:main.c        ****                     */
 506:main.c        ****                     if( xSemaphoreTake( Lock, ( TickType_t ) 4 ) == pdTRUE ) {
 507:main.c        ****                         
 508:main.c        ****                         /* Get a few items out of the message before checking the sum */
 509:main.c        ****                         size     = rxMessage.overlay.size;
 510:main.c        ****                         opcode   = (rxMessage_opcodes_t) rxMessage.overlay.opcode;
 511:main.c        ****                         
 512:main.c        ****                         /* Make sure the size makes sense.  If we have to reset the size it's proba
 513:main.c        ****                         if (size > sizeof(txMessage.buf))
 514:main.c        ****                             size = sizeof(txMessage.buf);                            
 515:main.c        ****                     
 516:main.c        ****                         /* Calculate the checksum by summing the bytes of the entire message, it sh
 517:main.c        ****                         for (i = 0, checksum = 0; i < size; i++)
 518:main.c        ****                             checksum += rxMessage.buf[i]; 
 519:main.c        **** 
 520:main.c        ****                         /* Checksum fault, don't try to process the messgage */
 521:main.c        ****                         if ((checksum & 0xFF) != 0) {
 522:main.c        ****                             
 523:main.c        ****                             txMessage.msg.opcode = opcode;
 524:main.c        ****                             txMessage.msg.size = sizeof(txMessage_t);
 525:main.c        ****                             ChecksumErrors++;
 526:main.c        ****                             
 527:main.c        ****                         /* Message looks fine, process it */
 528:main.c        ****                         } else {
 529:main.c        **** 
 530:main.c        ****                             /* Message opcode must be valid before trying to process the message co
 531:main.c        ****                             if ( rxMessageOpcodeValid(opcode) ) {                            
 532:main.c        ****                             
 533:main.c        ****                                 switch (opcode) {
 534:main.c        ****                                 
 535:main.c        ****                                     case opConfig:
 536:main.c        ****                                         /* Special message to establish settings on the device such
 537:main.c        ****                                     
 538:main.c        ****                                         /* Update the 'reference' values passed down from the serve
 539:main.c        ****                                            values are time interval adjusted */
 540:main.c        ****                                         refKp = rxMessage.config.Kp;
 541:main.c        ****                                         refKi = rxMessage.config.Ki;
 542:main.c        ****                                         refKd = rxMessage.config.Kd;                               
 543:main.c        ****                                            
ARM GAS  C:\Users\PRICHA~1\AppData\Local\Temp\ccecR4Xo.s 			page 11


 544:main.c        ****                                         /* Setup the PWM limits and stop a jog if one was in progre
 545:main.c        ****                                         Jog = 0;
 546:main.c        ****                                         PWM_Max_Fwd = PWM_JOG_NEUTRAL + rxMessage.config.limit;
 547:main.c        ****                                         PWM_Max_Rev = PWM_JOG_NEUTRAL - rxMessage.config.limit;    
 548:main.c        ****                                     
 549:main.c        ****                                         /* We have received a config message, so signal to the PID 
 550:main.c        ****                                         ConfigState = csReady;  
 551:main.c        ****                                         ConfigSequence = rxMessage.config.sequence;
 552:main.c        ****                                     
 553:main.c        ****                                         /* Clear all the faults when reconfigured */
 554:main.c        ****                                         ClearFault(fsNONE);
 555:main.c        ****                                         break;
 556:main.c        **** 
 557:main.c        ****                                     case opStatus:
 558:main.c        ****                                         /* The normal message telling us where to go, how much to j
 559:main.c        ****                                         PID_Enabled = (bool) rxMessage.status.enable;
 560:main.c        ****                                         
 561:main.c        ****                                         /* If we are commanded to move somewhere else, remember whe
 562:main.c        ****                                         if (PID_Setpoint != rxMessage.status.setpoint) {
 563:main.c        ****                                             
 564:main.c        ****                                             /* Remember where we started */
 565:main.c        ****                                             PID_Last_Position = Counter_1_ReadCounter();      
 566:main.c        ****                                             
 567:main.c        ****                                             /* Update destination */
 568:main.c        ****                                             PID_Setpoint = rxMessage.status.setpoint;
 569:main.c        ****                                             
 570:main.c        ****                                             /* Reset counting of index marks */
 571:main.c        ****                                             Index_Counter_1_WriteCounter(0);
 572:main.c        ****                                         }                                        
 573:main.c        ****                                     
 574:main.c        ****                                         /* PWM jog value ranges from -50 to 50, where -50 is max-re
 575:main.c        ****                                         Jog = rxMessage.status.jog;                                
 576:main.c        ****                                         break;
 577:main.c        ****                                     
 578:main.c        ****                                     /* No other opcodes are valid */
 579:main.c        ****                                     default:
 580:main.c        ****                                         break;
 581:main.c        ****                                 }                           
 582:main.c        ****                             }                            
 583:main.c        ****                         }
 584:main.c        ****                         
 585:main.c        ****                         /* Fill out the common reponse the same way every time, as a status respons
 586:main.c        ****                         txMessage.msg.checksum = 0;                            
 587:main.c        ****                         txMessage.msg.opcode   = opStatus;
 588:main.c        ****                         txMessage.msg.size     = sizeof(txMessage_t);
 589:main.c        ****                         txMessage.msg.state    = (uint8) ConfigState;
 590:main.c        ****                         txMessage.msg.fault    = (uint8) FaultState;
 591:main.c        ****                         txMessage.msg.checksum_errors = ChecksumErrors;
 592:main.c        ****                         txMessage.msg.sequence = ConfigSequence;
 593:main.c        ****                         txMessage.msg.position = Counter_1_ReadCounter();
 594:main.c        ****                         txMessage.msg.pwm      = PWM;
 595:main.c        ****                         txMessage.msg.current  = Current;                            
 596:main.c        ****                         
 597:main.c        ****                         /* Set the checksum in the response */
 598:main.c        ****                         for (i = 0, checksum = 0; i < sizeof(txMessage_t); i++)
 599:main.c        ****                             checksum += txMessage.buf[i]; 
 600:main.c        ****                             
ARM GAS  C:\Users\PRICHA~1\AppData\Local\Temp\ccecR4Xo.s 			page 12


 601:main.c        ****                         /* Take the 2's complement of the sum and put it back in the message */
 602:main.c        ****                         txMessage.msg.checksum = ~checksum + 1;
 603:main.c        ****                             
 604:main.c        ****                         /* Copy the readied buffer out to the FIFO */
 605:main.c        ****                         //TODO: should we clear this here, or at the end of the transmit complete i
 606:main.c        ****                         SPI_1_SpiUartPutArray(txMessage.buf, sizeof(txMessage.buf)); 
 607:main.c        **** 
 608:main.c        ****                         /* Indicate it's loaded for use */
 609:main.c        ****                         txMessageState = txmsLoaded;
 610:main.c        ****                         
 611:main.c        ****                         /* Clear all the faults if told to */
 612:main.c        ****                         if ((bool) rxMessage.status.clearfaults)
 613:main.c        ****                             ClearFault(fsNONE);
 614:main.c        ****                     
 615:main.c        ****                         /* Release the lock */
 616:main.c        ****                         xSemaphoreGive( Lock );
 617:main.c        ****                     }            
 618:main.c        ****                 
 619:main.c        ****                     break;
 620:main.c        ****             
 621:main.c        ****                 /* A message was already readied for transmission, nothing to do here */
 622:main.c        ****                 case txmsLoaded:
 623:main.c        ****                     
 624:main.c        ****                     break;
 625:main.c        ****             }
 626:main.c        ****             
 627:main.c        ****         }
 628:main.c        ****         
 629:main.c        ****         /* Quick sleep, a whole messaging sequence will take maybe 1.5ms */
 630:main.c        ****         Sleep(1);
 631:main.c        ****         
 632:main.c        ****         /* Get our task stack usage high water mark */    
 633:main.c        ****         uxHighWaterMark_Comm = uxTaskGetStackHighWaterMark( NULL );
 634:main.c        ****     }
 635:main.c        **** }
 636:main.c        ****     
 637:main.c        **** 
 638:main.c        **** 
 639:main.c        **** 
 640:main.c        **** /*******************************************************************************
 641:main.c        **** * Function Name: PWM_Set
 642:main.c        **** ********************************************************************************
 643:main.c        **** * Summary:
 644:main.c        **** *  Sets the duty cycle of the PWM at the output pin.
 645:main.c        **** *
 646:main.c        **** * Parameters: Duty cycle, in percent.
 647:main.c        **** * Return: None
 648:main.c        **** *******************************************************************************/
 649:main.c        **** void PWM_Set(float dutycycle) {
 650:main.c        ****     
 651:main.c        ****     float drive = dutycycle;
 652:main.c        **** 
 653:main.c        ****     /* Clip to the configured mix/max */
 654:main.c        ****     if (drive > PWM_Max_Fwd) {
 655:main.c        ****         drive = PWM_Max_Fwd;
 656:main.c        ****     } else if (drive < PWM_Max_Rev) {
 657:main.c        ****         drive = PWM_Max_Rev;
ARM GAS  C:\Users\PRICHA~1\AppData\Local\Temp\ccecR4Xo.s 			page 13


 658:main.c        ****     }
 659:main.c        ****     
 660:main.c        ****     /* If somehow misconfigured to go even higher, clip to the max/min of the drive */
 661:main.c        ****     if (drive > 100) {
 662:main.c        ****         drive = 100;
 663:main.c        ****     } else if (drive < 0) {
 664:main.c        ****         drive = 0;
 665:main.c        ****     }
 666:main.c        ****     
 667:main.c        ****     PWM_1_WriteCompare(PWM_PCT_TO_COMPARE(drive));    
 668:main.c        **** }
 669:main.c        **** 
 670:main.c        **** 
 671:main.c        **** /*******************************************************************************
 672:main.c        **** * Function Name: PID_Initialize
 673:main.c        **** ********************************************************************************
 674:main.c        **** * Summary:
 675:main.c        **** *  Setup and reset the PID terms.
 676:main.c        **** *
 677:main.c        **** * Parameters: None
 678:main.c        **** * Return: None
 679:main.c        **** *******************************************************************************/
 680:main.c        **** void PID_Initialize(void) {
 681:main.c        ****     
 682:main.c        ****     uint32 position;
 683:main.c        ****     
 684:main.c        ****     /* Get up-to-date current position */
 685:main.c        ****     position = Counter_1_ReadCounter();     
 686:main.c        **** 
 687:main.c        ****     lastPosition = position;
 688:main.c        ****     ITerm = Output;
 689:main.c        ****     
 690:main.c        ****     if (ITerm > outMax) {
 691:main.c        ****         ITerm = outMax;
 692:main.c        ****     } else if (ITerm < outMin) {
 693:main.c        ****         ITerm = outMin;
 694:main.c        ****     }
 695:main.c        **** }    
 696:main.c        **** 
 697:main.c        **** 
 698:main.c        **** /*******************************************************************************
 699:main.c        **** * Function Name: PID_SetTunings
 700:main.c        **** ********************************************************************************
 701:main.c        **** * Summary:
 702:main.c        **** *  Setup the p, i, and d gain values and scale to the sample time.
 703:main.c        **** *
 704:main.c        **** * Parameters: Sample time in ms, and Kp, Ki, Kd gains.
 705:main.c        **** * Return: None
 706:main.c        **** *******************************************************************************/
 707:main.c        **** void PID_SetTunings(uint32 newSampleTime, float newKp, float newKi, float newKd) {
 708:main.c        ****     
 709:main.c        ****     if (newSampleTime > 0) {
 710:main.c        ****     
 711:main.c        ****         float sampleTimeInSec = ((float) newSampleTime) / 1000;
 712:main.c        ****     
 713:main.c        ****         kp = newKp;
 714:main.c        ****         ki = newKi * sampleTimeInSec;
ARM GAS  C:\Users\PRICHA~1\AppData\Local\Temp\ccecR4Xo.s 			page 14


 715:main.c        ****         kd = newKd / sampleTimeInSec;        
 716:main.c        ****     }
 717:main.c        **** }
 718:main.c        **** 
 719:main.c        **** 
 720:main.c        **** /*******************************************************************************
 721:main.c        **** * Function Name: PID_Compute
 722:main.c        **** ********************************************************************************
 723:main.c        **** * Summary:
 724:main.c        **** *  Execute a pass through the PID process to create a duty cycle output.
 725:main.c        **** *
 726:main.c        **** * Parameters: Current time and current destination.
 727:main.c        **** * Return: PWM output, in percentage.
 728:main.c        **** *******************************************************************************/
 729:main.c        **** float PID_Compute(uint32 now, uint32 setpoint) {
 730:main.c        ****     
 731:main.c        ****     int32 error, dPosition;
 732:main.c        ****     uint32 timeChange;
 733:main.c        ****     uint32 position;
 734:main.c        ****         
 735:main.c        ****     if(!inAuto) 
 736:main.c        ****         return 0;
 737:main.c        ****     
 738:main.c        ****     /* Get most up-to-date current position */
 739:main.c        ****     position = Counter_1_ReadCounter();     
 740:main.c        **** 
 741:main.c        ****     /* How much time has elapsed since the last pass? */
 742:main.c        ****     timeChange = (now - lastTime);
 743:main.c        ****     
 744:main.c        ****     /* Only do the PID calc if at LEAST 5ms has elapsed */
 745:main.c        ****     if (timeChange >= refSampleTime) {
 746:main.c        **** 
 747:main.c        ****         /* Adjust the gains to the most recent sampling time.  Do it continuously to make sure the 
 748:main.c        ****            in case the cycle runs longer than the normal 5ms. */
 749:main.c        ****         PID_SetTunings(timeChange, refKp, refKi, refKd);
 750:main.c        ****         
 751:main.c        ****         /* Compute all the working error variables */
 752:main.c        ****         error = setpoint - position;
 753:main.c        ****         ITerm += (ki * error);
 754:main.c        ****         
 755:main.c        ****         /* Clip the I term at the output max (windup guard) */
 756:main.c        ****         if (ITerm > outMax) {
 757:main.c        ****             ITerm = outMax;
 758:main.c        ****         } else if (ITerm < outMin) {
 759:main.c        ****             ITerm = outMin;
 760:main.c        ****         }
 761:main.c        ****         
 762:main.c        ****         /* Calculate the error term */
 763:main.c        ****         dPosition = (position - lastPosition);
 764:main.c        **** 
 765:main.c        ****         /* Compute PID Output */
 766:main.c        ****         Output = (kp * error) + ITerm - (kd * dPosition);
 767:main.c        ****         
 768:main.c        ****         /* Clip the output */
 769:main.c        ****         if (Output> outMax) {
 770:main.c        ****             Output = outMax;
 771:main.c        ****         } else if (Output < outMin) {
ARM GAS  C:\Users\PRICHA~1\AppData\Local\Temp\ccecR4Xo.s 			page 15


 772:main.c        ****             Output = outMin;
 773:main.c        ****         }
 774:main.c        **** 
 775:main.c        ****         /* Remember some variables for next time */
 776:main.c        ****         lastPosition = position;
 777:main.c        ****         lastTime = now;        
 778:main.c        ****     }
 779:main.c        ****     
 780:main.c        ****     return Output;    
 781:main.c        **** }
 782:main.c        ****  
 783:main.c        **** 
 784:main.c        **** 
 785:main.c        ****  
 786:main.c        **** /*******************************************************************************
 787:main.c        **** * Function Name: PID_SetOutputLimits
 788:main.c        **** ********************************************************************************
 789:main.c        **** * Summary:
 790:main.c        **** *  Define the output limits of the PID process.
 791:main.c        **** *
 792:main.c        **** * Parameters: Min and Max output values.
 793:main.c        **** * Return: None
 794:main.c        **** *******************************************************************************/
 795:main.c        **** void PID_SetOutputLimits(float Min, float Max) {
 796:main.c        ****     
 797:main.c        ****     if(Min > Max) 
 798:main.c        ****         return;
 799:main.c        **** 
 800:main.c        ****     /* Update the global min/max */
 801:main.c        ****     outMin = Min;
 802:main.c        ****     outMax = Max;
 803:main.c        **** 
 804:main.c        ****     /* Clip the output to the new max */
 805:main.c        ****     if(Output > outMax) {
 806:main.c        ****         Output = outMax;
 807:main.c        ****     } else if (Output < outMin) {
 808:main.c        ****         Output = outMin;
 809:main.c        ****     }
 810:main.c        **** 
 811:main.c        ****     /* Clip the I term to the new max */
 812:main.c        ****     if (ITerm > outMax) {
 813:main.c        ****         ITerm = outMax;
 814:main.c        ****     } else if (ITerm < outMin) {
 815:main.c        ****         ITerm = outMin;
 816:main.c        ****     }
 817:main.c        **** }
 818:main.c        ****  
 819:main.c        **** /*******************************************************************************
 820:main.c        **** * Function Name: PID_SetMode
 821:main.c        **** ********************************************************************************
 822:main.c        **** * Summary:
 823:main.c        **** *  Sets the PID into automatic or manual mode.
 824:main.c        **** *
 825:main.c        **** * Parameters: Mode, either PID_AUTOMATIC or PID_MANUAL.
 826:main.c        **** * Return: None
 827:main.c        **** *******************************************************************************/
 828:main.c        **** void PID_SetMode(uint32 Mode) {
ARM GAS  C:\Users\PRICHA~1\AppData\Local\Temp\ccecR4Xo.s 			page 16


 829:main.c        ****     
 830:main.c        ****     bool newAuto = (Mode == PID_AUTOMATIC);
 831:main.c        ****     
 832:main.c        ****     if (newAuto && !inAuto) {  
 833:main.c        ****         /*we just went from manual to auto*/
 834:main.c        ****         PID_Initialize();
 835:main.c        ****     }
 836:main.c        ****     
 837:main.c        ****     inAuto = newAuto;
 838:main.c        **** } 
 839:main.c        ****     
 840:main.c        **** /*******************************************************************************
 841:main.c        **** * Function Name: PID_SetDrive
 842:main.c        **** ********************************************************************************
 843:main.c        **** * Summary:
 844:main.c        **** *  Convert the output of PID into a duty cycle for use on the PWM.
 845:main.c        **** *
 846:main.c        **** * Parameters: Percentage output to drive the PWM.
 847:main.c        **** * Return: None
 848:main.c        **** *******************************************************************************/
 849:main.c        **** void PID_SetDrive(float percent) {
 850:main.c        ****     
 851:main.c        ****     /* Valid percentage range coming out of the PID algorithm is -100.0 to +100.0 
 852:main.c        ****        which needs to be translated into a duty cycle value of 0.0 to 100.0 */
 853:main.c        ****     float dutycycle = (percent + 100) / 2;    
 854:main.c        ****     
 855:main.c        ****     /* The duty cycle can now be written to the PWM device itself */
 856:main.c        ****     PWM_Set(dutycycle);  
 857:main.c        **** }
 858:main.c        **** 
 859:main.c        **** 
 860:main.c        **** 
 861:main.c        **** 
 862:main.c        **** /*******************************************************************************
 863:main.c        **** * Function Name: PID_Task
 864:main.c        **** ********************************************************************************
 865:main.c        **** * Summary:
 866:main.c        **** *  RTOS task to perform the PID calculations.
 867:main.c        **** *
 868:main.c        **** * Parameters: None
 869:main.c        **** * Return: None
 870:main.c        **** *******************************************************************************/
 871:main.c        **** void PID_Task(void *arg) {
 872:main.c        ****     
 873:main.c        ****     /* Sleep this thread 5ms at a time */
 874:main.c        ****     uint32 sleeptime = 5;    
 875:main.c        ****     uint32 now;
 876:main.c        ****     float percent; 
 877:main.c        ****     int32 CurrentPosition, DeltaPosition;
 878:main.c        ****     uint32 CurrentIndexCount;
 879:main.c        ****     
 880:main.c        ****     /* Initial high water mark reading */
 881:main.c        ****     uxHighWaterMark_PID = uxTaskGetStackHighWaterMark( NULL );
 882:main.c        ****     
 883:main.c        ****     /* Initial values */
 884:main.c        **** 
 885:main.c        ****     /* These are the 'reference' values passed down from the server, not to be used in-the-raw beca
ARM GAS  C:\Users\PRICHA~1\AppData\Local\Temp\ccecR4Xo.s 			page 17


 886:main.c        ****        values are time interval adjusted */
 887:main.c        ****     refKp = 0;
 888:main.c        ****     refKi = 0;
 889:main.c        ****     refKd = 0;
 890:main.c        ****     
 891:main.c        ****     /* Setup the PID subsystem */
 892:main.c        ****     PID_Initialize();
 893:main.c        ****     PID_SetTunings(sleeptime, refKp, refKi, refKd);
 894:main.c        ****     PID_SetOutputLimits(-100.0, 100.0);
 895:main.c        ****     PID_SetMode(PID_MANUAL);
 896:main.c        **** 
 897:main.c        ****     now = 0;
 898:main.c        ****     
 899:main.c        ****     /* Start off disabled */
 900:main.c        ****     PID_Setpoint = 0;  
 901:main.c        ****     PID_Was_Enabled = false;
 902:main.c        ****     PID_Enabled = false;
 903:main.c        ****     
 904:main.c        ****     while (1) {
 905:main.c        ****               
 906:main.c        ****         /* ------------------------------------------------------------------------------------ */
 907:main.c        ****         /* At the top of the PID loop, refresh the counter of the watchdog to indicate the RTOS 
 908:main.c        ****            thread is still alive.  Were the RTOS to crash or the motion thread to die, the CPU 
 909:main.c        ****            will be reset after 2 seconds. */
 910:main.c        ****         WDT_COUNT1_REFRESH();        
 911:main.c        ****         /* ------------------------------------------------------------------------------------ */
 912:main.c        **** 
 913:main.c        ****         
 914:main.c        ****         /* If the server hasn't talked to us in a while (no messages on the SPI), 
 915:main.c        ****            take preventative action and abandon any moves in progress.  When the uint32
 916:main.c        ****            overflows, "now" will be (temporarily) less than the last timestamped message,
 917:main.c        ****            so handle that too */
 918:main.c        ****         now = xTaskGetTickCount();
 919:main.c        ****         if ( (now > (LastMessageTimeTick + MAX_LAST_MESSAGE_TIME_TICKS)) ||
 920:main.c        ****              (now < LastMessageTimeTick) ) {
 921:main.c        ****             
 922:main.c        ****             /* Stop all motion */
 923:main.c        ****             PWM_Set(PWM_JOG_NEUTRAL);
 924:main.c        ****             PID_Enabled = false;
 925:main.c        ****             
 926:main.c        ****             /* Clear the values that would drive motion on the next message arrival.  Assume the ne
 927:main.c        ****                in which case we want to be neutral. */
 928:main.c        ****             Jog = 0;
 929:main.c        **** 
 930:main.c        ****         /* Only run the PID algorithm if we have been configured by the nodebox software */
 931:main.c        ****         } else if (ConfigState == csReady) {
 932:main.c        ****             
 933:main.c        ****             /* Enable the drive outputs for the home and index once configured, otherwise they
 934:main.c        ****                can screw up the boot pins on the BeagleBoneBlack */
 935:main.c        ****             HOME_OUT_SetDriveMode(HOME_OUT_DM_STRONG); 
 936:main.c        ****             INDEX_OUT_SetDriveMode(INDEX_OUT_DM_STRONG); 
 937:main.c        ****         
 938:main.c        ****             /* If the server is asking us to jog, do that instead of PID */
 939:main.c        ****             if (!PID_Enabled) {                   
 940:main.c        ****                 
 941:main.c        ****                 /* When we start homing, it looks like a big negative jog.  Setup to watch the inde
 942:main.c        ****                    so we can assert faults if they aren't changing. */                
ARM GAS  C:\Users\PRICHA~1\AppData\Local\Temp\ccecR4Xo.s 			page 18


 943:main.c        ****                 if ((Jog != Last_Jog) && (Jog != 0)) {
 944:main.c        ****                     
 945:main.c        ****                     /* Update the 'last' jog value, so we don't fall into this reset code over and 
 946:main.c        ****                     Last_Jog = Jog;
 947:main.c        ****                     
 948:main.c        ****                     /* Remember where we started */
 949:main.c        ****                     PID_Last_Position = Counter_1_ReadCounter();      
 950:main.c        ****                     
 951:main.c        ****                     /* Reset counting of index marks */
 952:main.c        ****                     Index_Counter_1_WriteCounter(0);
 953:main.c        ****                 }                
 954:main.c        ****                 
 955:main.c        ****                 /* Drive in the direction and speed the server told us */
 956:main.c        ****                 PWM_Set(PWM_JOG_NEUTRAL + Jog);
 957:main.c        **** 
 958:main.c        ****                 /* Watch for stuck signals while we are moving */
 959:main.c        ****                 if ( Jog != 0 ) {
 960:main.c        ****                 
 961:main.c        ****                     /* If we have moved a good distance away from the origin point, compare index c
 962:main.c        ****                        looking for discrepancy. */
 963:main.c        ****                     CurrentPosition = Counter_1_ReadCounter();
 964:main.c        ****                     DeltaPosition = labs( ((int32) CurrentPosition) - ((int32) PID_Last_Position) )
 965:main.c        ****                     CurrentIndexCount = Index_Counter_1_ReadCounter();
 966:main.c        ****                     
 967:main.c        ****                     /* Look for index failure: the index counter should have incremented by at leas
 968:main.c        ****                     if (CurrentIndexCount == 0)
 969:main.c        ****                         if (DeltaPosition > 2*ENCODER_COUNTS_PER_INDEX) 
 970:main.c        ****                             AssertFault(fsIndex);        
 971:main.c        ****                     
 972:main.c        ****                     /* Look for encoder failure: the encoders should register some amount of moveme
 973:main.c        ****                     if ((CurrentIndexCount > 0) && (DeltaPosition < 2))                     
 974:main.c        ****                         AssertFault(fsEncoder);
 975:main.c        ****                 }
 976:main.c        ****                 
 977:main.c        ****             }
 978:main.c        ****             
 979:main.c        ****             /* Handle mode switching */
 980:main.c        ****             if (!PID_Was_Enabled && PID_Enabled) {
 981:main.c        ****                 PID_SetMode(PID_AUTOMATIC);
 982:main.c        ****             } else if (!PID_Enabled && PID_Was_Enabled) {
 983:main.c        ****                 PID_SetMode(PID_MANUAL);                
 984:main.c        ****             } else {
 985:main.c        ****                 // No mode change happened   
 986:main.c        ****             }
 987:main.c        ****             
 988:main.c        ****             /* Save value for next cycle */
 989:main.c        ****             PID_Was_Enabled = PID_Enabled;
 990:main.c        ****             
 991:main.c        ****                 
 992:main.c        ****             /* Run the PID algorithm */
 993:main.c        ****             percent = PID_Compute(now, PID_Setpoint);
 994:main.c        ****             
 995:main.c        ****             /* Send the pwm back up to the BBB */
 996:main.c        ****             if (PID_Enabled) {
 997:main.c        ****                 
 998:main.c        ****                 /* Use the global PWM value to communicate back the percentage of drive to the serv
 999:main.c        ****                 PWM = percent;
ARM GAS  C:\Users\PRICHA~1\AppData\Local\Temp\ccecR4Xo.s 			page 19


1000:main.c        ****                 
1001:main.c        ****                 /* Put the PID drive percentage out on the wire */
1002:main.c        ****                 PID_SetDrive(percent);
1003:main.c        ****                 
1004:main.c        ****             } else {
1005:main.c        ****                 /* If disabled, just return 0 */
1006:main.c        ****                 PWM = 0;
1007:main.c        ****             }
1008:main.c        ****             
1009:main.c        ****         }
1010:main.c        ****         
1011:main.c        ****         /* Run the loop every 5ms, which is 200Hz update rate */
1012:main.c        ****         Sleep(sleeptime);
1013:main.c        **** 
1014:main.c        ****         /* Get our task stack usage high water mark */    
1015:main.c        ****         uxHighWaterMark_PID = uxTaskGetStackHighWaterMark( NULL );        
1016:main.c        ****     }
1017:main.c        ****    
1018:main.c        **** }
1019:main.c        **** 
1020:main.c        **** 
1021:main.c        **** 
1022:main.c        **** /*******************************************************************************
1023:main.c        **** * Function Name: main
1024:main.c        **** ********************************************************************************
1025:main.c        **** * Summary:
1026:main.c        **** *  Setup tasks, interrupts, and get the RTOS running.
1027:main.c        **** *
1028:main.c        **** * Parameters: None
1029:main.c        **** * Return: NEVER!
1030:main.c        **** *******************************************************************************/
1031:main.c        **** int main(void) {
1032:main.c        ****     
1033:main.c        ****     uint8 s;
1034:main.c        ****     setupFreeRTOS();
1035:main.c        **** 
1036:main.c        ****     /* DISABLE the drive outputs for the home and index immediately upon booting the 
1037:main.c        ****        microprocessor   There is a race condition here: unless the actuator is on a home
1038:main.c        ****        flag or index mark, a 1 will be written to each output.  Depending on which 
1039:main.c        ****        Cypress device this is, it could end up going to one of the boot pins of the Beagle
1040:main.c        ****        Bone Black device.  Undesirable results can result: corrupt serial output on the
1041:main.c        ****        console, inabulity to boot from eMMC, or even a complete failure to power on. */
1042:main.c        ****     HOME_OUT_SetDriveMode(HOME_OUT_DM_DIG_HIZ); 
1043:main.c        ****     INDEX_OUT_SetDriveMode(INDEX_OUT_DM_DIG_HIZ); 
1044:main.c        **** 
1045:main.c        ****     /* Create LED task, which will control the intensity of the LEDs */
1046:main.c        ****     xTaskCreate(
1047:main.c        ****         PID_Task,       /* Task function */
1048:main.c        ****         "PID",          /* Task name (string) */
1049:main.c        ****         64,             /* Task stack, allocated from heap (measured 12/27 to be 24 bytes) */
1050:main.c        ****         0,              /* No param passed to task function */
1051:main.c        ****         2,              /* Medium priority */
1052:main.c        ****         0 );            /* Not using the task handle */    
1053:main.c        ****     
1054:main.c        ****     xTaskCreate(
1055:main.c        ****         Comm_Task,       /* Task function */
1056:main.c        ****         "Communications", /* Task name (string) */
ARM GAS  C:\Users\PRICHA~1\AppData\Local\Temp\ccecR4Xo.s 			page 20


1057:main.c        ****         100,            /* Task stack, allocated from heap (measured 12/27 to be 78 bytes)  */
1058:main.c        ****         0,              /* No param passed to task function */
1059:main.c        ****         3,              /* High priority */
1060:main.c        ****         0 );            /* Not using the task handle */    
1061:main.c        **** 
1062:main.c        ****     xTaskCreate(
1063:main.c        ****         Current_Read_Task, /* Task function */
1064:main.c        ****         "Read Current", /* Task name (string) */
1065:main.c        ****         64,             /* Task stack, allocated from heap (measured 12/27 to be 40 bytes) */
1066:main.c        ****         0,              /* No param passed to task function */
1067:main.c        ****         1,              /* Low priority */
1068:main.c        ****         0 );            /* Not using the task handle */    
1069:main.c        ****     
1070:main.c        ****     /********************************************************************** 
1071:main.c        ****     * Message buffer mutex
1072:main.c        ****     **********************************************************************/
1073:main.c        ****     Lock = xSemaphoreCreateMutex();
1074:main.c        **** 
1075:main.c        ****     /* If we can't create the lock, flash the light and hold here */
1076:main.c        ****     if( Lock == NULL ) {
1077:main.c        ****         s = 1;
1078:main.c        ****         
1079:main.c        ****         while(1) {
1080:main.c        ****             s = !s;
1081:main.c        ****             LED_Write(s); 
1082:main.c        ****             CyDelay(1000u);                    
1083:main.c        ****         }
1084:main.c        ****     }
1085:main.c        ****     
1086:main.c        ****     
1087:main.c        ****     /********************************************************************** 
1088:main.c        ****     * Interrupts
1089:main.c        ****     **********************************************************************/
1090:main.c        ****     
1091:main.c        ****     /* Sets up the Index and Reset interrupt and enables them */
1092:main.c        ****     isr_home_StartEx(HomeIsrHandler);
1093:main.c        ****     isr_rst_encoder_StartEx(RSTIsrHandler);
1094:main.c        ****     
1095:main.c        ****     /* Setup the SPI slave select interrupt ISR */
1096:main.c        ****     isr_spi_ss_StartEx(SPI_SS_IsrHandler);
1097:main.c        ****     
1098:main.c        ****     /* Changes initial priority for the interrupts */
1099:main.c        ****     isr_home_SetPriority(DEFAULT_PRIORITY);
1100:main.c        ****     isr_rst_encoder_SetPriority(HIGHER_PRIORITY);
1101:main.c        ****     isr_spi_ss_SetPriority(DEFAULT_PRIORITY);
1102:main.c        **** 
1103:main.c        ****     /* Enable the global interrupt */
1104:main.c        ****     CyGlobalIntEnable;
1105:main.c        ****     
1106:main.c        ****     
1107:main.c        ****     
1108:main.c        ****     /********************************************************************** 
1109:main.c        ****     * Watchdog timer.  Implements the WDT1 automatic CPU reset.
1110:main.c        ****     **********************************************************************/
1111:main.c        **** 
1112:main.c        ****     /* If you are using the JTAG debugging probe, turn off the watchdog by
1113:main.c        ****        defining DEBUG_PROBE_ATTACHED to something, or it will reset the CPU
ARM GAS  C:\Users\PRICHA~1\AppData\Local\Temp\ccecR4Xo.s 			page 21


1114:main.c        ****        when you hit a breakpoint. */
1115:main.c        **** 
1116:main.c        **** #ifndef DEBUG_PROBE_ATTACHED
1117:main.c        **** 	/* Set WDT counter 1 to generate reset on match */
1118:main.c        **** 	CySysWdtWriteMatch(CY_SYS_WDT_COUNTER1, WDT_COUNT1_MATCH_RESET);
1119:main.c        **** 	CySysWdtWriteMode(CY_SYS_WDT_COUNTER1, CY_SYS_WDT_MODE_RESET);
1120:main.c        ****     CySysWdtWriteClearOnMatch(CY_SYS_WDT_COUNTER1, 1u);
1121:main.c        **** 	
1122:main.c        **** 	/* Enable WDT counter 1 */
1123:main.c        **** 	CySysWdtEnable(CY_SYS_WDT_COUNTER1_MASK);
1124:main.c        **** 	
1125:main.c        **** 	/* Lock WDT registers and try to disable WDT 1 */
1126:main.c        **** 	CySysWdtLock();
1127:main.c        **** 	CySysWdtDisable(CY_SYS_WDT_COUNTER1_MASK);
1128:main.c        **** 	CySysWdtUnlock();        
1129:main.c        **** #endif    
1130:main.c        **** 
1131:main.c        ****     
1132:main.c        ****     /*********************************************************************** 
1133:main.c        ****     * Start the various subsystems.
1134:main.c        ****     ***********************************************************************/
1135:main.c        ****     I2C_Start();
1136:main.c        ****     CyDelay(100u);
1137:main.c        ****     SPI_1_Start();
1138:main.c        ****     
1139:main.c        ****     /* Setup the PWM at a base frequency of 15KHz, 50% duty cycle.  Clock_1 is set to
1140:main.c        ****        12MHz, so the desired period to get 15KHz is a count of 800. */
1141:main.c        ****     PWM_1_Start();
1142:main.c        ****     PWM_1_WritePeriod(PWM_15KHZ_PERIOD);
1143:main.c        ****     PWM_Set(PWM_IDLE);   
1144:main.c        ****     
1145:main.c        ****     /* Default the jog value to neutral (no movement) */
1146:main.c        ****     Jog = 0;
1147:main.c        ****     PWM_Max_Fwd = PWM_JOG_NEUTRAL + PWM_MAX_MAGNITUDE;
1148:main.c        ****     PWM_Max_Rev = PWM_JOG_NEUTRAL - PWM_MAX_MAGNITUDE;
1149:main.c        ****    
1150:main.c        ****     /* Start counting the quadrature encoding */
1151:main.c        ****     Counter_1_Start();    
1152:main.c        ****     Counter_1_WriteCounter(ENCODER_MAX);  // Set the encoder initially to mid range
1153:main.c        ****     PID_Last_Position = ENCODER_MAX;
1154:main.c        ****     
1155:main.c        ****     /* Clear and start the index mark counter */
1156:main.c        ****     Index_Counter_1_Start();
1157:main.c        ****     Index_Counter_1_WriteCounter(0);
1158:main.c        ****      
1159:main.c        ****     /* Set some initial values */
1160:main.c        ****     LastMessageTimeTick = xTaskGetTickCount();
1161:main.c        ****     
1162:main.c        ****     /* Start off unconfigured */
1163:main.c        ****     ConfigState = csUnconfig;  
1164:main.c        ****     ConfigSequence = 0;
1165:main.c        ****     ChecksumErrors = 0;
1166:main.c        ****    
1167:main.c        ****     /***********************************************************************
1168:main.c        ****     * Start the RTOS task scheduler
1169:main.c        ****     ***********************************************************************/
1170:main.c        ****     vTaskStartScheduler();
ARM GAS  C:\Users\PRICHA~1\AppData\Local\Temp\ccecR4Xo.s 			page 22


1171:main.c        ****    
1172:main.c        ****     /***********************************************************************
1173:main.c        ****     *  We should never reach this
1174:main.c        ****     ***********************************************************************/
1175:main.c        ****     return 1;       
1176:main.c        **** }
1177:main.c        **** 
1178:main.c        **** /*******************************************************************************
1179:main.c        **** * Function Name: RSTIsrHandler
1180:main.c        **** ********************************************************************************
1181:main.c        **** * Summary:
1182:main.c        **** *  The interrupt handler for resetting the encoder count interrupts.
1183:main.c        **** *  Clears a pending Interrupt.
1184:main.c        **** *  Clears a pin Interrupt.
1185:main.c        **** *
1186:main.c        **** * Parameters: None
1187:main.c        **** * Return: None
1188:main.c        **** *******************************************************************************/
1189:main.c        **** CY_ISR(RSTIsrHandler) {
  28              		.loc 1 1189 0
  29              		.cfi_startproc
  30              		@ args = 0, pretend = 0, frame = 0
  31              		@ frame_needed = 0, uses_anonymous_args = 0
  32 0000 10B5     		push	{r4, lr}
  33              		.cfi_def_cfa_offset 8
  34              		.cfi_offset 4, -8
  35              		.cfi_offset 14, -4
1190:main.c        ****     
1191:main.c        ****     /* Clear pending Interrupt */
1192:main.c        ****     isr_rst_encoder_ClearPending(); 
  36              		.loc 1 1192 0
  37 0002 FFF7FEFF 		bl	isr_rst_encoder_ClearPending
  38              	.LVL0:
1193:main.c        ****     
1194:main.c        ****     /* Clear pin Interrupt */
1195:main.c        ****     Reset_Encoder_ClearInterrupt();
  39              		.loc 1 1195 0
  40 0006 FFF7FEFF 		bl	Reset_Encoder_ClearInterrupt
  41              	.LVL1:
1196:main.c        ****     
1197:main.c        ****     /* Clear the 24b Encoder (Absolute Position Counter) */
1198:main.c        ****     Counter_1_WriteCounter(0);
  42              		.loc 1 1198 0
  43 000a 0020     		movs	r0, #0
  44 000c FFF7FEFF 		bl	Counter_1_WriteCounter
  45              	.LVL2:
1199:main.c        ****     
1200:main.c        ****     /* Clear the index counter */
1201:main.c        ****     Index_Counter_1_WriteCounter(0);  
  46              		.loc 1 1201 0
  47 0010 0020     		movs	r0, #0
  48 0012 FFF7FEFF 		bl	Index_Counter_1_WriteCounter
  49              	.LVL3:
1202:main.c        **** }
  50              		.loc 1 1202 0
  51              		@ sp needed
  52 0016 10BD     		pop	{r4, pc}
ARM GAS  C:\Users\PRICHA~1\AppData\Local\Temp\ccecR4Xo.s 			page 23


  53              		.cfi_endproc
  54              	.LFE46:
  55              		.size	RSTIsrHandler, .-RSTIsrHandler
  56              		.section	.text.HomeIsrHandler,"ax",%progbits
  57              		.align	2
  58              		.global	HomeIsrHandler
  59              		.code	16
  60              		.thumb_func
  61              		.type	HomeIsrHandler, %function
  62              	HomeIsrHandler:
  63              	.LFB47:
1203:main.c        **** 
1204:main.c        **** /*******************************************************************************
1205:main.c        **** * Function Name: HomeIsrHandler
1206:main.c        **** ********************************************************************************
1207:main.c        **** * Summary:
1208:main.c        **** *  The interrupt handler for resetting the encoder count interrupts.
1209:main.c        **** *  Clears a pending Interrupt.
1210:main.c        **** *  Clears a pin Interrupt.
1211:main.c        **** *
1212:main.c        **** * Parameters: None
1213:main.c        **** * Return: None
1214:main.c        **** *******************************************************************************/
1215:main.c        **** CY_ISR(HomeIsrHandler) {
  64              		.loc 1 1215 0
  65              		.cfi_startproc
  66              		@ args = 0, pretend = 0, frame = 0
  67              		@ frame_needed = 0, uses_anonymous_args = 0
  68 0000 10B5     		push	{r4, lr}
  69              		.cfi_def_cfa_offset 8
  70              		.cfi_offset 4, -8
  71              		.cfi_offset 14, -4
1216:main.c        ****     
1217:main.c        ****     /* Clear pending Interrupt */
1218:main.c        ****     isr_home_ClearPending(); 
  72              		.loc 1 1218 0
  73 0002 FFF7FEFF 		bl	isr_home_ClearPending
  74              	.LVL4:
1219:main.c        ****     
1220:main.c        ****     /* Clear pin Interrupt */
1221:main.c        ****     HOME_IN_ClearInterrupt();
  75              		.loc 1 1221 0
  76 0006 FFF7FEFF 		bl	HOME_IN_ClearInterrupt
  77              	.LVL5:
1222:main.c        **** 
1223:main.c        ****     /* Clear the 24b Encoder (Absolute Position Counter) */
1224:main.c        ****     Counter_1_WriteCounter(0);
  78              		.loc 1 1224 0
  79 000a 0020     		movs	r0, #0
  80 000c FFF7FEFF 		bl	Counter_1_WriteCounter
  81              	.LVL6:
1225:main.c        **** }
  82              		.loc 1 1225 0
  83              		@ sp needed
  84 0010 10BD     		pop	{r4, pc}
  85              		.cfi_endproc
  86              	.LFE47:
ARM GAS  C:\Users\PRICHA~1\AppData\Local\Temp\ccecR4Xo.s 			page 24


  87              		.size	HomeIsrHandler, .-HomeIsrHandler
  88 0012 C046     		.section	.text.SPI_SS_IsrHandler,"ax",%progbits
  89              		.align	2
  90              		.global	SPI_SS_IsrHandler
  91              		.code	16
  92              		.thumb_func
  93              		.type	SPI_SS_IsrHandler, %function
  94              	SPI_SS_IsrHandler:
  95              	.LFB48:
1226:main.c        **** 
1227:main.c        **** 
1228:main.c        **** /*******************************************************************************
1229:main.c        **** * Function Name: SPI_SS_IsrHandler
1230:main.c        **** ********************************************************************************
1231:main.c        **** * Summary:
1232:main.c        **** *  The interrupt handler for knowing when the SPI master deasserts the slave select.
1233:main.c        **** *  Clears a pin Interrupt.
1234:main.c        **** *
1235:main.c        **** * Parameters: None
1236:main.c        **** * Return: None
1237:main.c        **** *******************************************************************************/
1238:main.c        **** CY_ISR(SPI_SS_IsrHandler) {
  96              		.loc 1 1238 0
  97              		.cfi_startproc
  98              		@ args = 0, pretend = 0, frame = 0
  99              		@ frame_needed = 0, uses_anonymous_args = 0
 100 0000 10B5     		push	{r4, lr}
 101              		.cfi_def_cfa_offset 8
 102              		.cfi_offset 4, -8
 103              		.cfi_offset 14, -4
1239:main.c        ****     
1240:main.c        ****     uint32 i;
1241:main.c        ****     
1242:main.c        ****     /* Clear SPI slave select pin Interrupt */
1243:main.c        ****     spi_ss_ClearInterrupt();
 104              		.loc 1 1243 0
 105 0002 FFF7FEFF 		bl	spi_ss_ClearInterrupt
 106              	.LVL7:
1244:main.c        ****     
1245:main.c        ****     /* Make sure the slave select is actually de-asserted before proceeding */
1246:main.c        ****     if (!spi_ss_Read()) 
 107              		.loc 1 1246 0
 108 0006 FFF7FEFF 		bl	spi_ss_Read
 109              	.LVL8:
 110 000a 0028     		cmp	r0, #0
 111 000c 1CD0     		beq	.L3
1247:main.c        ****         return;
1248:main.c        ****    
1249:main.c        ****     /* Update the last message tick timer */
1250:main.c        ****     LastMessageTimeTick = xTaskGetTickCount();
 112              		.loc 1 1250 0
 113 000e FFF7FEFF 		bl	xTaskGetTickCount
 114              	.LVL9:
 115 0012 0E4B     		ldr	r3, .L8
 116 0014 1860     		str	r0, [r3]
1251:main.c        **** 
1252:main.c        ****     /* It's possible the slave select has fired and returned without transmitting any data (glitche
ARM GAS  C:\Users\PRICHA~1\AppData\Local\Temp\ccecR4Xo.s 			page 25


1253:main.c        ****        check the messaging state before resetting the buffers */
1254:main.c        ****     switch (txMessageState) {
 117              		.loc 1 1254 0
 118 0016 0E4B     		ldr	r3, .L8+4
 119 0018 1B78     		ldrb	r3, [r3]
 120 001a 012B     		cmp	r3, #1
 121 001c 14D1     		bne	.L3
1255:main.c        ****      
1256:main.c        ****         /* FIFO is not yet loaded and slave select deasserted, this is a glitch */ 
1257:main.c        ****         case txmsClear:
1258:main.c        ****             break;
1259:main.c        ****      
1260:main.c        ****         /* A message was readied for transmission */
1261:main.c        ****         case txmsLoaded:
1262:main.c        ****          
1263:main.c        ****             /* FIFO is clear and slave select deasserted, it's time to reset */ 
1264:main.c        ****             
1265:main.c        ****             /* Clear the transmit message buffer, the comm thread will fill it in again to make sur
1266:main.c        ****             bzero(txMessage.buf, sizeof(txMessage.buf)); 
 122              		.loc 1 1266 0
 123 001e 1E22     		movs	r2, #30
 124 0020 0021     		movs	r1, #0
 125 0022 0C48     		ldr	r0, .L8+8
 126 0024 FFF7FEFF 		bl	memset
 127              	.LVL10:
1267:main.c        **** 
1268:main.c        ****             /* Message from the master is completely clocked in by now */     
1269:main.c        ****             for (i = 0; i < sizeof(rxMessage.buf); i++) {
 128              		.loc 1 1269 0
 129 0028 0024     		movs	r4, #0
 130 002a 04E0     		b	.L6
 131              	.LVL11:
 132              	.L7:
1270:main.c        ****                 rxMessage.buf[i] = (uint8) SPI_1_SpiUartReadRxData();            
 133              		.loc 1 1270 0 discriminator 3
 134 002c FFF7FEFF 		bl	SPI_1_SpiUartReadRxData
 135              	.LVL12:
 136 0030 094B     		ldr	r3, .L8+12
 137 0032 1855     		strb	r0, [r3, r4]
1269:main.c        ****                 rxMessage.buf[i] = (uint8) SPI_1_SpiUartReadRxData();            
 138              		.loc 1 1269 0 discriminator 3
 139 0034 0134     		adds	r4, r4, #1
 140              	.LVL13:
 141              	.L6:
1269:main.c        ****                 rxMessage.buf[i] = (uint8) SPI_1_SpiUartReadRxData();            
 142              		.loc 1 1269 0 is_stmt 0 discriminator 1
 143 0036 1D2C     		cmp	r4, #29
 144 0038 F8D9     		bls	.L7
1271:main.c        ****             }
1272:main.c        ****             
1273:main.c        ****             /* Clear out all the bytes in the receive side so they can be filled in again */
1274:main.c        ****             SPI_1_SpiUartClearRxBuffer();  
 145              		.loc 1 1274 0 is_stmt 1
 146 003a FFF7FEFF 		bl	SPI_1_SpiUartClearRxBuffer
 147              	.LVL14:
1275:main.c        ****             
1276:main.c        ****             /* Clear out any remaining bytes in the transmit buffer, in case the message transfer w
ARM GAS  C:\Users\PRICHA~1\AppData\Local\Temp\ccecR4Xo.s 			page 26


1277:main.c        ****             SPI_1_SpiUartClearTxBuffer();
 148              		.loc 1 1277 0
 149 003e FFF7FEFF 		bl	SPI_1_SpiUartClearTxBuffer
 150              	.LVL15:
1278:main.c        ****             
1279:main.c        ****             /* Set the state to indicate to the messaging thread that it's time to load the TX buff
1280:main.c        ****             txMessageState = txmsClear;        
 151              		.loc 1 1280 0
 152 0042 0022     		movs	r2, #0
 153 0044 024B     		ldr	r3, .L8+4
 154 0046 1A70     		strb	r2, [r3]
 155              	.LVL16:
 156              	.L3:
1281:main.c        ****             break;
1282:main.c        ****             
1283:main.c        ****     } 
1284:main.c        **** }
 157              		.loc 1 1284 0
 158              		@ sp needed
 159 0048 10BD     		pop	{r4, pc}
 160              	.L9:
 161 004a C046     		.align	2
 162              	.L8:
 163 004c 00000000 		.word	LastMessageTimeTick
 164 0050 00000000 		.word	txMessageState
 165 0054 00000000 		.word	txMessage
 166 0058 00000000 		.word	rxMessage
 167              		.cfi_endproc
 168              	.LFE48:
 169              		.size	SPI_SS_IsrHandler, .-SPI_SS_IsrHandler
 170              		.section	.text.setupFreeRTOS,"ax",%progbits
 171              		.align	2
 172              		.global	setupFreeRTOS
 173              		.code	16
 174              		.thumb_func
 175              		.type	setupFreeRTOS, %function
 176              	setupFreeRTOS:
 177              	.LFB32:
 317:main.c        **** #define CORTEX_INTERRUPT_BASE (16)
 178              		.loc 1 317 0
 179              		.cfi_startproc
 180              		@ args = 0, pretend = 0, frame = 0
 181              		@ frame_needed = 0, uses_anonymous_args = 0
 182 0000 10B5     		push	{r4, lr}
 183              		.cfi_def_cfa_offset 8
 184              		.cfi_offset 4, -8
 185              		.cfi_offset 14, -4
 321:main.c        ****     
 186              		.loc 1 321 0
 187 0002 0649     		ldr	r1, .L11
 188 0004 0B20     		movs	r0, #11
 189 0006 FFF7FEFF 		bl	CyIntSetSysVector
 190              	.LVL17:
 324:main.c        ****     
 191              		.loc 1 324 0
 192 000a 0549     		ldr	r1, .L11+4
 193 000c 0E20     		movs	r0, #14
ARM GAS  C:\Users\PRICHA~1\AppData\Local\Temp\ccecR4Xo.s 			page 27


 194 000e FFF7FEFF 		bl	CyIntSetSysVector
 195              	.LVL18:
 327:main.c        **** }
 196              		.loc 1 327 0
 197 0012 0449     		ldr	r1, .L11+8
 198 0014 0F20     		movs	r0, #15
 199 0016 FFF7FEFF 		bl	CyIntSetSysVector
 200              	.LVL19:
 328:main.c        **** 
 201              		.loc 1 328 0
 202              		@ sp needed
 203 001a 10BD     		pop	{r4, pc}
 204              	.L12:
 205              		.align	2
 206              	.L11:
 207 001c 00000000 		.word	vPortSVCHandler
 208 0020 00000000 		.word	xPortPendSVHandler
 209 0024 00000000 		.word	xPortSysTickHandler
 210              		.cfi_endproc
 211              	.LFE32:
 212              		.size	setupFreeRTOS, .-setupFreeRTOS
 213              		.section	.text.AssertFault,"ax",%progbits
 214              		.align	2
 215              		.global	AssertFault
 216              		.code	16
 217              		.thumb_func
 218              		.type	AssertFault, %function
 219              	AssertFault:
 220              	.LFB33:
 341:main.c        ****  
 221              		.loc 1 341 0
 222              		.cfi_startproc
 223              		@ args = 0, pretend = 0, frame = 0
 224              		@ frame_needed = 0, uses_anonymous_args = 0
 225              		@ link register save eliminated.
 226              	.LVL20:
 343:main.c        ****      
 227              		.loc 1 343 0
 228 0000 0028     		cmp	r0, #0
 229 0002 03D1     		bne	.L17
 347:main.c        ****             break;        
 230              		.loc 1 347 0
 231 0004 0022     		movs	r2, #0
 232 0006 044B     		ldr	r3, .L18
 233 0008 1A70     		strb	r2, [r3]
 348:main.c        ****         
 234              		.loc 1 348 0
 235 000a 03E0     		b	.L13
 236              	.L17:
 352:main.c        ****             break;        
 237              		.loc 1 352 0
 238 000c 024B     		ldr	r3, .L18
 239 000e 1A78     		ldrb	r2, [r3]
 240 0010 1043     		orrs	r0, r2
 241              	.LVL21:
 242 0012 1870     		strb	r0, [r3]
 243              	.L13:
ARM GAS  C:\Users\PRICHA~1\AppData\Local\Temp\ccecR4Xo.s 			page 28


 355:main.c        **** 
 244              		.loc 1 355 0
 245              		@ sp needed
 246 0014 7047     		bx	lr
 247              	.L19:
 248 0016 C046     		.align	2
 249              	.L18:
 250 0018 00000000 		.word	FaultState
 251              		.cfi_endproc
 252              	.LFE33:
 253              		.size	AssertFault, .-AssertFault
 254              		.section	.text.Current_Read_Task,"ax",%progbits
 255              		.align	2
 256              		.global	Current_Read_Task
 257              		.code	16
 258              		.thumb_func
 259              		.type	Current_Read_Task, %function
 260              	Current_Read_Task:
 261              	.LFB35:
 394:main.c        ****     
 262              		.loc 1 394 0
 263              		.cfi_startproc
 264              		@ args = 0, pretend = 0, frame = 8
 265              		@ frame_needed = 0, uses_anonymous_args = 0
 266              	.LVL22:
 267 0000 10B5     		push	{r4, lr}
 268              		.cfi_def_cfa_offset 8
 269              		.cfi_offset 4, -8
 270              		.cfi_offset 14, -4
 271 0002 82B0     		sub	sp, sp, #8
 272              		.cfi_def_cfa_offset 16
 273              	.LVL23:
 406:main.c        ****     
 274              		.loc 1 406 0
 275 0004 0020     		movs	r0, #0
 276              	.LVL24:
 277 0006 FFF7FEFF 		bl	uxTaskGetStackHighWaterMark
 278              	.LVL25:
 279 000a 364B     		ldr	r3, .L29
 280 000c 1860     		str	r0, [r3]
 403:main.c        ****     
 281              		.loc 1 403 0
 282 000e 0024     		movs	r4, #0
 283              	.LVL26:
 284              	.L27:
 411:main.c        ****         PROBE_Write(foo);
 285              		.loc 1 411 0
 286 0010 2000     		movs	r0, r4
 287 0012 FFF7FEFF 		bl	LED_Write
 288              	.LVL27:
 412:main.c        **** 
 289              		.loc 1 412 0
 290 0016 2000     		movs	r0, r4
 291 0018 FFF7FEFF 		bl	PROBE_Write
 292              	.LVL28:
 414:main.c        ****         
 293              		.loc 1 414 0
ARM GAS  C:\Users\PRICHA~1\AppData\Local\Temp\ccecR4Xo.s 			page 29


 294 001c 002C     		cmp	r4, #0
 295 001e 01D0     		beq	.L28
 296 0020 0024     		movs	r4, #0
 297              	.LVL29:
 298 0022 00E0     		b	.L21
 299              	.LVL30:
 300              	.L28:
 301 0024 0124     		movs	r4, #1
 302              	.LVL31:
 303              	.L21:
 420:main.c        ****         if (err == I2C_I2C_MSTR_NO_ERROR) {
 304              		.loc 1 420 0
 305 0026 0A22     		movs	r2, #10
 306 0028 0021     		movs	r1, #0
 307 002a 4020     		movs	r0, #64
 308 002c FFF7FEFF 		bl	I2C_I2CMasterSendStart
 309              	.LVL32:
 310 0030 0190     		str	r0, [sp, #4]
 421:main.c        ****             
 311              		.loc 1 421 0
 312 0032 019B     		ldr	r3, [sp, #4]
 313 0034 002B     		cmp	r3, #0
 314 0036 0FD1     		bne	.L22
 423:main.c        ****             
 315              		.loc 1 423 0
 316 0038 0A21     		movs	r1, #10
 317 003a 0520     		movs	r0, #5
 318 003c FFF7FEFF 		bl	I2C_I2CMasterWriteByte
 319              	.LVL33:
 426:main.c        ****             
 320              		.loc 1 426 0
 321 0040 0A21     		movs	r1, #10
 322 0042 2020     		movs	r0, #32
 323 0044 FFF7FEFF 		bl	I2C_I2CMasterWriteByte
 324              	.LVL34:
 429:main.c        ****             I2C_I2CMasterSendStop(10);
 325              		.loc 1 429 0
 326 0048 0A21     		movs	r1, #10
 327 004a 0020     		movs	r0, #0
 328 004c FFF7FEFF 		bl	I2C_I2CMasterWriteByte
 329              	.LVL35:
 430:main.c        ****         } else {
 330              		.loc 1 430 0
 331 0050 0A20     		movs	r0, #10
 332 0052 FFF7FEFF 		bl	I2C_I2CMasterSendStop
 333              	.LVL36:
 334 0056 05E0     		b	.L23
 335              	.LVL37:
 336              	.L22:
 432:main.c        ****             AssertFault(fsCurrentRead);
 337              		.loc 1 432 0
 338 0058 0022     		movs	r2, #0
 339 005a 234B     		ldr	r3, .L29+4
 340 005c 1A80     		strh	r2, [r3]
 433:main.c        ****         }
 341              		.loc 1 433 0
 342 005e 0820     		movs	r0, #8
ARM GAS  C:\Users\PRICHA~1\AppData\Local\Temp\ccecR4Xo.s 			page 30


 343 0060 FFF7FEFF 		bl	AssertFault
 344              	.LVL38:
 345              	.L23:
 436:main.c        ****         if (err == I2C_I2C_MSTR_NO_ERROR) {
 346              		.loc 1 436 0
 347 0064 0A22     		movs	r2, #10
 348 0066 0021     		movs	r1, #0
 349 0068 4020     		movs	r0, #64
 350 006a FFF7FEFF 		bl	I2C_I2CMasterSendStart
 351              	.LVL39:
 352 006e 0190     		str	r0, [sp, #4]
 437:main.c        ****             
 353              		.loc 1 437 0
 354 0070 019B     		ldr	r3, [sp, #4]
 355 0072 002B     		cmp	r3, #0
 356 0074 20D1     		bne	.L24
 439:main.c        ****             I2C_I2CMasterSendStop(10);
 357              		.loc 1 439 0
 358 0076 0A21     		movs	r1, #10
 359 0078 0420     		movs	r0, #4
 360 007a FFF7FEFF 		bl	I2C_I2CMasterWriteByte
 361              	.LVL40:
 440:main.c        ****             
 362              		.loc 1 440 0
 363 007e 0A20     		movs	r0, #10
 364 0080 FFF7FEFF 		bl	I2C_I2CMasterSendStop
 365              	.LVL41:
 443:main.c        ****             
 366              		.loc 1 443 0
 367 0084 0123     		movs	r3, #1
 368 0086 0522     		movs	r2, #5
 369 0088 1849     		ldr	r1, .L29+8
 370 008a 4020     		movs	r0, #64
 371 008c FFF7FEFF 		bl	I2C_I2CMasterReadBuf
 372              	.LVL42:
 373 0090 0190     		str	r0, [sp, #4]
 446:main.c        ****                 CurrentTemp = (uint16)(CurrentI2Cinbuf[0] << 8) + CurrentI2Cinbuf[1];
 374              		.loc 1 446 0
 375 0092 019B     		ldr	r3, [sp, #4]
 376 0094 002B     		cmp	r3, #0
 377 0096 08D1     		bne	.L25
 447:main.c        ****             } else {
 378              		.loc 1 447 0
 379 0098 144A     		ldr	r2, .L29+8
 380 009a 1378     		ldrb	r3, [r2]
 381 009c 1B02     		lsls	r3, r3, #8
 382 009e 5278     		ldrb	r2, [r2, #1]
 383 00a0 9B18     		adds	r3, r3, r2
 384 00a2 9BB2     		uxth	r3, r3
 385 00a4 6A46     		mov	r2, sp
 386 00a6 5380     		strh	r3, [r2, #2]
 387 00a8 0CE0     		b	.L26
 388              	.L25:
 449:main.c        ****                 AssertFault(fsCurrentRead);
 389              		.loc 1 449 0
 390 00aa 0022     		movs	r2, #0
 391 00ac 6B46     		mov	r3, sp
ARM GAS  C:\Users\PRICHA~1\AppData\Local\Temp\ccecR4Xo.s 			page 31


 392 00ae 5A80     		strh	r2, [r3, #2]
 450:main.c        ****             }
 393              		.loc 1 450 0
 394 00b0 0820     		movs	r0, #8
 395 00b2 FFF7FEFF 		bl	AssertFault
 396              	.LVL43:
 397 00b6 05E0     		b	.L26
 398              	.L24:
 453:main.c        ****             AssertFault(fsCurrentRead);
 399              		.loc 1 453 0
 400 00b8 0022     		movs	r2, #0
 401 00ba 6B46     		mov	r3, sp
 402 00bc 5A80     		strh	r2, [r3, #2]
 454:main.c        ****         }
 403              		.loc 1 454 0
 404 00be 0820     		movs	r0, #8
 405 00c0 FFF7FEFF 		bl	AssertFault
 406              	.LVL44:
 407              	.L26:
 460:main.c        **** 
 408              		.loc 1 460 0
 409 00c4 6B46     		mov	r3, sp
 410 00c6 0233     		adds	r3, r3, #2
 411 00c8 1B88     		ldrh	r3, [r3]
 412 00ca 9BB2     		uxth	r3, r3
 413 00cc 064A     		ldr	r2, .L29+4
 414 00ce 1380     		strh	r3, [r2]
 463:main.c        ****         
 415              		.loc 1 463 0
 416 00d0 FA20     		movs	r0, #250
 417 00d2 4000     		lsls	r0, r0, #1
 418 00d4 FFF7FEFF 		bl	vTaskDelay
 419              	.LVL45:
 466:main.c        ****     }
 420              		.loc 1 466 0
 421 00d8 0020     		movs	r0, #0
 422 00da FFF7FEFF 		bl	uxTaskGetStackHighWaterMark
 423              	.LVL46:
 424 00de 014B     		ldr	r3, .L29
 425 00e0 1860     		str	r0, [r3]
 467:main.c        ****    
 426              		.loc 1 467 0
 427 00e2 95E7     		b	.L27
 428              	.L30:
 429              		.align	2
 430              	.L29:
 431 00e4 00000000 		.word	uxHighWaterMark_Current
 432 00e8 00000000 		.word	Current
 433 00ec 00000000 		.word	CurrentI2Cinbuf
 434              		.cfi_endproc
 435              	.LFE35:
 436              		.size	Current_Read_Task, .-Current_Read_Task
 437              		.section	.text.ClearFault,"ax",%progbits
 438              		.align	2
 439              		.global	ClearFault
 440              		.code	16
 441              		.thumb_func
ARM GAS  C:\Users\PRICHA~1\AppData\Local\Temp\ccecR4Xo.s 			page 32


 442              		.type	ClearFault, %function
 443              	ClearFault:
 444              	.LFB34:
 368:main.c        ****  
 445              		.loc 1 368 0
 446              		.cfi_startproc
 447              		@ args = 0, pretend = 0, frame = 0
 448              		@ frame_needed = 0, uses_anonymous_args = 0
 449              		@ link register save eliminated.
 450              	.LVL47:
 370:main.c        ****      
 451              		.loc 1 370 0
 452 0000 0028     		cmp	r0, #0
 453 0002 03D1     		bne	.L35
 374:main.c        ****             break;        
 454              		.loc 1 374 0
 455 0004 0022     		movs	r2, #0
 456 0006 044B     		ldr	r3, .L36
 457 0008 1A70     		strb	r2, [r3]
 375:main.c        ****         
 458              		.loc 1 375 0
 459 000a 03E0     		b	.L31
 460              	.L35:
 379:main.c        ****             break;        
 461              		.loc 1 379 0
 462 000c 024A     		ldr	r2, .L36
 463 000e 1378     		ldrb	r3, [r2]
 464 0010 8343     		bics	r3, r0
 465 0012 1370     		strb	r3, [r2]
 466              	.L31:
 382:main.c        **** 
 467              		.loc 1 382 0
 468              		@ sp needed
 469 0014 7047     		bx	lr
 470              	.L37:
 471 0016 C046     		.align	2
 472              	.L36:
 473 0018 00000000 		.word	FaultState
 474              		.cfi_endproc
 475              	.LFE34:
 476              		.size	ClearFault, .-ClearFault
 477              		.section	.text.Comm_Task,"ax",%progbits
 478              		.align	2
 479              		.global	Comm_Task
 480              		.code	16
 481              		.thumb_func
 482              		.type	Comm_Task, %function
 483              	Comm_Task:
 484              	.LFB36:
 480:main.c        ****  
 485              		.loc 1 480 0
 486              		.cfi_startproc
 487              		@ args = 0, pretend = 0, frame = 0
 488              		@ frame_needed = 0, uses_anonymous_args = 0
 489              	.LVL48:
 490 0000 10B5     		push	{r4, lr}
 491              		.cfi_def_cfa_offset 8
ARM GAS  C:\Users\PRICHA~1\AppData\Local\Temp\ccecR4Xo.s 			page 33


 492              		.cfi_offset 4, -8
 493              		.cfi_offset 14, -4
 488:main.c        ****     
 494              		.loc 1 488 0
 495 0002 0020     		movs	r0, #0
 496              	.LVL49:
 497 0004 FFF7FEFF 		bl	uxTaskGetStackHighWaterMark
 498              	.LVL50:
 499 0008 7F4B     		ldr	r3, .L54
 500 000a 1860     		str	r0, [r3]
 501              	.L52:
 493:main.c        ****         
 502              		.loc 1 493 0
 503 000c 7F4B     		ldr	r3, .L54+4
 504 000e 1B68     		ldr	r3, [r3]
 505 0010 DB07     		lsls	r3, r3, #31
 506 0012 00D5     		bpl	.LCB408
 507 0014 EFE0     		b	.L39	@long jump
 508              	.LCB408:
 496:main.c        ****              
 509              		.loc 1 496 0
 510 0016 7E4B     		ldr	r3, .L54+8
 511 0018 1B78     		ldrb	r3, [r3]
 512 001a 002B     		cmp	r3, #0
 513 001c 00D0     		beq	.LCB413
 514 001e EAE0     		b	.L39	@long jump
 515              	.LCB413:
 506:main.c        ****                         
 516              		.loc 1 506 0
 517 0020 7C4B     		ldr	r3, .L54+12
 518 0022 1868     		ldr	r0, [r3]
 519 0024 0421     		movs	r1, #4
 520 0026 FFF7FEFF 		bl	xQueueSemaphoreTake
 521              	.LVL51:
 522 002a 0128     		cmp	r0, #1
 523 002c 00D0     		beq	.LCB420
 524 002e E2E0     		b	.L39	@long jump
 525              	.LCB420:
 509:main.c        ****                         opcode   = (rxMessage_opcodes_t) rxMessage.overlay.opcode;
 526              		.loc 1 509 0
 527 0030 794B     		ldr	r3, .L54+16
 528 0032 5878     		ldrb	r0, [r3, #1]
 529              	.LVL52:
 510:main.c        ****                         
 530              		.loc 1 510 0
 531 0034 9C78     		ldrb	r4, [r3, #2]
 532              	.LVL53:
 513:main.c        ****                             size = sizeof(txMessage.buf);                            
 533              		.loc 1 513 0
 534 0036 1E28     		cmp	r0, #30
 535 0038 00D9     		bls	.L41
 514:main.c        ****                     
 536              		.loc 1 514 0
 537 003a 1E20     		movs	r0, #30
 538              	.LVL54:
 539              	.L41:
 517:main.c        ****                             checksum += rxMessage.buf[i]; 
ARM GAS  C:\Users\PRICHA~1\AppData\Local\Temp\ccecR4Xo.s 			page 34


 540              		.loc 1 517 0
 541 003c 0022     		movs	r2, #0
 542 003e 0023     		movs	r3, #0
 543 0040 05E0     		b	.L42
 544              	.LVL55:
 545              	.L43:
 518:main.c        **** 
 546              		.loc 1 518 0 discriminator 3
 547 0042 7549     		ldr	r1, .L54+16
 548 0044 C95C     		ldrb	r1, [r1, r3]
 549 0046 5218     		adds	r2, r2, r1
 550              	.LVL56:
 551 0048 D2B2     		uxtb	r2, r2
 552              	.LVL57:
 517:main.c        ****                             checksum += rxMessage.buf[i]; 
 553              		.loc 1 517 0 discriminator 3
 554 004a 0133     		adds	r3, r3, #1
 555              	.LVL58:
 556 004c DBB2     		uxtb	r3, r3
 557              	.LVL59:
 558              	.L42:
 517:main.c        ****                             checksum += rxMessage.buf[i]; 
 559              		.loc 1 517 0 is_stmt 0 discriminator 1
 560 004e 9842     		cmp	r0, r3
 561 0050 F7D8     		bhi	.L43
 521:main.c        ****                             
 562              		.loc 1 521 0 is_stmt 1
 563 0052 002A     		cmp	r2, #0
 564 0054 09D0     		beq	.L44
 523:main.c        ****                             txMessage.msg.size = sizeof(txMessage_t);
 565              		.loc 1 523 0
 566 0056 714B     		ldr	r3, .L54+20
 567              	.LVL60:
 568 0058 9C70     		strb	r4, [r3, #2]
 524:main.c        ****                             ChecksumErrors++;
 569              		.loc 1 524 0
 570 005a 1222     		movs	r2, #18
 571              	.LVL61:
 572 005c 5A70     		strb	r2, [r3, #1]
 525:main.c        ****                             
 573              		.loc 1 525 0
 574 005e 704A     		ldr	r2, .L54+24
 575 0060 1388     		ldrh	r3, [r2]
 576 0062 0133     		adds	r3, r3, #1
 577 0064 9BB2     		uxth	r3, r3
 578 0066 1380     		strh	r3, [r2]
 579 0068 75E0     		b	.L45
 580              	.LVL62:
 581              	.L44:
 531:main.c        ****                             
 582              		.loc 1 531 0
 583 006a 631E     		subs	r3, r4, #1
 584              	.LVL63:
 585 006c DBB2     		uxtb	r3, r3
 586 006e 022B     		cmp	r3, #2
 587 0070 71D8     		bhi	.L45
 533:main.c        ****                                 
ARM GAS  C:\Users\PRICHA~1\AppData\Local\Temp\ccecR4Xo.s 			page 35


 588              		.loc 1 533 0
 589 0072 012C     		cmp	r4, #1
 590 0074 02D0     		beq	.L46
 591 0076 022C     		cmp	r4, #2
 592 0078 3ED0     		beq	.L47
 593 007a 6CE0     		b	.L45
 594              	.L46:
 540:main.c        ****                                         refKi = rxMessage.config.Ki;
 595              		.loc 1 540 0
 596 007c 664B     		ldr	r3, .L54+16
 597 007e 1A79     		ldrb	r2, [r3, #4]
 598              	.LVL64:
 599 0080 5979     		ldrb	r1, [r3, #5]
 600 0082 0902     		lsls	r1, r1, #8
 601 0084 1143     		orrs	r1, r2
 602 0086 9A79     		ldrb	r2, [r3, #6]
 603 0088 1204     		lsls	r2, r2, #16
 604 008a 0A43     		orrs	r2, r1
 605 008c 1100     		movs	r1, r2
 606 008e DA79     		ldrb	r2, [r3, #7]
 607 0090 1206     		lsls	r2, r2, #24
 608 0092 0A43     		orrs	r2, r1
 609 0094 6349     		ldr	r1, .L54+28
 610 0096 0A60     		str	r2, [r1]
 541:main.c        ****                                         refKd = rxMessage.config.Kd;                               
 611              		.loc 1 541 0
 612 0098 1A7A     		ldrb	r2, [r3, #8]
 613 009a 597A     		ldrb	r1, [r3, #9]
 614 009c 0902     		lsls	r1, r1, #8
 615 009e 1143     		orrs	r1, r2
 616 00a0 9A7A     		ldrb	r2, [r3, #10]
 617 00a2 1204     		lsls	r2, r2, #16
 618 00a4 0A43     		orrs	r2, r1
 619 00a6 1100     		movs	r1, r2
 620 00a8 DA7A     		ldrb	r2, [r3, #11]
 621 00aa 1206     		lsls	r2, r2, #24
 622 00ac 0A43     		orrs	r2, r1
 623 00ae 5E49     		ldr	r1, .L54+32
 624 00b0 0A60     		str	r2, [r1]
 542:main.c        ****                                            
 625              		.loc 1 542 0
 626 00b2 1A7B     		ldrb	r2, [r3, #12]
 627 00b4 597B     		ldrb	r1, [r3, #13]
 628 00b6 0902     		lsls	r1, r1, #8
 629 00b8 1143     		orrs	r1, r2
 630 00ba 9A7B     		ldrb	r2, [r3, #14]
 631 00bc 1204     		lsls	r2, r2, #16
 632 00be 0A43     		orrs	r2, r1
 633 00c0 1100     		movs	r1, r2
 634 00c2 DA7B     		ldrb	r2, [r3, #15]
 635 00c4 1206     		lsls	r2, r2, #24
 636 00c6 0A43     		orrs	r2, r1
 637 00c8 5849     		ldr	r1, .L54+36
 638 00ca 0A60     		str	r2, [r1]
 545:main.c        ****                                         PWM_Max_Fwd = PWM_JOG_NEUTRAL + rxMessage.config.limit;
 639              		.loc 1 545 0
 640 00cc 0021     		movs	r1, #0
ARM GAS  C:\Users\PRICHA~1\AppData\Local\Temp\ccecR4Xo.s 			page 36


 641 00ce 584A     		ldr	r2, .L54+40
 642 00d0 1170     		strb	r1, [r2]
 546:main.c        ****                                         PWM_Max_Rev = PWM_JOG_NEUTRAL - rxMessage.config.limit;    
 643              		.loc 1 546 0
 644 00d2 197C     		ldrb	r1, [r3, #16]
 645 00d4 0800     		movs	r0, r1
 646              	.LVL65:
 647 00d6 3230     		adds	r0, r0, #50
 648 00d8 564A     		ldr	r2, .L54+44
 649 00da 1070     		strb	r0, [r2]
 547:main.c        ****                                     
 650              		.loc 1 547 0
 651 00dc 3222     		movs	r2, #50
 652 00de 521A     		subs	r2, r2, r1
 653 00e0 5549     		ldr	r1, .L54+48
 654 00e2 0A70     		strb	r2, [r1]
 550:main.c        ****                                         ConfigSequence = rxMessage.config.sequence;
 655              		.loc 1 550 0
 656 00e4 0221     		movs	r1, #2
 657 00e6 554A     		ldr	r2, .L54+52
 658 00e8 1170     		strb	r1, [r2]
 551:main.c        ****                                     
 659              		.loc 1 551 0
 660 00ea DA78     		ldrb	r2, [r3, #3]
 661 00ec 544B     		ldr	r3, .L54+56
 662 00ee 1A70     		strb	r2, [r3]
 554:main.c        ****                                         break;
 663              		.loc 1 554 0
 664 00f0 0020     		movs	r0, #0
 665 00f2 FFF7FEFF 		bl	ClearFault
 666              	.LVL66:
 555:main.c        **** 
 667              		.loc 1 555 0
 668 00f6 2EE0     		b	.L45
 669              	.LVL67:
 670              	.L47:
 559:main.c        ****                                         
 671              		.loc 1 559 0
 672 00f8 4748     		ldr	r0, .L54+16
 673              	.LVL68:
 674 00fa C378     		ldrb	r3, [r0, #3]
 675 00fc 5A1E     		subs	r2, r3, #1
 676 00fe 9341     		sbcs	r3, r3, r2
 677              	.LVL69:
 678 0100 504A     		ldr	r2, .L54+60
 679 0102 1370     		strb	r3, [r2]
 562:main.c        ****                                             
 680              		.loc 1 562 0
 681 0104 0379     		ldrb	r3, [r0, #4]
 682 0106 4279     		ldrb	r2, [r0, #5]
 683 0108 1202     		lsls	r2, r2, #8
 684 010a 1A43     		orrs	r2, r3
 685 010c 8379     		ldrb	r3, [r0, #6]
 686 010e 1B04     		lsls	r3, r3, #16
 687 0110 1343     		orrs	r3, r2
 688 0112 1A00     		movs	r2, r3
 689 0114 C379     		ldrb	r3, [r0, #7]
ARM GAS  C:\Users\PRICHA~1\AppData\Local\Temp\ccecR4Xo.s 			page 37


 690 0116 1B06     		lsls	r3, r3, #24
 691 0118 1343     		orrs	r3, r2
 692 011a 4B4A     		ldr	r2, .L54+64
 693 011c 1268     		ldr	r2, [r2]
 694 011e 9342     		cmp	r3, r2
 695 0120 14D0     		beq	.L48
 565:main.c        ****                                             
 696              		.loc 1 565 0
 697 0122 FFF7FEFF 		bl	Counter_1_ReadCounter
 698              	.LVL70:
 699 0126 494B     		ldr	r3, .L54+68
 700 0128 1860     		str	r0, [r3]
 568:main.c        ****                                             
 701              		.loc 1 568 0
 702 012a 3B48     		ldr	r0, .L54+16
 703 012c 0379     		ldrb	r3, [r0, #4]
 704 012e 4279     		ldrb	r2, [r0, #5]
 705 0130 1202     		lsls	r2, r2, #8
 706 0132 1A43     		orrs	r2, r3
 707 0134 8379     		ldrb	r3, [r0, #6]
 708 0136 1B04     		lsls	r3, r3, #16
 709 0138 1343     		orrs	r3, r2
 710 013a 1A00     		movs	r2, r3
 711 013c C379     		ldrb	r3, [r0, #7]
 712 013e 1B06     		lsls	r3, r3, #24
 713 0140 1343     		orrs	r3, r2
 714 0142 414A     		ldr	r2, .L54+64
 715 0144 1360     		str	r3, [r2]
 571:main.c        ****                                         }                                        
 716              		.loc 1 571 0
 717 0146 0020     		movs	r0, #0
 718 0148 FFF7FEFF 		bl	Index_Counter_1_WriteCounter
 719              	.LVL71:
 720              	.L48:
 575:main.c        ****                                         break;
 721              		.loc 1 575 0
 722 014c 324B     		ldr	r3, .L54+16
 723 014e 0822     		movs	r2, #8
 724 0150 9A56     		ldrsb	r2, [r3, r2]
 725 0152 374B     		ldr	r3, .L54+40
 726 0154 1A70     		strb	r2, [r3]
 727              	.L45:
 586:main.c        ****                         txMessage.msg.opcode   = opStatus;
 728              		.loc 1 586 0
 729 0156 314C     		ldr	r4, .L54+20
 730              	.LVL72:
 731 0158 0023     		movs	r3, #0
 732 015a 2370     		strb	r3, [r4]
 587:main.c        ****                         txMessage.msg.size     = sizeof(txMessage_t);
 733              		.loc 1 587 0
 734 015c 0233     		adds	r3, r3, #2
 735 015e A370     		strb	r3, [r4, #2]
 588:main.c        ****                         txMessage.msg.state    = (uint8) ConfigState;
 736              		.loc 1 588 0
 737 0160 1033     		adds	r3, r3, #16
 738 0162 6370     		strb	r3, [r4, #1]
 589:main.c        ****                         txMessage.msg.fault    = (uint8) FaultState;
ARM GAS  C:\Users\PRICHA~1\AppData\Local\Temp\ccecR4Xo.s 			page 38


 739              		.loc 1 589 0
 740 0164 354B     		ldr	r3, .L54+52
 741 0166 1B78     		ldrb	r3, [r3]
 742 0168 E370     		strb	r3, [r4, #3]
 590:main.c        ****                         txMessage.msg.checksum_errors = ChecksumErrors;
 743              		.loc 1 590 0
 744 016a 394B     		ldr	r3, .L54+72
 745 016c 1B78     		ldrb	r3, [r3]
 746 016e 2371     		strb	r3, [r4, #4]
 591:main.c        ****                         txMessage.msg.sequence = ConfigSequence;
 747              		.loc 1 591 0
 748 0170 2B4B     		ldr	r3, .L54+24
 749 0172 1B88     		ldrh	r3, [r3]
 750 0174 9BB2     		uxth	r3, r3
 751 0176 A371     		strb	r3, [r4, #6]
 752 0178 1B0A     		lsrs	r3, r3, #8
 753 017a E371     		strb	r3, [r4, #7]
 592:main.c        ****                         txMessage.msg.position = Counter_1_ReadCounter();
 754              		.loc 1 592 0
 755 017c 304B     		ldr	r3, .L54+56
 756 017e 1B78     		ldrb	r3, [r3]
 757 0180 6371     		strb	r3, [r4, #5]
 593:main.c        ****                         txMessage.msg.pwm      = PWM;
 758              		.loc 1 593 0
 759 0182 FFF7FEFF 		bl	Counter_1_ReadCounter
 760              	.LVL73:
 761 0186 A072     		strb	r0, [r4, #10]
 762 0188 020A     		lsrs	r2, r0, #8
 763 018a E272     		strb	r2, [r4, #11]
 764 018c 020C     		lsrs	r2, r0, #16
 765 018e 2273     		strb	r2, [r4, #12]
 766 0190 000E     		lsrs	r0, r0, #24
 767 0192 6073     		strb	r0, [r4, #13]
 594:main.c        ****                         txMessage.msg.current  = Current;                            
 768              		.loc 1 594 0
 769 0194 2F4B     		ldr	r3, .L54+76
 770 0196 1B68     		ldr	r3, [r3]
 771 0198 A373     		strb	r3, [r4, #14]
 772 019a 190A     		lsrs	r1, r3, #8
 773 019c E173     		strb	r1, [r4, #15]
 774 019e 190C     		lsrs	r1, r3, #16
 775 01a0 2174     		strb	r1, [r4, #16]
 776 01a2 1B0E     		lsrs	r3, r3, #24
 777 01a4 6374     		strb	r3, [r4, #17]
 595:main.c        ****                         
 778              		.loc 1 595 0
 779 01a6 2C4B     		ldr	r3, .L54+80
 780 01a8 1B88     		ldrh	r3, [r3]
 781 01aa 9BB2     		uxth	r3, r3
 782 01ac 2372     		strb	r3, [r4, #8]
 783 01ae 1B0A     		lsrs	r3, r3, #8
 784 01b0 6372     		strb	r3, [r4, #9]
 785              	.LVL74:
 598:main.c        ****                             checksum += txMessage.buf[i]; 
 786              		.loc 1 598 0
 787 01b2 0022     		movs	r2, #0
 788 01b4 0023     		movs	r3, #0
ARM GAS  C:\Users\PRICHA~1\AppData\Local\Temp\ccecR4Xo.s 			page 39


 789 01b6 05E0     		b	.L49
 790              	.LVL75:
 791              	.L50:
 599:main.c        ****                             
 792              		.loc 1 599 0 discriminator 3
 793 01b8 1849     		ldr	r1, .L54+20
 794 01ba C95C     		ldrb	r1, [r1, r3]
 795 01bc 5218     		adds	r2, r2, r1
 796              	.LVL76:
 797 01be D2B2     		uxtb	r2, r2
 798              	.LVL77:
 598:main.c        ****                             checksum += txMessage.buf[i]; 
 799              		.loc 1 598 0 discriminator 3
 800 01c0 0133     		adds	r3, r3, #1
 801              	.LVL78:
 802 01c2 DBB2     		uxtb	r3, r3
 803              	.LVL79:
 804              	.L49:
 598:main.c        ****                             checksum += txMessage.buf[i]; 
 805              		.loc 1 598 0 is_stmt 0 discriminator 1
 806 01c4 112B     		cmp	r3, #17
 807 01c6 F7D9     		bls	.L50
 602:main.c        ****                             
 808              		.loc 1 602 0 is_stmt 1
 809 01c8 1448     		ldr	r0, .L54+20
 810 01ca 5242     		rsbs	r2, r2, #0
 811              	.LVL80:
 812 01cc 0270     		strb	r2, [r0]
 606:main.c        **** 
 813              		.loc 1 606 0
 814 01ce 1E21     		movs	r1, #30
 815 01d0 FFF7FEFF 		bl	SPI_1_SpiUartPutArray
 816              	.LVL81:
 609:main.c        ****                         
 817              		.loc 1 609 0
 818 01d4 0122     		movs	r2, #1
 819 01d6 0E4B     		ldr	r3, .L54+8
 820 01d8 1A70     		strb	r2, [r3]
 612:main.c        ****                             ClearFault(fsNONE);
 821              		.loc 1 612 0
 822 01da 0F4B     		ldr	r3, .L54+16
 823 01dc 5B7A     		ldrb	r3, [r3, #9]
 824 01de 002B     		cmp	r3, #0
 825 01e0 02D0     		beq	.L51
 613:main.c        ****                     
 826              		.loc 1 613 0
 827 01e2 0020     		movs	r0, #0
 828 01e4 FFF7FEFF 		bl	ClearFault
 829              	.LVL82:
 830              	.L51:
 616:main.c        ****                     }            
 831              		.loc 1 616 0
 832 01e8 0A4B     		ldr	r3, .L54+12
 833 01ea 1868     		ldr	r0, [r3]
 834 01ec 0023     		movs	r3, #0
 835 01ee 0022     		movs	r2, #0
 836 01f0 0021     		movs	r1, #0
ARM GAS  C:\Users\PRICHA~1\AppData\Local\Temp\ccecR4Xo.s 			page 40


 837 01f2 FFF7FEFF 		bl	xQueueGenericSend
 838              	.LVL83:
 839              	.L39:
 630:main.c        ****         
 840              		.loc 1 630 0
 841 01f6 0120     		movs	r0, #1
 842 01f8 FFF7FEFF 		bl	vTaskDelay
 843              	.LVL84:
 633:main.c        ****     }
 844              		.loc 1 633 0
 845 01fc 0020     		movs	r0, #0
 846 01fe FFF7FEFF 		bl	uxTaskGetStackHighWaterMark
 847              	.LVL85:
 848 0202 014B     		ldr	r3, .L54
 849 0204 1860     		str	r0, [r3]
 634:main.c        **** }
 850              		.loc 1 634 0
 851 0206 01E7     		b	.L52
 852              	.L55:
 853              		.align	2
 854              	.L54:
 855 0208 00000000 		.word	uxHighWaterMark_Comm
 856 020c 24000740 		.word	1074200612
 857 0210 00000000 		.word	txMessageState
 858 0214 00000000 		.word	Lock
 859 0218 00000000 		.word	rxMessage
 860 021c 00000000 		.word	txMessage
 861 0220 00000000 		.word	ChecksumErrors
 862 0224 00000000 		.word	refKp
 863 0228 00000000 		.word	refKi
 864 022c 00000000 		.word	refKd
 865 0230 00000000 		.word	Jog
 866 0234 00000000 		.word	PWM_Max_Fwd
 867 0238 00000000 		.word	PWM_Max_Rev
 868 023c 00000000 		.word	ConfigState
 869 0240 00000000 		.word	ConfigSequence
 870 0244 00000000 		.word	PID_Enabled
 871 0248 00000000 		.word	PID_Setpoint
 872 024c 00000000 		.word	PID_Last_Position
 873 0250 00000000 		.word	FaultState
 874 0254 00000000 		.word	PWM
 875 0258 00000000 		.word	Current
 876              		.cfi_endproc
 877              	.LFE36:
 878              		.size	Comm_Task, .-Comm_Task
 879              		.global	__aeabi_i2f
 880              		.global	__aeabi_fcmpgt
 881              		.global	__aeabi_fcmplt
 882              		.global	__aeabi_fmul
 883              		.global	__aeabi_f2uiz
 884              		.section	.text.PWM_Set,"ax",%progbits
 885              		.align	2
 886              		.global	PWM_Set
 887              		.code	16
 888              		.thumb_func
 889              		.type	PWM_Set, %function
 890              	PWM_Set:
ARM GAS  C:\Users\PRICHA~1\AppData\Local\Temp\ccecR4Xo.s 			page 41


 891              	.LFB37:
 649:main.c        ****     
 892              		.loc 1 649 0
 893              		.cfi_startproc
 894              		@ args = 0, pretend = 0, frame = 0
 895              		@ frame_needed = 0, uses_anonymous_args = 0
 896              	.LVL86:
 897 0000 70B5     		push	{r4, r5, r6, lr}
 898              		.cfi_def_cfa_offset 16
 899              		.cfi_offset 4, -16
 900              		.cfi_offset 5, -12
 901              		.cfi_offset 6, -8
 902              		.cfi_offset 14, -4
 903 0002 051C     		adds	r5, r0, #0
 904              	.LVL87:
 654:main.c        ****         drive = PWM_Max_Fwd;
 905              		.loc 1 654 0
 906 0004 194B     		ldr	r3, .L61
 907 0006 0020     		movs	r0, #0
 908              	.LVL88:
 909 0008 1856     		ldrsb	r0, [r3, r0]
 910 000a FFF7FEFF 		bl	__aeabi_i2f
 911              	.LVL89:
 912 000e 041C     		adds	r4, r0, #0
 913 0010 011C     		adds	r1, r0, #0
 914 0012 281C     		adds	r0, r5, #0
 915 0014 FFF7FEFF 		bl	__aeabi_fcmpgt
 916              	.LVL90:
 917 0018 0028     		cmp	r0, #0
 918 001a 0CD1     		bne	.L57
 656:main.c        ****         drive = PWM_Max_Rev;
 919              		.loc 1 656 0
 920 001c 144B     		ldr	r3, .L61+4
 921 001e 0020     		movs	r0, #0
 922 0020 1856     		ldrsb	r0, [r3, r0]
 923 0022 FFF7FEFF 		bl	__aeabi_i2f
 924              	.LVL91:
 925 0026 041C     		adds	r4, r0, #0
 926 0028 011C     		adds	r1, r0, #0
 927 002a 281C     		adds	r0, r5, #0
 928 002c FFF7FEFF 		bl	__aeabi_fcmplt
 929              	.LVL92:
 930 0030 0028     		cmp	r0, #0
 931 0032 00D1     		bne	.L57
 651:main.c        **** 
 932              		.loc 1 651 0
 933 0034 2C1C     		adds	r4, r5, #0
 934              	.L57:
 935              	.LVL93:
 661:main.c        ****         drive = 100;
 936              		.loc 1 661 0
 937 0036 0F49     		ldr	r1, .L61+8
 938 0038 201C     		adds	r0, r4, #0
 939 003a FFF7FEFF 		bl	__aeabi_fcmpgt
 940              	.LVL94:
 941 003e 0028     		cmp	r0, #0
 942 0040 06D1     		bne	.L59
ARM GAS  C:\Users\PRICHA~1\AppData\Local\Temp\ccecR4Xo.s 			page 42


 663:main.c        ****         drive = 0;
 943              		.loc 1 663 0
 944 0042 0021     		movs	r1, #0
 945 0044 201C     		adds	r0, r4, #0
 946 0046 FFF7FEFF 		bl	__aeabi_fcmplt
 947              	.LVL95:
 948 004a 0028     		cmp	r0, #0
 949 004c 03D0     		beq	.L58
 950 004e 01E0     		b	.L60
 951              	.L59:
 662:main.c        ****     } else if (drive < 0) {
 952              		.loc 1 662 0
 953 0050 084C     		ldr	r4, .L61+8
 954              	.LVL96:
 955 0052 00E0     		b	.L58
 956              	.LVL97:
 957              	.L60:
 664:main.c        ****     }
 958              		.loc 1 664 0
 959 0054 0024     		movs	r4, #0
 960              	.LVL98:
 961              	.L58:
 667:main.c        **** }
 962              		.loc 1 667 0
 963 0056 8321     		movs	r1, #131
 964 0058 C905     		lsls	r1, r1, #23
 965 005a 201C     		adds	r0, r4, #0
 966 005c FFF7FEFF 		bl	__aeabi_fmul
 967              	.LVL99:
 968 0060 FFF7FEFF 		bl	__aeabi_f2uiz
 969              	.LVL100:
 970 0064 FFF7FEFF 		bl	PWM_1_WriteCompare
 971              	.LVL101:
 668:main.c        **** 
 972              		.loc 1 668 0
 973              		@ sp needed
 974              	.LVL102:
 975              	.LVL103:
 976 0068 70BD     		pop	{r4, r5, r6, pc}
 977              	.L62:
 978 006a C046     		.align	2
 979              	.L61:
 980 006c 00000000 		.word	PWM_Max_Fwd
 981 0070 00000000 		.word	PWM_Max_Rev
 982 0074 0000C842 		.word	1120403456
 983              		.cfi_endproc
 984              	.LFE37:
 985              		.size	PWM_Set, .-PWM_Set
 986              		.global	__aeabi_ui2f
 987              		.section	.text.PID_Initialize,"ax",%progbits
 988              		.align	2
 989              		.global	PID_Initialize
 990              		.code	16
 991              		.thumb_func
 992              		.type	PID_Initialize, %function
 993              	PID_Initialize:
 994              	.LFB38:
ARM GAS  C:\Users\PRICHA~1\AppData\Local\Temp\ccecR4Xo.s 			page 43


 680:main.c        ****     
 995              		.loc 1 680 0
 996              		.cfi_startproc
 997              		@ args = 0, pretend = 0, frame = 0
 998              		@ frame_needed = 0, uses_anonymous_args = 0
 999 0000 70B5     		push	{r4, r5, r6, lr}
 1000              		.cfi_def_cfa_offset 16
 1001              		.cfi_offset 4, -16
 1002              		.cfi_offset 5, -12
 1003              		.cfi_offset 6, -8
 1004              		.cfi_offset 14, -4
 685:main.c        **** 
 1005              		.loc 1 685 0
 1006 0002 FFF7FEFF 		bl	Counter_1_ReadCounter
 1007              	.LVL104:
 687:main.c        ****     ITerm = Output;
 1008              		.loc 1 687 0
 1009 0006 FFF7FEFF 		bl	__aeabi_ui2f
 1010              	.LVL105:
 1011 000a 0E4B     		ldr	r3, .L71
 1012 000c 1860     		str	r0, [r3]
 688:main.c        ****     
 1013              		.loc 1 688 0
 1014 000e 0E4B     		ldr	r3, .L71+4
 1015 0010 1C68     		ldr	r4, [r3]
 1016 0012 0E4B     		ldr	r3, .L71+8
 1017 0014 1C60     		str	r4, [r3]
 690:main.c        ****         ITerm = outMax;
 1018              		.loc 1 690 0
 1019 0016 0E4B     		ldr	r3, .L71+12
 1020 0018 1D68     		ldr	r5, [r3]
 1021 001a 291C     		adds	r1, r5, #0
 1022 001c 201C     		adds	r0, r4, #0
 1023 001e FFF7FEFF 		bl	__aeabi_fcmpgt
 1024              	.LVL106:
 1025 0022 0028     		cmp	r0, #0
 1026 0024 02D0     		beq	.L70
 691:main.c        ****     } else if (ITerm < outMin) {
 1027              		.loc 1 691 0
 1028 0026 094B     		ldr	r3, .L71+8
 1029 0028 1D60     		str	r5, [r3]
 1030 002a 09E0     		b	.L63
 1031              	.L70:
 692:main.c        ****         ITerm = outMin;
 1032              		.loc 1 692 0
 1033 002c 094B     		ldr	r3, .L71+16
 1034 002e 1D68     		ldr	r5, [r3]
 1035 0030 291C     		adds	r1, r5, #0
 1036 0032 201C     		adds	r0, r4, #0
 1037 0034 FFF7FEFF 		bl	__aeabi_fcmplt
 1038              	.LVL107:
 1039 0038 0028     		cmp	r0, #0
 1040 003a 01D0     		beq	.L63
 693:main.c        ****     }
 1041              		.loc 1 693 0
 1042 003c 034B     		ldr	r3, .L71+8
 1043 003e 1D60     		str	r5, [r3]
ARM GAS  C:\Users\PRICHA~1\AppData\Local\Temp\ccecR4Xo.s 			page 44


 1044              	.L63:
 695:main.c        **** 
 1045              		.loc 1 695 0
 1046              		@ sp needed
 1047 0040 70BD     		pop	{r4, r5, r6, pc}
 1048              	.L72:
 1049 0042 C046     		.align	2
 1050              	.L71:
 1051 0044 00000000 		.word	lastPosition
 1052 0048 00000000 		.word	Output
 1053 004c 00000000 		.word	ITerm
 1054 0050 00000000 		.word	outMax
 1055 0054 00000000 		.word	outMin
 1056              		.cfi_endproc
 1057              	.LFE38:
 1058              		.size	PID_Initialize, .-PID_Initialize
 1059              		.global	__aeabi_fdiv
 1060              		.section	.text.PID_SetTunings,"ax",%progbits
 1061              		.align	2
 1062              		.global	PID_SetTunings
 1063              		.code	16
 1064              		.thumb_func
 1065              		.type	PID_SetTunings, %function
 1066              	PID_SetTunings:
 1067              	.LFB39:
 707:main.c        ****     
 1068              		.loc 1 707 0
 1069              		.cfi_startproc
 1070              		@ args = 0, pretend = 0, frame = 0
 1071              		@ frame_needed = 0, uses_anonymous_args = 0
 1072              	.LVL108:
 1073 0000 F8B5     		push	{r3, r4, r5, r6, r7, lr}
 1074              		.cfi_def_cfa_offset 24
 1075              		.cfi_offset 3, -24
 1076              		.cfi_offset 4, -20
 1077              		.cfi_offset 5, -16
 1078              		.cfi_offset 6, -12
 1079              		.cfi_offset 7, -8
 1080              		.cfi_offset 14, -4
 1081 0002 0E1C     		adds	r6, r1, #0
 1082 0004 151C     		adds	r5, r2, #0
 1083 0006 1C1C     		adds	r4, r3, #0
 709:main.c        ****     
 1084              		.loc 1 709 0
 1085 0008 0028     		cmp	r0, #0
 1086 000a 12D0     		beq	.L73
 1087              	.LBB2:
 711:main.c        ****     
 1088              		.loc 1 711 0
 1089 000c FFF7FEFF 		bl	__aeabi_ui2f
 1090              	.LVL109:
 1091 0010 0849     		ldr	r1, .L75
 1092 0012 FFF7FEFF 		bl	__aeabi_fdiv
 1093              	.LVL110:
 1094 0016 071C     		adds	r7, r0, #0
 1095              	.LVL111:
 713:main.c        ****         ki = newKi * sampleTimeInSec;
ARM GAS  C:\Users\PRICHA~1\AppData\Local\Temp\ccecR4Xo.s 			page 45


 1096              		.loc 1 713 0
 1097 0018 074B     		ldr	r3, .L75+4
 1098 001a 1E60     		str	r6, [r3]
 714:main.c        ****         kd = newKd / sampleTimeInSec;        
 1099              		.loc 1 714 0
 1100 001c 291C     		adds	r1, r5, #0
 1101 001e FFF7FEFF 		bl	__aeabi_fmul
 1102              	.LVL112:
 1103 0022 064B     		ldr	r3, .L75+8
 1104 0024 1860     		str	r0, [r3]
 715:main.c        ****     }
 1105              		.loc 1 715 0
 1106 0026 391C     		adds	r1, r7, #0
 1107 0028 201C     		adds	r0, r4, #0
 1108 002a FFF7FEFF 		bl	__aeabi_fdiv
 1109              	.LVL113:
 1110 002e 044B     		ldr	r3, .L75+12
 1111 0030 1860     		str	r0, [r3]
 1112              	.LVL114:
 1113              	.L73:
 1114              	.LBE2:
 717:main.c        **** 
 1115              		.loc 1 717 0
 1116              		@ sp needed
 1117              	.LVL115:
 1118              	.LVL116:
 1119              	.LVL117:
 1120 0032 F8BD     		pop	{r3, r4, r5, r6, r7, pc}
 1121              	.L76:
 1122              		.align	2
 1123              	.L75:
 1124 0034 00007A44 		.word	1148846080
 1125 0038 00000000 		.word	kp
 1126 003c 00000000 		.word	ki
 1127 0040 00000000 		.word	kd
 1128              		.cfi_endproc
 1129              	.LFE39:
 1130              		.size	PID_SetTunings, .-PID_SetTunings
 1131              		.global	__aeabi_fadd
 1132              		.global	__aeabi_fsub
 1133              		.global	__aeabi_f2iz
 1134              		.section	.text.PID_Compute,"ax",%progbits
 1135              		.align	2
 1136              		.global	PID_Compute
 1137              		.code	16
 1138              		.thumb_func
 1139              		.type	PID_Compute, %function
 1140              	PID_Compute:
 1141              	.LFB40:
 729:main.c        ****     
 1142              		.loc 1 729 0
 1143              		.cfi_startproc
 1144              		@ args = 0, pretend = 0, frame = 8
 1145              		@ frame_needed = 0, uses_anonymous_args = 0
 1146              	.LVL118:
 1147 0000 F0B5     		push	{r4, r5, r6, r7, lr}
 1148              		.cfi_def_cfa_offset 20
ARM GAS  C:\Users\PRICHA~1\AppData\Local\Temp\ccecR4Xo.s 			page 46


 1149              		.cfi_offset 4, -20
 1150              		.cfi_offset 5, -16
 1151              		.cfi_offset 6, -12
 1152              		.cfi_offset 7, -8
 1153              		.cfi_offset 14, -4
 1154 0002 4F46     		mov	r7, r9
 1155 0004 80B4     		push	{r7}
 1156              		.cfi_def_cfa_offset 24
 1157              		.cfi_offset 9, -24
 1158 0006 82B0     		sub	sp, sp, #8
 1159              		.cfi_def_cfa_offset 32
 1160 0008 0400     		movs	r4, r0
 1161 000a 0D00     		movs	r5, r1
 735:main.c        ****         return 0;
 1162              		.loc 1 735 0
 1163 000c 3D4B     		ldr	r3, .L95
 1164 000e 1B78     		ldrb	r3, [r3]
 1165 0010 002B     		cmp	r3, #0
 1166 0012 72D0     		beq	.L88
 739:main.c        **** 
 1167              		.loc 1 739 0
 1168 0014 FFF7FEFF 		bl	Counter_1_ReadCounter
 1169              	.LVL119:
 1170 0018 0600     		movs	r6, r0
 1171              	.LVL120:
 742:main.c        ****     
 1172              		.loc 1 742 0
 1173 001a 3B4B     		ldr	r3, .L95+4
 1174 001c 1868     		ldr	r0, [r3]
 1175              	.LVL121:
 1176 001e 201A     		subs	r0, r4, r0
 1177              	.LVL122:
 745:main.c        **** 
 1178              		.loc 1 745 0
 1179 0020 3A4B     		ldr	r3, .L95+8
 1180 0022 1B68     		ldr	r3, [r3]
 1181 0024 9842     		cmp	r0, r3
 1182 0026 65D3     		bcc	.L79
 749:main.c        ****         
 1183              		.loc 1 749 0
 1184 0028 394B     		ldr	r3, .L95+12
 1185 002a 1B68     		ldr	r3, [r3]
 1186 002c 394A     		ldr	r2, .L95+16
 1187 002e 1268     		ldr	r2, [r2]
 1188 0030 3949     		ldr	r1, .L95+20
 1189 0032 0968     		ldr	r1, [r1]
 1190 0034 FFF7FEFF 		bl	PID_SetTunings
 1191              	.LVL123:
 752:main.c        ****         ITerm += (ki * error);
 1192              		.loc 1 752 0
 1193 0038 A81B     		subs	r0, r5, r6
 1194              	.LVL124:
 753:main.c        ****         
 1195              		.loc 1 753 0
 1196 003a FFF7FEFF 		bl	__aeabi_i2f
 1197              	.LVL125:
 1198 003e 0190     		str	r0, [sp, #4]
ARM GAS  C:\Users\PRICHA~1\AppData\Local\Temp\ccecR4Xo.s 			page 47


 1199 0040 364B     		ldr	r3, .L95+24
 1200 0042 1968     		ldr	r1, [r3]
 1201 0044 FFF7FEFF 		bl	__aeabi_fmul
 1202              	.LVL126:
 1203 0048 354F     		ldr	r7, .L95+28
 1204 004a 3968     		ldr	r1, [r7]
 1205 004c FFF7FEFF 		bl	__aeabi_fadd
 1206              	.LVL127:
 1207 0050 051C     		adds	r5, r0, #0
 1208              	.LVL128:
 1209 0052 3860     		str	r0, [r7]
 756:main.c        ****             ITerm = outMax;
 1210              		.loc 1 756 0
 1211 0054 334B     		ldr	r3, .L95+32
 1212 0056 1F68     		ldr	r7, [r3]
 1213 0058 391C     		adds	r1, r7, #0
 1214 005a FFF7FEFF 		bl	__aeabi_fcmpgt
 1215              	.LVL129:
 1216 005e 0028     		cmp	r0, #0
 1217 0060 02D0     		beq	.L93
 757:main.c        ****         } else if (ITerm < outMin) {
 1218              		.loc 1 757 0
 1219 0062 2F4B     		ldr	r3, .L95+28
 1220 0064 1F60     		str	r7, [r3]
 1221 0066 0BE0     		b	.L82
 1222              	.L93:
 758:main.c        ****             ITerm = outMin;
 1223              		.loc 1 758 0
 1224 0068 2F4B     		ldr	r3, .L95+36
 1225 006a 1B68     		ldr	r3, [r3]
 1226 006c 9946     		mov	r9, r3
 1227 006e 191C     		adds	r1, r3, #0
 1228 0070 281C     		adds	r0, r5, #0
 1229 0072 FFF7FEFF 		bl	__aeabi_fcmplt
 1230              	.LVL130:
 1231 0076 0028     		cmp	r0, #0
 1232 0078 02D0     		beq	.L82
 759:main.c        ****         }
 1233              		.loc 1 759 0
 1234 007a 294B     		ldr	r3, .L95+28
 1235 007c 4A46     		mov	r2, r9
 1236 007e 1A60     		str	r2, [r3]
 1237              	.L82:
 763:main.c        **** 
 1238              		.loc 1 763 0
 1239 0080 3000     		movs	r0, r6
 1240 0082 FFF7FEFF 		bl	__aeabi_ui2f
 1241              	.LVL131:
 1242 0086 051C     		adds	r5, r0, #0
 1243 0088 284B     		ldr	r3, .L95+40
 1244 008a 1968     		ldr	r1, [r3]
 1245 008c FFF7FEFF 		bl	__aeabi_fsub
 1246              	.LVL132:
 1247 0090 FFF7FEFF 		bl	__aeabi_f2iz
 1248              	.LVL133:
 1249 0094 0600     		movs	r6, r0
 1250              	.LVL134:
ARM GAS  C:\Users\PRICHA~1\AppData\Local\Temp\ccecR4Xo.s 			page 48


 766:main.c        ****         
 1251              		.loc 1 766 0
 1252 0096 264B     		ldr	r3, .L95+44
 1253 0098 1968     		ldr	r1, [r3]
 1254 009a 0198     		ldr	r0, [sp, #4]
 1255              	.LVL135:
 1256 009c FFF7FEFF 		bl	__aeabi_fmul
 1257              	.LVL136:
 1258 00a0 1F4B     		ldr	r3, .L95+28
 1259 00a2 1968     		ldr	r1, [r3]
 1260 00a4 FFF7FEFF 		bl	__aeabi_fadd
 1261              	.LVL137:
 1262 00a8 0190     		str	r0, [sp, #4]
 1263 00aa 3000     		movs	r0, r6
 1264 00ac FFF7FEFF 		bl	__aeabi_i2f
 1265              	.LVL138:
 1266 00b0 204B     		ldr	r3, .L95+48
 1267 00b2 1968     		ldr	r1, [r3]
 1268 00b4 FFF7FEFF 		bl	__aeabi_fmul
 1269              	.LVL139:
 1270 00b8 011C     		adds	r1, r0, #0
 1271 00ba 0198     		ldr	r0, [sp, #4]
 1272 00bc FFF7FEFF 		bl	__aeabi_fsub
 1273              	.LVL140:
 1274 00c0 061C     		adds	r6, r0, #0
 1275              	.LVL141:
 1276 00c2 1D4B     		ldr	r3, .L95+52
 1277 00c4 1860     		str	r0, [r3]
 769:main.c        ****             Output = outMax;
 1278              		.loc 1 769 0
 1279 00c6 011C     		adds	r1, r0, #0
 1280 00c8 381C     		adds	r0, r7, #0
 1281 00ca FFF7FEFF 		bl	__aeabi_fcmplt
 1282              	.LVL142:
 1283 00ce 0028     		cmp	r0, #0
 1284 00d0 02D0     		beq	.L94
 770:main.c        ****         } else if (Output < outMin) {
 1285              		.loc 1 770 0
 1286 00d2 194B     		ldr	r3, .L95+52
 1287 00d4 1F60     		str	r7, [r3]
 1288 00d6 09E0     		b	.L86
 1289              	.L94:
 771:main.c        ****             Output = outMin;
 1290              		.loc 1 771 0
 1291 00d8 134B     		ldr	r3, .L95+36
 1292 00da 1F68     		ldr	r7, [r3]
 1293 00dc 391C     		adds	r1, r7, #0
 1294 00de 301C     		adds	r0, r6, #0
 1295 00e0 FFF7FEFF 		bl	__aeabi_fcmplt
 1296              	.LVL143:
 1297 00e4 0028     		cmp	r0, #0
 1298 00e6 01D0     		beq	.L86
 772:main.c        ****         }
 1299              		.loc 1 772 0
 1300 00e8 134B     		ldr	r3, .L95+52
 1301 00ea 1F60     		str	r7, [r3]
 1302              	.L86:
ARM GAS  C:\Users\PRICHA~1\AppData\Local\Temp\ccecR4Xo.s 			page 49


 776:main.c        ****         lastTime = now;        
 1303              		.loc 1 776 0
 1304 00ec 0F4B     		ldr	r3, .L95+40
 1305 00ee 1D60     		str	r5, [r3]
 777:main.c        ****     }
 1306              		.loc 1 777 0
 1307 00f0 054B     		ldr	r3, .L95+4
 1308 00f2 1C60     		str	r4, [r3]
 1309              	.L79:
 780:main.c        **** }
 1310              		.loc 1 780 0
 1311 00f4 104B     		ldr	r3, .L95+52
 1312 00f6 1868     		ldr	r0, [r3]
 1313 00f8 00E0     		b	.L78
 1314              	.LVL144:
 1315              	.L88:
 736:main.c        ****     
 1316              		.loc 1 736 0
 1317 00fa 0020     		movs	r0, #0
 1318              	.LVL145:
 1319              	.L78:
 781:main.c        ****  
 1320              		.loc 1 781 0
 1321 00fc 02B0     		add	sp, sp, #8
 1322              		@ sp needed
 1323              	.LVL146:
 1324 00fe 04BC     		pop	{r2}
 1325 0100 9146     		mov	r9, r2
 1326 0102 F0BD     		pop	{r4, r5, r6, r7, pc}
 1327              	.L96:
 1328              		.align	2
 1329              	.L95:
 1330 0104 00000000 		.word	.LANCHOR0
 1331 0108 00000000 		.word	lastTime
 1332 010c 00000000 		.word	.LANCHOR1
 1333 0110 00000000 		.word	refKd
 1334 0114 00000000 		.word	refKi
 1335 0118 00000000 		.word	refKp
 1336 011c 00000000 		.word	ki
 1337 0120 00000000 		.word	ITerm
 1338 0124 00000000 		.word	outMax
 1339 0128 00000000 		.word	outMin
 1340 012c 00000000 		.word	lastPosition
 1341 0130 00000000 		.word	kp
 1342 0134 00000000 		.word	kd
 1343 0138 00000000 		.word	Output
 1344              		.cfi_endproc
 1345              	.LFE40:
 1346              		.size	PID_Compute, .-PID_Compute
 1347              		.section	.text.PID_SetOutputLimits,"ax",%progbits
 1348              		.align	2
 1349              		.global	PID_SetOutputLimits
 1350              		.code	16
 1351              		.thumb_func
 1352              		.type	PID_SetOutputLimits, %function
 1353              	PID_SetOutputLimits:
 1354              	.LFB41:
ARM GAS  C:\Users\PRICHA~1\AppData\Local\Temp\ccecR4Xo.s 			page 50


 795:main.c        ****     
 1355              		.loc 1 795 0
 1356              		.cfi_startproc
 1357              		@ args = 0, pretend = 0, frame = 0
 1358              		@ frame_needed = 0, uses_anonymous_args = 0
 1359              	.LVL147:
 1360 0000 70B5     		push	{r4, r5, r6, lr}
 1361              		.cfi_def_cfa_offset 16
 1362              		.cfi_offset 4, -16
 1363              		.cfi_offset 5, -12
 1364              		.cfi_offset 6, -8
 1365              		.cfi_offset 14, -4
 1366 0002 051C     		adds	r5, r0, #0
 1367 0004 0C1C     		adds	r4, r1, #0
 797:main.c        ****         return;
 1368              		.loc 1 797 0
 1369 0006 FFF7FEFF 		bl	__aeabi_fcmpgt
 1370              	.LVL148:
 1371 000a 0028     		cmp	r0, #0
 1372 000c 29D1     		bne	.L97
 801:main.c        ****     outMax = Max;
 1373              		.loc 1 801 0
 1374 000e 154B     		ldr	r3, .L112
 1375 0010 1D60     		str	r5, [r3]
 802:main.c        **** 
 1376              		.loc 1 802 0
 1377 0012 154B     		ldr	r3, .L112+4
 1378 0014 1C60     		str	r4, [r3]
 805:main.c        ****         Output = outMax;
 1379              		.loc 1 805 0
 1380 0016 154B     		ldr	r3, .L112+8
 1381 0018 1E68     		ldr	r6, [r3]
 1382 001a 311C     		adds	r1, r6, #0
 1383 001c 201C     		adds	r0, r4, #0
 1384 001e FFF7FEFF 		bl	__aeabi_fcmplt
 1385              	.LVL149:
 1386 0022 0028     		cmp	r0, #0
 1387 0024 02D0     		beq	.L110
 806:main.c        ****     } else if (Output < outMin) {
 1388              		.loc 1 806 0
 1389 0026 114B     		ldr	r3, .L112+8
 1390 0028 1C60     		str	r4, [r3]
 1391 002a 07E0     		b	.L101
 1392              	.L110:
 807:main.c        ****         Output = outMin;
 1393              		.loc 1 807 0
 1394 002c 311C     		adds	r1, r6, #0
 1395 002e 281C     		adds	r0, r5, #0
 1396 0030 FFF7FEFF 		bl	__aeabi_fcmpgt
 1397              	.LVL150:
 1398 0034 0028     		cmp	r0, #0
 1399 0036 01D0     		beq	.L101
 808:main.c        ****     }
 1400              		.loc 1 808 0
 1401 0038 0C4B     		ldr	r3, .L112+8
 1402 003a 1D60     		str	r5, [r3]
 1403              	.L101:
ARM GAS  C:\Users\PRICHA~1\AppData\Local\Temp\ccecR4Xo.s 			page 51


 812:main.c        ****         ITerm = outMax;
 1404              		.loc 1 812 0
 1405 003c 0C4B     		ldr	r3, .L112+12
 1406 003e 1E68     		ldr	r6, [r3]
 1407 0040 311C     		adds	r1, r6, #0
 1408 0042 201C     		adds	r0, r4, #0
 1409 0044 FFF7FEFF 		bl	__aeabi_fcmplt
 1410              	.LVL151:
 1411 0048 0028     		cmp	r0, #0
 1412 004a 02D0     		beq	.L111
 813:main.c        ****     } else if (ITerm < outMin) {
 1413              		.loc 1 813 0
 1414 004c 084B     		ldr	r3, .L112+12
 1415 004e 1C60     		str	r4, [r3]
 1416 0050 07E0     		b	.L97
 1417              	.L111:
 814:main.c        ****         ITerm = outMin;
 1418              		.loc 1 814 0
 1419 0052 311C     		adds	r1, r6, #0
 1420 0054 281C     		adds	r0, r5, #0
 1421 0056 FFF7FEFF 		bl	__aeabi_fcmpgt
 1422              	.LVL152:
 1423 005a 0028     		cmp	r0, #0
 1424 005c 01D0     		beq	.L97
 815:main.c        ****     }
 1425              		.loc 1 815 0
 1426 005e 044B     		ldr	r3, .L112+12
 1427 0060 1D60     		str	r5, [r3]
 1428              	.L97:
 817:main.c        ****  
 1429              		.loc 1 817 0
 1430              		@ sp needed
 1431              	.LVL153:
 1432              	.LVL154:
 1433 0062 70BD     		pop	{r4, r5, r6, pc}
 1434              	.L113:
 1435              		.align	2
 1436              	.L112:
 1437 0064 00000000 		.word	outMin
 1438 0068 00000000 		.word	outMax
 1439 006c 00000000 		.word	Output
 1440 0070 00000000 		.word	ITerm
 1441              		.cfi_endproc
 1442              	.LFE41:
 1443              		.size	PID_SetOutputLimits, .-PID_SetOutputLimits
 1444              		.section	.text.PID_SetMode,"ax",%progbits
 1445              		.align	2
 1446              		.global	PID_SetMode
 1447              		.code	16
 1448              		.thumb_func
 1449              		.type	PID_SetMode, %function
 1450              	PID_SetMode:
 1451              	.LFB42:
 828:main.c        ****     
 1452              		.loc 1 828 0
 1453              		.cfi_startproc
 1454              		@ args = 0, pretend = 0, frame = 0
ARM GAS  C:\Users\PRICHA~1\AppData\Local\Temp\ccecR4Xo.s 			page 52


 1455              		@ frame_needed = 0, uses_anonymous_args = 0
 1456              	.LVL155:
 1457 0000 10B5     		push	{r4, lr}
 1458              		.cfi_def_cfa_offset 8
 1459              		.cfi_offset 4, -8
 1460              		.cfi_offset 14, -4
 830:main.c        ****     
 1461              		.loc 1 830 0
 1462 0002 441E     		subs	r4, r0, #1
 1463 0004 6342     		rsbs	r3, r4, #0
 1464 0006 5C41     		adcs	r4, r4, r3
 1465 0008 E4B2     		uxtb	r4, r4
 1466              	.LVL156:
 832:main.c        ****         /*we just went from manual to auto*/
 1467              		.loc 1 832 0
 1468 000a 0128     		cmp	r0, #1
 1469 000c 05D1     		bne	.L115
 832:main.c        ****         /*we just went from manual to auto*/
 1470              		.loc 1 832 0 is_stmt 0 discriminator 1
 1471 000e 044B     		ldr	r3, .L116
 1472 0010 1B78     		ldrb	r3, [r3]
 1473 0012 002B     		cmp	r3, #0
 1474 0014 01D1     		bne	.L115
 834:main.c        ****     }
 1475              		.loc 1 834 0 is_stmt 1
 1476 0016 FFF7FEFF 		bl	PID_Initialize
 1477              	.LVL157:
 1478              	.L115:
 837:main.c        **** } 
 1479              		.loc 1 837 0
 1480 001a 014B     		ldr	r3, .L116
 1481 001c 1C70     		strb	r4, [r3]
 838:main.c        ****     
 1482              		.loc 1 838 0
 1483              		@ sp needed
 1484              	.LVL158:
 1485 001e 10BD     		pop	{r4, pc}
 1486              	.L117:
 1487              		.align	2
 1488              	.L116:
 1489 0020 00000000 		.word	.LANCHOR0
 1490              		.cfi_endproc
 1491              	.LFE42:
 1492              		.size	PID_SetMode, .-PID_SetMode
 1493              		.section	.text.PID_SetDrive,"ax",%progbits
 1494              		.align	2
 1495              		.global	PID_SetDrive
 1496              		.code	16
 1497              		.thumb_func
 1498              		.type	PID_SetDrive, %function
 1499              	PID_SetDrive:
 1500              	.LFB43:
 849:main.c        ****     
 1501              		.loc 1 849 0
 1502              		.cfi_startproc
 1503              		@ args = 0, pretend = 0, frame = 0
 1504              		@ frame_needed = 0, uses_anonymous_args = 0
ARM GAS  C:\Users\PRICHA~1\AppData\Local\Temp\ccecR4Xo.s 			page 53


 1505              	.LVL159:
 1506 0000 10B5     		push	{r4, lr}
 1507              		.cfi_def_cfa_offset 8
 1508              		.cfi_offset 4, -8
 1509              		.cfi_offset 14, -4
 853:main.c        ****     
 1510              		.loc 1 853 0
 1511 0002 0549     		ldr	r1, .L119
 1512 0004 FFF7FEFF 		bl	__aeabi_fadd
 1513              	.LVL160:
 1514 0008 FC21     		movs	r1, #252
 1515 000a 8905     		lsls	r1, r1, #22
 1516 000c FFF7FEFF 		bl	__aeabi_fmul
 1517              	.LVL161:
 856:main.c        **** }
 1518              		.loc 1 856 0
 1519 0010 FFF7FEFF 		bl	PWM_Set
 1520              	.LVL162:
 857:main.c        **** 
 1521              		.loc 1 857 0
 1522              		@ sp needed
 1523 0014 10BD     		pop	{r4, pc}
 1524              	.L120:
 1525 0016 C046     		.align	2
 1526              	.L119:
 1527 0018 0000C842 		.word	1120403456
 1528              		.cfi_endproc
 1529              	.LFE43:
 1530              		.size	PID_SetDrive, .-PID_SetDrive
 1531              		.section	.text.PID_Task,"ax",%progbits
 1532              		.align	2
 1533              		.global	PID_Task
 1534              		.code	16
 1535              		.thumb_func
 1536              		.type	PID_Task, %function
 1537              	PID_Task:
 1538              	.LFB44:
 871:main.c        ****     
 1539              		.loc 1 871 0
 1540              		.cfi_startproc
 1541              		@ args = 0, pretend = 0, frame = 0
 1542              		@ frame_needed = 0, uses_anonymous_args = 0
 1543              	.LVL163:
 1544 0000 70B5     		push	{r4, r5, r6, lr}
 1545              		.cfi_def_cfa_offset 16
 1546              		.cfi_offset 4, -16
 1547              		.cfi_offset 5, -12
 1548              		.cfi_offset 6, -8
 1549              		.cfi_offset 14, -4
 1550              	.LVL164:
 881:main.c        ****     
 1551              		.loc 1 881 0
 1552 0002 0020     		movs	r0, #0
 1553              	.LVL165:
 1554 0004 FFF7FEFF 		bl	uxTaskGetStackHighWaterMark
 1555              	.LVL166:
 1556 0008 594B     		ldr	r3, .L132
ARM GAS  C:\Users\PRICHA~1\AppData\Local\Temp\ccecR4Xo.s 			page 54


 1557 000a 1860     		str	r0, [r3]
 887:main.c        ****     refKi = 0;
 1558              		.loc 1 887 0
 1559 000c 594C     		ldr	r4, .L132+4
 1560 000e 0023     		movs	r3, #0
 1561 0010 2360     		str	r3, [r4]
 888:main.c        ****     refKd = 0;
 1562              		.loc 1 888 0
 1563 0012 594D     		ldr	r5, .L132+8
 1564 0014 2B60     		str	r3, [r5]
 889:main.c        ****     
 1565              		.loc 1 889 0
 1566 0016 594E     		ldr	r6, .L132+12
 1567 0018 3360     		str	r3, [r6]
 892:main.c        ****     PID_SetTunings(sleeptime, refKp, refKi, refKd);
 1568              		.loc 1 892 0
 1569 001a FFF7FEFF 		bl	PID_Initialize
 1570              	.LVL167:
 893:main.c        ****     PID_SetOutputLimits(-100.0, 100.0);
 1571              		.loc 1 893 0
 1572 001e 3368     		ldr	r3, [r6]
 1573 0020 2A68     		ldr	r2, [r5]
 1574 0022 2168     		ldr	r1, [r4]
 1575 0024 0520     		movs	r0, #5
 1576 0026 FFF7FEFF 		bl	PID_SetTunings
 1577              	.LVL168:
 894:main.c        ****     PID_SetMode(PID_MANUAL);
 1578              		.loc 1 894 0
 1579 002a 5549     		ldr	r1, .L132+16
 1580 002c 5548     		ldr	r0, .L132+20
 1581 002e FFF7FEFF 		bl	PID_SetOutputLimits
 1582              	.LVL169:
 895:main.c        **** 
 1583              		.loc 1 895 0
 1584 0032 0020     		movs	r0, #0
 1585 0034 FFF7FEFF 		bl	PID_SetMode
 1586              	.LVL170:
 900:main.c        ****     PID_Was_Enabled = false;
 1587              		.loc 1 900 0
 1588 0038 0023     		movs	r3, #0
 1589 003a 534A     		ldr	r2, .L132+24
 1590 003c 1360     		str	r3, [r2]
 901:main.c        ****     PID_Enabled = false;
 1591              		.loc 1 901 0
 1592 003e 534A     		ldr	r2, .L132+28
 1593 0040 1370     		strb	r3, [r2]
 902:main.c        ****     
 1594              		.loc 1 902 0
 1595 0042 534A     		ldr	r2, .L132+32
 1596 0044 1370     		strb	r3, [r2]
 1597              	.LVL171:
 1598              	.L131:
 910:main.c        ****         /* ------------------------------------------------------------------------------------ */
 1599              		.loc 1 910 0
 1600 0046 8020     		movs	r0, #128
 1601 0048 0001     		lsls	r0, r0, #4
 1602 004a FFF7FEFF 		bl	CySysWdtResetCounters
ARM GAS  C:\Users\PRICHA~1\AppData\Local\Temp\ccecR4Xo.s 			page 55


 1603              	.LVL172:
 918:main.c        ****         if ( (now > (LastMessageTimeTick + MAX_LAST_MESSAGE_TIME_TICKS)) ||
 1604              		.loc 1 918 0
 1605 004e FFF7FEFF 		bl	xTaskGetTickCount
 1606              	.LVL173:
 1607 0052 0400     		movs	r4, r0
 1608              	.LVL174:
 919:main.c        ****              (now < LastMessageTimeTick) ) {
 1609              		.loc 1 919 0
 1610 0054 4F4B     		ldr	r3, .L132+36
 1611 0056 1B68     		ldr	r3, [r3]
 1612 0058 FA22     		movs	r2, #250
 1613 005a 9200     		lsls	r2, r2, #2
 1614 005c 9A18     		adds	r2, r3, r2
 1615 005e 9042     		cmp	r0, r2
 1616 0060 01D8     		bhi	.L122
 919:main.c        ****              (now < LastMessageTimeTick) ) {
 1617              		.loc 1 919 0 is_stmt 0 discriminator 1
 1618 0062 9842     		cmp	r0, r3
 1619 0064 08D2     		bcs	.L123
 1620              	.L122:
 923:main.c        ****             PID_Enabled = false;
 1621              		.loc 1 923 0 is_stmt 1
 1622 0066 4C48     		ldr	r0, .L132+40
 1623              	.LVL175:
 1624 0068 FFF7FEFF 		bl	PWM_Set
 1625              	.LVL176:
 924:main.c        ****             
 1626              		.loc 1 924 0
 1627 006c 0023     		movs	r3, #0
 1628 006e 484A     		ldr	r2, .L132+32
 1629 0070 1370     		strb	r3, [r2]
 928:main.c        **** 
 1630              		.loc 1 928 0
 1631 0072 4A4A     		ldr	r2, .L132+44
 1632 0074 1370     		strb	r3, [r2]
 1633 0076 72E0     		b	.L124
 1634              	.LVL177:
 1635              	.L123:
 931:main.c        ****             
 1636              		.loc 1 931 0
 1637 0078 494B     		ldr	r3, .L132+48
 1638 007a 1B78     		ldrb	r3, [r3]
 1639 007c 022B     		cmp	r3, #2
 1640 007e 6ED1     		bne	.L124
 935:main.c        ****             INDEX_OUT_SetDriveMode(INDEX_OUT_DM_STRONG); 
 1641              		.loc 1 935 0
 1642 0080 0620     		movs	r0, #6
 1643              	.LVL178:
 1644 0082 FFF7FEFF 		bl	HOME_OUT_SetDriveMode
 1645              	.LVL179:
 936:main.c        ****         
 1646              		.loc 1 936 0
 1647 0086 0620     		movs	r0, #6
 1648 0088 FFF7FEFF 		bl	INDEX_OUT_SetDriveMode
 1649              	.LVL180:
 939:main.c        ****                 
ARM GAS  C:\Users\PRICHA~1\AppData\Local\Temp\ccecR4Xo.s 			page 56


 1650              		.loc 1 939 0
 1651 008c 404B     		ldr	r3, .L132+32
 1652 008e 1B78     		ldrb	r3, [r3]
 1653 0090 002B     		cmp	r3, #0
 1654 0092 3BD1     		bne	.L125
 943:main.c        ****                     
 1655              		.loc 1 943 0
 1656 0094 414B     		ldr	r3, .L132+44
 1657 0096 1A78     		ldrb	r2, [r3]
 1658 0098 52B2     		sxtb	r2, r2
 1659 009a 424B     		ldr	r3, .L132+52
 1660 009c 1B78     		ldrb	r3, [r3]
 1661 009e 5BB2     		sxtb	r3, r3
 1662 00a0 9A42     		cmp	r2, r3
 1663 00a2 0FD0     		beq	.L126
 943:main.c        ****                     
 1664              		.loc 1 943 0 is_stmt 0 discriminator 1
 1665 00a4 3D4B     		ldr	r3, .L132+44
 1666 00a6 1B78     		ldrb	r3, [r3]
 1667 00a8 002B     		cmp	r3, #0
 1668 00aa 0BD0     		beq	.L126
 946:main.c        ****                     
 1669              		.loc 1 946 0 is_stmt 1
 1670 00ac 3B4B     		ldr	r3, .L132+44
 1671 00ae 1B78     		ldrb	r3, [r3]
 1672 00b0 5BB2     		sxtb	r3, r3
 1673 00b2 3C4A     		ldr	r2, .L132+52
 1674 00b4 1370     		strb	r3, [r2]
 949:main.c        ****                     
 1675              		.loc 1 949 0
 1676 00b6 FFF7FEFF 		bl	Counter_1_ReadCounter
 1677              	.LVL181:
 1678 00ba 3B4B     		ldr	r3, .L132+56
 1679 00bc 1860     		str	r0, [r3]
 952:main.c        ****                 }                
 1680              		.loc 1 952 0
 1681 00be 0020     		movs	r0, #0
 1682 00c0 FFF7FEFF 		bl	Index_Counter_1_WriteCounter
 1683              	.LVL182:
 1684              	.L126:
 956:main.c        **** 
 1685              		.loc 1 956 0
 1686 00c4 354D     		ldr	r5, .L132+44
 1687 00c6 2878     		ldrb	r0, [r5]
 1688 00c8 40B2     		sxtb	r0, r0
 1689 00ca 3230     		adds	r0, r0, #50
 1690 00cc FFF7FEFF 		bl	__aeabi_i2f
 1691              	.LVL183:
 1692 00d0 FFF7FEFF 		bl	PWM_Set
 1693              	.LVL184:
 959:main.c        ****                 
 1694              		.loc 1 959 0
 1695 00d4 2B78     		ldrb	r3, [r5]
 1696 00d6 002B     		cmp	r3, #0
 1697 00d8 18D0     		beq	.L125
 963:main.c        ****                     DeltaPosition = labs( ((int32) CurrentPosition) - ((int32) PID_Last_Position) )
 1698              		.loc 1 963 0
ARM GAS  C:\Users\PRICHA~1\AppData\Local\Temp\ccecR4Xo.s 			page 57


 1699 00da FFF7FEFF 		bl	Counter_1_ReadCounter
 1700              	.LVL185:
 964:main.c        ****                     CurrentIndexCount = Index_Counter_1_ReadCounter();
 1701              		.loc 1 964 0
 1702 00de 324B     		ldr	r3, .L132+56
 1703 00e0 1B68     		ldr	r3, [r3]
 1704 00e2 C01A     		subs	r0, r0, r3
 1705              	.LVL186:
 1706 00e4 C317     		asrs	r3, r0, #31
 1707 00e6 C518     		adds	r5, r0, r3
 1708 00e8 5D40     		eors	r5, r3
 1709              	.LVL187:
 965:main.c        ****                     
 1710              		.loc 1 965 0
 1711 00ea FFF7FEFF 		bl	Index_Counter_1_ReadCounter
 1712              	.LVL188:
 1713 00ee 061E     		subs	r6, r0, #0
 1714              	.LVL189:
 968:main.c        ****                         if (DeltaPosition > 2*ENCODER_COUNTS_PER_INDEX) 
 1715              		.loc 1 968 0
 1716 00f0 05D1     		bne	.L127
 969:main.c        ****                             AssertFault(fsIndex);        
 1717              		.loc 1 969 0
 1718 00f2 2E4B     		ldr	r3, .L132+60
 1719 00f4 9D42     		cmp	r5, r3
 1720 00f6 02DD     		ble	.L127
 970:main.c        ****                     
 1721              		.loc 1 970 0
 1722 00f8 0420     		movs	r0, #4
 1723              	.LVL190:
 1724 00fa FFF7FEFF 		bl	AssertFault
 1725              	.LVL191:
 1726              	.L127:
 973:main.c        ****                         AssertFault(fsEncoder);
 1727              		.loc 1 973 0
 1728 00fe 002E     		cmp	r6, #0
 1729 0100 04D0     		beq	.L125
 973:main.c        ****                         AssertFault(fsEncoder);
 1730              		.loc 1 973 0 is_stmt 0 discriminator 1
 1731 0102 012D     		cmp	r5, #1
 1732 0104 02DC     		bgt	.L125
 974:main.c        ****                 }
 1733              		.loc 1 974 0 is_stmt 1
 1734 0106 0220     		movs	r0, #2
 1735 0108 FFF7FEFF 		bl	AssertFault
 1736              	.LVL192:
 1737              	.L125:
 980:main.c        ****                 PID_SetMode(PID_AUTOMATIC);
 1738              		.loc 1 980 0
 1739 010c 1F4B     		ldr	r3, .L132+28
 1740 010e 1B78     		ldrb	r3, [r3]
 1741 0110 002B     		cmp	r3, #0
 1742 0112 07D1     		bne	.L128
 980:main.c        ****                 PID_SetMode(PID_AUTOMATIC);
 1743              		.loc 1 980 0 is_stmt 0 discriminator 1
 1744 0114 1E4A     		ldr	r2, .L132+32
 1745 0116 1278     		ldrb	r2, [r2]
ARM GAS  C:\Users\PRICHA~1\AppData\Local\Temp\ccecR4Xo.s 			page 58


 1746 0118 002A     		cmp	r2, #0
 1747 011a 03D0     		beq	.L128
 981:main.c        ****             } else if (!PID_Enabled && PID_Was_Enabled) {
 1748              		.loc 1 981 0 is_stmt 1
 1749 011c 0120     		movs	r0, #1
 1750 011e FFF7FEFF 		bl	PID_SetMode
 1751              	.LVL193:
 1752 0122 08E0     		b	.L129
 1753              	.L128:
 982:main.c        ****                 PID_SetMode(PID_MANUAL);                
 1754              		.loc 1 982 0
 1755 0124 1A4A     		ldr	r2, .L132+32
 1756 0126 1278     		ldrb	r2, [r2]
 1757 0128 002A     		cmp	r2, #0
 1758 012a 04D1     		bne	.L129
 982:main.c        ****                 PID_SetMode(PID_MANUAL);                
 1759              		.loc 1 982 0 is_stmt 0 discriminator 1
 1760 012c 002B     		cmp	r3, #0
 1761 012e 02D0     		beq	.L129
 983:main.c        ****             } else {
 1762              		.loc 1 983 0 is_stmt 1
 1763 0130 0020     		movs	r0, #0
 1764 0132 FFF7FEFF 		bl	PID_SetMode
 1765              	.LVL194:
 1766              	.L129:
 989:main.c        ****             
 1767              		.loc 1 989 0
 1768 0136 164D     		ldr	r5, .L132+32
 1769 0138 2A78     		ldrb	r2, [r5]
 1770 013a 144B     		ldr	r3, .L132+28
 1771 013c 1A70     		strb	r2, [r3]
 993:main.c        ****             
 1772              		.loc 1 993 0
 1773 013e 124B     		ldr	r3, .L132+24
 1774 0140 1968     		ldr	r1, [r3]
 1775 0142 2000     		movs	r0, r4
 1776 0144 FFF7FEFF 		bl	PID_Compute
 1777              	.LVL195:
 996:main.c        ****                 
 1778              		.loc 1 996 0
 1779 0148 2B78     		ldrb	r3, [r5]
 1780 014a 002B     		cmp	r3, #0
 1781 014c 04D0     		beq	.L130
 999:main.c        ****                 
 1782              		.loc 1 999 0
 1783 014e 184B     		ldr	r3, .L132+64
 1784 0150 1860     		str	r0, [r3]
1002:main.c        ****                 
 1785              		.loc 1 1002 0
 1786 0152 FFF7FEFF 		bl	PID_SetDrive
 1787              	.LVL196:
 1788 0156 02E0     		b	.L124
 1789              	.LVL197:
 1790              	.L130:
1006:main.c        ****             }
 1791              		.loc 1 1006 0
 1792 0158 0022     		movs	r2, #0
ARM GAS  C:\Users\PRICHA~1\AppData\Local\Temp\ccecR4Xo.s 			page 59


 1793 015a 154B     		ldr	r3, .L132+64
 1794 015c 1A60     		str	r2, [r3]
 1795              	.LVL198:
 1796              	.L124:
1012:main.c        **** 
 1797              		.loc 1 1012 0
 1798 015e 0520     		movs	r0, #5
 1799 0160 FFF7FEFF 		bl	vTaskDelay
 1800              	.LVL199:
1015:main.c        ****     }
 1801              		.loc 1 1015 0
 1802 0164 0020     		movs	r0, #0
 1803 0166 FFF7FEFF 		bl	uxTaskGetStackHighWaterMark
 1804              	.LVL200:
 1805 016a 014B     		ldr	r3, .L132
 1806 016c 1860     		str	r0, [r3]
1016:main.c        ****    
 1807              		.loc 1 1016 0
 1808 016e 6AE7     		b	.L131
 1809              	.L133:
 1810              		.align	2
 1811              	.L132:
 1812 0170 00000000 		.word	uxHighWaterMark_PID
 1813 0174 00000000 		.word	refKp
 1814 0178 00000000 		.word	refKi
 1815 017c 00000000 		.word	refKd
 1816 0180 0000C842 		.word	1120403456
 1817 0184 0000C8C2 		.word	-1027080192
 1818 0188 00000000 		.word	PID_Setpoint
 1819 018c 00000000 		.word	PID_Was_Enabled
 1820 0190 00000000 		.word	PID_Enabled
 1821 0194 00000000 		.word	LastMessageTimeTick
 1822 0198 00004842 		.word	1112014848
 1823 019c 00000000 		.word	Jog
 1824 01a0 00000000 		.word	ConfigState
 1825 01a4 00000000 		.word	Last_Jog
 1826 01a8 00000000 		.word	PID_Last_Position
 1827 01ac 204E0000 		.word	20000
 1828 01b0 00000000 		.word	PWM
 1829              		.cfi_endproc
 1830              	.LFE44:
 1831              		.size	PID_Task, .-PID_Task
 1832              		.section	.text.main,"ax",%progbits
 1833              		.align	2
 1834              		.global	main
 1835              		.code	16
 1836              		.thumb_func
 1837              		.type	main, %function
 1838              	main:
 1839              	.LFB45:
1031:main.c        ****     
 1840              		.loc 1 1031 0
 1841              		.cfi_startproc
 1842              		@ args = 0, pretend = 0, frame = 0
 1843              		@ frame_needed = 0, uses_anonymous_args = 0
 1844 0000 30B5     		push	{r4, r5, lr}
 1845              		.cfi_def_cfa_offset 12
ARM GAS  C:\Users\PRICHA~1\AppData\Local\Temp\ccecR4Xo.s 			page 60


 1846              		.cfi_offset 4, -12
 1847              		.cfi_offset 5, -8
 1848              		.cfi_offset 14, -4
 1849 0002 83B0     		sub	sp, sp, #12
 1850              		.cfi_def_cfa_offset 24
1034:main.c        **** 
 1851              		.loc 1 1034 0
 1852 0004 FFF7FEFF 		bl	setupFreeRTOS
 1853              	.LVL201:
1042:main.c        ****     INDEX_OUT_SetDriveMode(INDEX_OUT_DM_DIG_HIZ); 
 1854              		.loc 1 1042 0
 1855 0008 0120     		movs	r0, #1
 1856 000a FFF7FEFF 		bl	HOME_OUT_SetDriveMode
 1857              	.LVL202:
1043:main.c        **** 
 1858              		.loc 1 1043 0
 1859 000e 0120     		movs	r0, #1
 1860 0010 FFF7FEFF 		bl	INDEX_OUT_SetDriveMode
 1861              	.LVL203:
1046:main.c        ****         PID_Task,       /* Task function */
 1862              		.loc 1 1046 0
 1863 0014 0024     		movs	r4, #0
 1864 0016 0194     		str	r4, [sp, #4]
 1865 0018 0223     		movs	r3, #2
 1866 001a 0093     		str	r3, [sp]
 1867 001c 0023     		movs	r3, #0
 1868 001e 4022     		movs	r2, #64
 1869 0020 3849     		ldr	r1, .L137
 1870 0022 3948     		ldr	r0, .L137+4
 1871 0024 FFF7FEFF 		bl	xTaskCreate
 1872              	.LVL204:
1054:main.c        ****         Comm_Task,       /* Task function */
 1873              		.loc 1 1054 0
 1874 0028 0194     		str	r4, [sp, #4]
 1875 002a 0323     		movs	r3, #3
 1876 002c 0093     		str	r3, [sp]
 1877 002e 0023     		movs	r3, #0
 1878 0030 6422     		movs	r2, #100
 1879 0032 3649     		ldr	r1, .L137+8
 1880 0034 3648     		ldr	r0, .L137+12
 1881 0036 FFF7FEFF 		bl	xTaskCreate
 1882              	.LVL205:
1062:main.c        ****         Current_Read_Task, /* Task function */
 1883              		.loc 1 1062 0
 1884 003a 0194     		str	r4, [sp, #4]
 1885 003c 0123     		movs	r3, #1
 1886 003e 0093     		str	r3, [sp]
 1887 0040 0023     		movs	r3, #0
 1888 0042 4022     		movs	r2, #64
 1889 0044 3349     		ldr	r1, .L137+16
 1890 0046 3448     		ldr	r0, .L137+20
 1891 0048 FFF7FEFF 		bl	xTaskCreate
 1892              	.LVL206:
1073:main.c        **** 
 1893              		.loc 1 1073 0
 1894 004c 0120     		movs	r0, #1
 1895 004e FFF7FEFF 		bl	xQueueCreateMutex
ARM GAS  C:\Users\PRICHA~1\AppData\Local\Temp\ccecR4Xo.s 			page 61


 1896              	.LVL207:
 1897 0052 324B     		ldr	r3, .L137+24
 1898 0054 1860     		str	r0, [r3]
1076:main.c        ****         s = 1;
 1899              		.loc 1 1076 0
 1900 0056 0028     		cmp	r0, #0
 1901 0058 0BD1     		bne	.L135
 1902 005a 0134     		adds	r4, r4, #1
 1903              	.L136:
 1904              	.LVL208:
1080:main.c        ****             LED_Write(s); 
 1905              		.loc 1 1080 0 discriminator 1
 1906 005c 6342     		rsbs	r3, r4, #0
 1907 005e 5C41     		adcs	r4, r4, r3
 1908              	.LVL209:
 1909 0060 E4B2     		uxtb	r4, r4
 1910              	.LVL210:
1081:main.c        ****             CyDelay(1000u);                    
 1911              		.loc 1 1081 0 discriminator 1
 1912 0062 2000     		movs	r0, r4
 1913 0064 FFF7FEFF 		bl	LED_Write
 1914              	.LVL211:
1082:main.c        ****         }
 1915              		.loc 1 1082 0 discriminator 1
 1916 0068 FA20     		movs	r0, #250
 1917 006a 8000     		lsls	r0, r0, #2
 1918 006c FFF7FEFF 		bl	CyDelay
 1919              	.LVL212:
 1920 0070 F4E7     		b	.L136
 1921              	.LVL213:
 1922              	.L135:
1092:main.c        ****     isr_rst_encoder_StartEx(RSTIsrHandler);
 1923              		.loc 1 1092 0
 1924 0072 2B48     		ldr	r0, .L137+28
 1925 0074 FFF7FEFF 		bl	isr_home_StartEx
 1926              	.LVL214:
1093:main.c        ****     
 1927              		.loc 1 1093 0
 1928 0078 2A48     		ldr	r0, .L137+32
 1929 007a FFF7FEFF 		bl	isr_rst_encoder_StartEx
 1930              	.LVL215:
1096:main.c        ****     
 1931              		.loc 1 1096 0
 1932 007e 2A48     		ldr	r0, .L137+36
 1933 0080 FFF7FEFF 		bl	isr_spi_ss_StartEx
 1934              	.LVL216:
1099:main.c        ****     isr_rst_encoder_SetPriority(HIGHER_PRIORITY);
 1935              		.loc 1 1099 0
 1936 0084 0320     		movs	r0, #3
 1937 0086 FFF7FEFF 		bl	isr_home_SetPriority
 1938              	.LVL217:
1100:main.c        ****     isr_spi_ss_SetPriority(DEFAULT_PRIORITY);
 1939              		.loc 1 1100 0
 1940 008a 0220     		movs	r0, #2
 1941 008c FFF7FEFF 		bl	isr_rst_encoder_SetPriority
 1942              	.LVL218:
1101:main.c        **** 
ARM GAS  C:\Users\PRICHA~1\AppData\Local\Temp\ccecR4Xo.s 			page 62


 1943              		.loc 1 1101 0
 1944 0090 0320     		movs	r0, #3
 1945 0092 FFF7FEFF 		bl	isr_spi_ss_SetPriority
 1946              	.LVL219:
1104:main.c        ****     
 1947              		.loc 1 1104 0
 1948              		.syntax divided
 1949              	@ 1104 "main.c" 1
 1950 0096 62B6     		CPSIE   i
 1951              	@ 0 "" 2
1135:main.c        ****     CyDelay(100u);
 1952              		.loc 1 1135 0
 1953              		.thumb
 1954              		.syntax unified
 1955 0098 FFF7FEFF 		bl	I2C_Start
 1956              	.LVL220:
1136:main.c        ****     SPI_1_Start();
 1957              		.loc 1 1136 0
 1958 009c 6420     		movs	r0, #100
 1959 009e FFF7FEFF 		bl	CyDelay
 1960              	.LVL221:
1137:main.c        ****     
 1961              		.loc 1 1137 0
 1962 00a2 FFF7FEFF 		bl	SPI_1_Start
 1963              	.LVL222:
1141:main.c        ****     PWM_1_WritePeriod(PWM_15KHZ_PERIOD);
 1964              		.loc 1 1141 0
 1965 00a6 FFF7FEFF 		bl	PWM_1_Start
 1966              	.LVL223:
1142:main.c        ****     PWM_Set(PWM_IDLE);   
 1967              		.loc 1 1142 0
 1968 00aa C820     		movs	r0, #200
 1969 00ac C000     		lsls	r0, r0, #3
 1970 00ae FFF7FEFF 		bl	PWM_1_WritePeriod
 1971              	.LVL224:
1143:main.c        ****     
 1972              		.loc 1 1143 0
 1973 00b2 1E48     		ldr	r0, .L137+40
 1974 00b4 FFF7FEFF 		bl	PWM_Set
 1975              	.LVL225:
1146:main.c        ****     PWM_Max_Fwd = PWM_JOG_NEUTRAL + PWM_MAX_MAGNITUDE;
 1976              		.loc 1 1146 0
 1977 00b8 0024     		movs	r4, #0
 1978 00ba 1D4B     		ldr	r3, .L137+44
 1979 00bc 1C70     		strb	r4, [r3]
1147:main.c        ****     PWM_Max_Rev = PWM_JOG_NEUTRAL - PWM_MAX_MAGNITUDE;
 1980              		.loc 1 1147 0
 1981 00be 6422     		movs	r2, #100
 1982 00c0 1C4B     		ldr	r3, .L137+48
 1983 00c2 1A70     		strb	r2, [r3]
1148:main.c        ****    
 1984              		.loc 1 1148 0
 1985 00c4 1C4B     		ldr	r3, .L137+52
 1986 00c6 1C70     		strb	r4, [r3]
1151:main.c        ****     Counter_1_WriteCounter(ENCODER_MAX);  // Set the encoder initially to mid range
 1987              		.loc 1 1151 0
 1988 00c8 FFF7FEFF 		bl	Counter_1_Start
ARM GAS  C:\Users\PRICHA~1\AppData\Local\Temp\ccecR4Xo.s 			page 63


 1989              	.LVL226:
1152:main.c        ****     PID_Last_Position = ENCODER_MAX;
 1990              		.loc 1 1152 0
 1991 00cc 8025     		movs	r5, #128
 1992 00ce 2D04     		lsls	r5, r5, #16
 1993 00d0 2800     		movs	r0, r5
 1994 00d2 FFF7FEFF 		bl	Counter_1_WriteCounter
 1995              	.LVL227:
1153:main.c        ****     
 1996              		.loc 1 1153 0
 1997 00d6 194B     		ldr	r3, .L137+56
 1998 00d8 1D60     		str	r5, [r3]
1156:main.c        ****     Index_Counter_1_WriteCounter(0);
 1999              		.loc 1 1156 0
 2000 00da FFF7FEFF 		bl	Index_Counter_1_Start
 2001              	.LVL228:
1157:main.c        ****      
 2002              		.loc 1 1157 0
 2003 00de 0020     		movs	r0, #0
 2004 00e0 FFF7FEFF 		bl	Index_Counter_1_WriteCounter
 2005              	.LVL229:
1160:main.c        ****     
 2006              		.loc 1 1160 0
 2007 00e4 FFF7FEFF 		bl	xTaskGetTickCount
 2008              	.LVL230:
 2009 00e8 154B     		ldr	r3, .L137+60
 2010 00ea 1860     		str	r0, [r3]
1163:main.c        ****     ConfigSequence = 0;
 2011              		.loc 1 1163 0
 2012 00ec 0122     		movs	r2, #1
 2013 00ee 154B     		ldr	r3, .L137+64
 2014 00f0 1A70     		strb	r2, [r3]
1164:main.c        ****     ChecksumErrors = 0;
 2015              		.loc 1 1164 0
 2016 00f2 154B     		ldr	r3, .L137+68
 2017 00f4 1C70     		strb	r4, [r3]
1165:main.c        ****    
 2018              		.loc 1 1165 0
 2019 00f6 154B     		ldr	r3, .L137+72
 2020 00f8 1C80     		strh	r4, [r3]
1170:main.c        ****    
 2021              		.loc 1 1170 0
 2022 00fa FFF7FEFF 		bl	vTaskStartScheduler
 2023              	.LVL231:
1176:main.c        **** 
 2024              		.loc 1 1176 0
 2025 00fe 0120     		movs	r0, #1
 2026 0100 03B0     		add	sp, sp, #12
 2027              		@ sp needed
 2028 0102 30BD     		pop	{r4, r5, pc}
 2029              	.L138:
 2030              		.align	2
 2031              	.L137:
 2032 0104 00000000 		.word	.LC76
 2033 0108 00000000 		.word	PID_Task
 2034 010c 04000000 		.word	.LC79
 2035 0110 00000000 		.word	Comm_Task
ARM GAS  C:\Users\PRICHA~1\AppData\Local\Temp\ccecR4Xo.s 			page 64


 2036 0114 14000000 		.word	.LC82
 2037 0118 00000000 		.word	Current_Read_Task
 2038 011c 00000000 		.word	Lock
 2039 0120 00000000 		.word	HomeIsrHandler
 2040 0124 00000000 		.word	RSTIsrHandler
 2041 0128 00000000 		.word	SPI_SS_IsrHandler
 2042 012c 00004842 		.word	1112014848
 2043 0130 00000000 		.word	Jog
 2044 0134 00000000 		.word	PWM_Max_Fwd
 2045 0138 00000000 		.word	PWM_Max_Rev
 2046 013c 00000000 		.word	PID_Last_Position
 2047 0140 00000000 		.word	LastMessageTimeTick
 2048 0144 00000000 		.word	ConfigState
 2049 0148 00000000 		.word	ConfigSequence
 2050 014c 00000000 		.word	ChecksumErrors
 2051              		.cfi_endproc
 2052              	.LFE45:
 2053              		.size	main, .-main
 2054              		.comm	txMessageState,1,1
 2055              		.comm	txMessage,30,4
 2056              		.comm	rxMessage,30,4
 2057              		.comm	LastMessageTimeTick,4,4
 2058              		.comm	Lock,4,4
 2059              		.comm	uxHighWaterMark_Comm,4,4
 2060              		.comm	uxHighWaterMark_Current,4,4
 2061              		.comm	uxHighWaterMark_PID,4,4
 2062              		.comm	CurrentI2Cinbuf,20,4
 2063              		.comm	PID_Last_Position,4,4
 2064              		.comm	PWM,4,4
 2065              		.comm	Current,2,2
 2066              		.comm	ChecksumErrors,2,2
 2067              		.comm	ConfigSequence,1,1
 2068              		.comm	FaultState,1,1
 2069              		.comm	ConfigState,1,1
 2070              		.global	inAuto
 2071              		.comm	outMax,4,4
 2072              		.comm	outMin,4,4
 2073              		.global	refSampleTime
 2074              		.comm	kd,4,4
 2075              		.comm	ki,4,4
 2076              		.comm	kp,4,4
 2077              		.comm	refKd,4,4
 2078              		.comm	refKi,4,4
 2079              		.comm	refKp,4,4
 2080              		.comm	lastPosition,4,4
 2081              		.comm	ITerm,4,4
 2082              		.comm	Output,4,4
 2083              		.comm	lastTime,4,4
 2084              		.comm	PID_Setpoint,4,4
 2085              		.comm	PID_Was_Enabled,1,1
 2086              		.comm	PID_Enabled,1,1
 2087              		.comm	PWM_Max_Rev,1,1
 2088              		.comm	PWM_Max_Fwd,1,1
 2089              		.comm	Last_Jog,1,1
 2090              		.comm	Jog,1,1
 2091              		.data
 2092              		.align	2
ARM GAS  C:\Users\PRICHA~1\AppData\Local\Temp\ccecR4Xo.s 			page 65


 2093              		.set	.LANCHOR1,. + 0
 2094              		.type	refSampleTime, %object
 2095              		.size	refSampleTime, 4
 2096              	refSampleTime:
 2097 0000 05000000 		.word	5
 2098              		.section	.rodata.str1.4,"aMS",%progbits,1
 2099              		.align	2
 2100              	.LC76:
 2101 0000 50494400 		.ascii	"PID\000"
 2102              	.LC79:
 2103 0004 436F6D6D 		.ascii	"Communications\000"
 2103      756E6963 
 2103      6174696F 
 2103      6E7300
 2104 0013 00       		.space	1
 2105              	.LC82:
 2106 0014 52656164 		.ascii	"Read Current\000"
 2106      20437572 
 2106      72656E74 
 2106      00
 2107              		.bss
 2108              		.set	.LANCHOR0,. + 0
 2109              		.type	inAuto, %object
 2110              		.size	inAuto, 1
 2111              	inAuto:
 2112 0000 00       		.space	1
 2113              		.text
 2114              	.Letext0:
 2115              		.file 2 "c:\\program files (x86)\\cypress\\psoc creator\\4.2\\psoc creator\\import\\gnu\\arm\\5.4.
 2116              		.file 3 "c:\\program files (x86)\\cypress\\psoc creator\\4.2\\psoc creator\\import\\gnu\\arm\\5.4.
 2117              		.file 4 "Generated_Source\\PSoC4/cytypes.h"
 2118              		.file 5 ".\\FreeRTOS/portmacro.h"
 2119              		.file 6 ".\\FreeRTOS/queue.h"
 2120              		.file 7 ".\\FreeRTOS/semphr.h"
 2121              		.file 8 "Generated_Source\\PSoC4/isr_rst_encoder.h"
 2122              		.file 9 "Generated_Source\\PSoC4/Reset_Encoder.h"
 2123              		.file 10 "Generated_Source\\PSoC4/Counter_1.h"
 2124              		.file 11 "Generated_Source\\PSoC4/Index_Counter_1.h"
 2125              		.file 12 "Generated_Source\\PSoC4/isr_home.h"
 2126              		.file 13 "Generated_Source\\PSoC4/HOME_IN.h"
 2127              		.file 14 "Generated_Source\\PSoC4/spi_ss.h"
 2128              		.file 15 ".\\FreeRTOS/task.h"
 2129              		.file 16 "Generated_Source\\PSoC4/SPI_1_SPI_UART.h"
 2130              		.file 17 "Generated_Source\\PSoC4/CyLib.h"
 2131              		.file 18 "Generated_Source\\PSoC4/LED.h"
 2132              		.file 19 "Generated_Source\\PSoC4/PROBE.h"
 2133              		.file 20 "Generated_Source\\PSoC4/I2C_I2C.h"
 2134              		.file 21 "Generated_Source\\PSoC4/PWM_1.h"
 2135              		.file 22 "Generated_Source\\PSoC4/CyLFClk.h"
 2136              		.file 23 "Generated_Source\\PSoC4/HOME_OUT.h"
 2137              		.file 24 "Generated_Source\\PSoC4/INDEX_OUT.h"
 2138              		.file 25 "Generated_Source\\PSoC4/isr_spi_ss.h"
 2139              		.file 26 "Generated_Source\\PSoC4/I2C.h"
 2140              		.file 27 "Generated_Source\\PSoC4/SPI_1.h"
 2141              		.file 28 "Generated_Source\\PSoC4/core_cm0_psoc4.h"