ARM GAS  C:\Users\PRICHA~1\AppData\Local\Temp\cctE1isk.s 			page 1


   1              		.syntax unified
   2              		.cpu cortex-m0
   3              		.fpu softvfp
   4              		.eabi_attribute 20, 1
   5              		.eabi_attribute 21, 1
   6              		.eabi_attribute 23, 3
   7              		.eabi_attribute 24, 1
   8              		.eabi_attribute 25, 1
   9              		.eabi_attribute 26, 1
  10              		.eabi_attribute 30, 1
  11              		.eabi_attribute 34, 0
  12              		.eabi_attribute 18, 4
  13              		.thumb
  14              		.syntax unified
  15              		.file	"main.c"
  16              		.text
  17              	.Ltext0:
  18              		.cfi_sections	.debug_frame
  19              		.section	.text.RSTIsrHandler,"ax",%progbits
  20              		.align	2
  21              		.global	RSTIsrHandler
  22              		.code	16
  23              		.thumb_func
  24              		.type	RSTIsrHandler, %function
  25              	RSTIsrHandler:
  26              	.LFB46:
  27              		.file 1 "main.c"
   1:main.c        **** /*******************************************************************************
   2:main.c        **** * File Name: main.c
   3:main.c        **** * Author: Paul Richards, W.M. Keck Observatory
   4:main.c        **** *   (Adapted from original non-RTOS version from Kona Scientific, JP Fumo)
   5:main.c        **** *
   6:main.c        **** * Description:
   7:main.c        **** *  This file provides a SPI interface for the Quadrature Encoder for the ACS project.
   8:main.c        **** *  The I2C device provides readback of motor current consumption.
   9:main.c        **** *
  10:main.c        **** * History:
  11:main.c        **** * 03/22/19 PMR  Rev: 0-0-3 add PID separate I limit and simplify limiting code
  12:main.c        **** * 02/07/19 PMR  Rev: 0-0-2 implement revision numbering in protocol
  13:main.c        **** * 12/18/18 PMR  Rev: B  Implement checksummed messaging and max PWM limiting
  14:main.c        **** * 10/11/18 PMR  Rev: A  Implement PWM functions for PDI control
  15:main.c        **** * 07/31/18 PMR  Rev: NC Initial Release after port from Kona Scientific code
  16:main.c        **** *******************************************************************************/
  17:main.c        **** #include <FreeRTOS.h>
  18:main.c        **** #include <semphr.h>
  19:main.c        **** #include <task.h>
  20:main.c        **** #include <I2C_I2C.h>
  21:main.c        **** #include <stdbool.h>
  22:main.c        **** #include <stdlib.h>
  23:main.c        **** #include <math.h>
  24:main.c        **** #include "INA219.h"
  25:main.c        **** 
  26:main.c        **** /* Firmware revision is 0-0-3 (as of 2019-03-21 PMR) */
  27:main.c        **** #define FIRMWARE_REV_0 0
  28:main.c        **** #define FIRMWARE_REV_1 0
  29:main.c        **** #define FIRMWARE_REV_2 3
  30:main.c        **** 
ARM GAS  C:\Users\PRICHA~1\AppData\Local\Temp\cctE1isk.s 			page 2


  31:main.c        **** /* Debugging - undefine this for a production system that needs to watchdog */
  32:main.c        **** #define DEBUG_PROBE_ATTACHED 1
  33:main.c        **** 
  34:main.c        **** /* --------------------------------------------------------------------- 
  35:main.c        ****  * CONSTANTS
  36:main.c        ****  * --------------------------------------------------------------------- */
  37:main.c        **** 
  38:main.c        **** /* Interrupt priorities (not to be confused with RTOS task priorities) */
  39:main.c        **** #define NESTED_ISR                             (1u)
  40:main.c        **** #define DEFAULT_PRIORITY                       (3u)
  41:main.c        **** #define HIGHER_PRIORITY                        (2u)
  42:main.c        **** 
  43:main.c        **** /* Interrupt prototypes */
  44:main.c        **** CY_ISR_PROTO(HomeIsrHandler);
  45:main.c        **** CY_ISR_PROTO(RSTIsrHandler);
  46:main.c        **** CY_ISR_PROTO(SPI_IsrHandler);
  47:main.c        **** CY_ISR_PROTO(SPI_SS_IsrHandler);
  48:main.c        **** 
  49:main.c        **** /* --------------------------------------------------------------------- 
  50:main.c        ****  * WDT Defines
  51:main.c        ****  *
  52:main.c        ****  * ILO clock is 32KHz (approx. 31ms/count)
  53:main.c        ****  * We will allow the CPU to stall for 2 full seconds before forcibly
  54:main.c        ****  * resetting.  That comes to 64,000 counts for that 2 seconds.
  55:main.c        ****  * --------------------------------------------------------------------- */
  56:main.c        **** #define WDT_COUNT1_REFRESH()                   CySysWdtResetCounters(CY_SYS_WDT_COUNTER1_RESET)
  57:main.c        **** #define WDT_COUNT1_MATCH_RESET                 (0xFA00u)
  58:main.c        **** 
  59:main.c        **** /* --------------------------------------------------------------------- 
  60:main.c        ****  * PWM Defines
  61:main.c        ****  * --------------------------------------------------------------------- */
  62:main.c        **** #define PWM_15KHZ_PERIOD                       (1600)
  63:main.c        **** #define PWM_PCT_TO_COMPARE(x)                  trunc((float) x * (PWM_15KHZ_PERIOD/100))
  64:main.c        **** #define PWM_IDLE                               (50.0)
  65:main.c        **** 
  66:main.c        **** /* TI INA219 Zero-Drift, Bidirectional Current/Power Monitor With I2C Interface */
  67:main.c        **** #define INA219_I2C_ADDR                        (0x40)
  68:main.c        **** #define INA219_CAL_VALUE                       (8192)
  69:main.c        **** 
  70:main.c        **** 
  71:main.c        **** /* Neutral PWM jog is a 50% duty cycle */
  72:main.c        **** #define PWM_JOG_NEUTRAL                        (50)
  73:main.c        **** 
  74:main.c        **** /* PWM maximum current value clipped to +/- X% duty cycle around the center (50 by default, full po
  75:main.c        **** #define PWM_MAX_MAGNITUDE                      (50) 
  76:main.c        **** 
  77:main.c        **** /* --------------------------------------------------------------------- 
  78:main.c        ****  * PID Defines
  79:main.c        ****  * --------------------------------------------------------------------- */
  80:main.c        **** #define PID_MANUAL                             (0)
  81:main.c        **** #define PID_AUTOMATIC                          (1)
  82:main.c        **** bool inAuto = false;
  83:main.c        **** 
  84:main.c        **** volatile int8 Jog, LastJog;
  85:main.c        **** bool PID_Enabled, PID_Was_Enabled;
  86:main.c        **** uint32 PID_Setpoint;
  87:main.c        **** uint32 lastTime;
ARM GAS  C:\Users\PRICHA~1\AppData\Local\Temp\cctE1isk.s 			page 3


  88:main.c        **** float Output;
  89:main.c        **** float ITerm;
  90:main.c        **** volatile int32 Position, LastPosition;
  91:main.c        **** float refKp, refKi, refKd;
  92:main.c        **** float kp, ki, kd;
  93:main.c        **** uint32 refSampleTime = 5; // Default to 5ms
  94:main.c        **** float outMax_Total, outMax_ITerm;
  95:main.c        **** float pwmLimit, pwmMax, pwmMin;    
  96:main.c        **** 
  97:main.c        **** /* --------------------------------------------------------------------- 
  98:main.c        ****  * ENCODER PROPERTIES
  99:main.c        ****  *
 100:main.c        ****  * The encoder counts up and down in Counter_1, which is unsigned 24 bit
 101:main.c        ****  *
 102:main.c        ****  * Note: the negative boundary is defined as 1,048,576 counts of underflow
 103:main.c        ****  * in the Counter_1 value.  This allows us to start at max travel, reset 
 104:main.c        ****  * encoder to 0 and count negative the full travel before hitting the home
 105:main.c        ****  * flag and resetting the counter to 0 again.
 106:main.c        ****  *
 107:main.c        ****  * (0x800000 - 0x700000 is 0x100000 or 1.048M, >3x the entire actuator travel)
 108:main.c        ****  * --------------------------------------------------------------------- */
 109:main.c        **** #define ENCODER_MAX                            (0x00800000)
 110:main.c        **** #define ENCODER_NEGATIVE_BOUNDARY              (0x00700000)
 111:main.c        **** #define ENCODER_COUNTS_PER_INDEX               (10000)
 112:main.c        **** 
 113:main.c        **** /* --------------------------------------------------------------------- 
 114:main.c        ****  * INA219 REGISTERS
 115:main.c        ****  * --------------------------------------------------------------------- */
 116:main.c        **** #define INA219_REG_CONFIG                      (0x00)
 117:main.c        **** #define INA219_REG_SHUNTVOLTAGE                (0x01)
 118:main.c        **** #define INA219_REG_BUSVOLTAGE                  (0x02)
 119:main.c        **** #define INA219_REG_POWER                       (0x03)
 120:main.c        **** #define INA219_REG_CURRENT                     (0x04)
 121:main.c        **** #define INA219_REG_CALIBRATION                 (0x05)
 122:main.c        **** 
 123:main.c        **** /* ****************************
 124:main.c        ****  * INA219 CONFIG REGISTER (R/W)
 125:main.c        ****  * **************************** */
 126:main.c        **** #define INA219_CONFIG_RESET                    (0x8000)  // Reset Bit
 127:main.c        **** 
 128:main.c        **** #define INA219_CONFIG_BVOLTAGERANGE_MASK       (0x2000)  // Bus Voltage Range Mask
 129:main.c        **** #define INA219_CONFIG_BVOLTAGERANGE_16V        (0x0000)  // 0-16V Range
 130:main.c        **** #define INA219_CONFIG_BVOLTAGERANGE_32V        (0x2000)  // 0-32V Range
 131:main.c        **** 
 132:main.c        **** #define INA219_CONFIG_GAIN_MASK                (0x1800)  // Gain Mask
 133:main.c        **** #define INA219_CONFIG_GAIN_1_40MV              (0x0000)  // Gain 1, 40mV Range
 134:main.c        **** #define INA219_CONFIG_GAIN_2_80MV              (0x0800)  // Gain 2, 80mV Range
 135:main.c        **** #define INA219_CONFIG_GAIN_4_160MV             (0x1000)  // Gain 4, 160mV Range
 136:main.c        **** #define INA219_CONFIG_GAIN_8_320MV             (0x1800)  // Gain 8, 320mV Range
 137:main.c        **** 
 138:main.c        **** #define INA219_CONFIG_BADCRES_MASK             (0x0780)  // Bus ADC Resolution Mask
 139:main.c        **** #define INA219_CONFIG_BADCRES_9BIT             (0x0080)  // 9-bit bus res = 0..511
 140:main.c        **** #define INA219_CONFIG_BADCRES_10BIT            (0x0100)  // 10-bit bus res = 0..1023
 141:main.c        **** #define INA219_CONFIG_BADCRES_11BIT            (0x0200)  // 11-bit bus res = 0..2047
 142:main.c        **** #define INA219_CONFIG_BADCRES_12BIT            (0x0400)  // 12-bit bus res = 0..4097
 143:main.c        **** 
 144:main.c        **** #define INA219_CONFIG_SADCRES_MASK             (0x0078)  // Shunt ADC Resolution and Averaging Mask
ARM GAS  C:\Users\PRICHA~1\AppData\Local\Temp\cctE1isk.s 			page 4


 145:main.c        **** #define INA219_CONFIG_SADCRES_9BIT_1S_84US     (0x0000)  // 1 x 9-bit shunt sample
 146:main.c        **** #define INA219_CONFIG_SADCRES_10BIT_1S_148US   (0x0008)  // 1 x 10-bit shunt sample
 147:main.c        **** #define INA219_CONFIG_SADCRES_11BIT_1S_276US   (0x0010)  // 1 x 11-bit shunt sample
 148:main.c        **** #define INA219_CONFIG_SADCRES_12BIT_1S_532US   (0x0018)  // 1 x 12-bit shunt sample
 149:main.c        **** #define INA219_CONFIG_SADCRES_12BIT_2S_1060US  (0x0048)	 // 2 x 12-bit shunt samples averaged toget
 150:main.c        **** #define INA219_CONFIG_SADCRES_12BIT_4S_2130US  (0x0050)  // 4 x 12-bit shunt samples averaged toget
 151:main.c        **** #define INA219_CONFIG_SADCRES_12BIT_8S_4260US  (0x0058)  // 8 x 12-bit shunt samples averaged toget
 152:main.c        **** #define INA219_CONFIG_SADCRES_12BIT_16S_8510US (0x0060)  // 16 x 12-bit shunt samples averaged toge
 153:main.c        **** #define INA219_CONFIG_SADCRES_12BIT_32S_17MS   (0x0068)  // 32 x 12-bit shunt samples averaged toge
 154:main.c        **** #define INA219_CONFIG_SADCRES_12BIT_64S_34MS   (0x0070)  // 64 x 12-bit shunt samples averaged toge
 155:main.c        **** #define INA219_CONFIG_SADCRES_12BIT_128S_69MS  (0x0078)  // 128 x 12-bit shunt samples averaged tog
 156:main.c        **** 
 157:main.c        **** #define INA219_CONFIG_MODE_MASK                (0x0007)  // Operating Mode Mask
 158:main.c        **** #define INA219_CONFIG_MODE_POWERDOWN           (0x0000)
 159:main.c        **** #define INA219_CONFIG_MODE_SVOLT_TRIGGERED     (0x0001)
 160:main.c        **** #define INA219_CONFIG_MODE_BVOLT_TRIGGERED     (0x0002)
 161:main.c        **** #define INA219_CONFIG_MODE_SANDBVOLT_TRIGGERED (0x0003)
 162:main.c        **** #define INA219_CONFIG_MODE_ADCOFF              (0x0004)
 163:main.c        **** #define INA219_CONFIG_MODE_SVOLT_CONTINUOUS    (0x0005)
 164:main.c        **** #define INA219_CONFIG_MODE_BVOLT_CONTINUOUS    (0x0006)
 165:main.c        **** #define INA219_CONFIG_MODE_SANDBVOLT_CONTINUOUS (0x0007)	
 166:main.c        **** 
 167:main.c        **** 
 168:main.c        **** /* --------------------------------------------------------------------- 
 169:main.c        ****  * RTOS INTERFACES
 170:main.c        ****  * --------------------------------------------------------------------- */
 171:main.c        **** /* Define macros for delaying a task by an amount, returning control back to the OS.
 172:main.c        ****    We have to sleep in OS ticks, so compute how many that is and sleep that long.
 173:main.c        ****    Minimum sleep time is 1ms. */
 174:main.c        **** #define Sleep(MSToSleep)    vTaskDelay( ( MSToSleep * 1000 ) / configTICK_RATE_HZ )
 175:main.c        **** 
 176:main.c        **** 
 177:main.c        **** /* --------------------------------------------------------------------- 
 178:main.c        ****  * GLOBALS
 179:main.c        ****  * --------------------------------------------------------------------- */
 180:main.c        **** /* Coarse reporting of state back to the node box software */
 181:main.c        **** typedef enum {    
 182:main.c        ****     csUNDEFINED   = 0,  /* Invalid state */
 183:main.c        ****     csUnconfig    = 1,  /* Unconfigured, freshly rebooted */
 184:main.c        ****     csReady       = 2,  /* Configuration complete and ready for commands */
 185:main.c        ****     csMAX    
 186:main.c        **** } ConfigStates_t;
 187:main.c        **** 
 188:main.c        **** #define configStateValid(s) ( ((ConfigStates_t) s > csUNDEFINED) && ((ConfigStates_t) s < csMAX) )
 189:main.c        **** 
 190:main.c        **** /* Fault codes, these are bit encoded into a uint8 */
 191:main.c        **** typedef enum {
 192:main.c        ****     fsNONE         = 0b00000000,    /* No faults detected */
 193:main.c        ****     fsUnconfigured = 0b00000001,    /* Attempt to move an unconfigured system */
 194:main.c        ****     fsEncoder      = 0b00000010,    /* One or more encoder phases not changing during a move */
 195:main.c        ****     fsIndex        = 0b00000100,    /* Index marks not seen during a move */
 196:main.c        ****     fsCurrentRead  = 0b00001000,    /* Unable to read current from INA219 device */
 197:main.c        ****     fsChecksum     = 0b00010000,    /* Too many checksum faults */
 198:main.c        ****     fsX2           = 0b00100000,    /* */
 199:main.c        ****     fsX3           = 0b01000000,    /* */
 200:main.c        ****     fsX4           = 0b10000000     /* */
 201:main.c        **** } FaultStates_t;
ARM GAS  C:\Users\PRICHA~1\AppData\Local\Temp\cctE1isk.s 			page 5


 202:main.c        **** 
 203:main.c        **** volatile ConfigStates_t ConfigState;
 204:main.c        **** volatile uint8 FaultState;
 205:main.c        **** volatile uint8 ConfigSequence;
 206:main.c        **** volatile uint16 ChecksumErrors;
 207:main.c        **** volatile int16 Current;
 208:main.c        **** volatile float PWM;
 209:main.c        **** uint8 CurrentI2Cinbuf[20];
 210:main.c        **** 
 211:main.c        **** /* Task stack information */
 212:main.c        **** volatile UBaseType_t uxHighWaterMark_PID;
 213:main.c        **** volatile UBaseType_t uxHighWaterMark_Current;
 214:main.c        **** volatile UBaseType_t uxHighWaterMark_Comm;
 215:main.c        **** 
 216:main.c        **** /* Message buffer lock */
 217:main.c        **** SemaphoreHandle_t Lock;
 218:main.c        **** 
 219:main.c        **** /* --------------------------------------------------------------------- 
 220:main.c        ****  * SPI MESSAGING
 221:main.c        ****  * --------------------------------------------------------------------- */
 222:main.c        **** /* V2 protocol 
 223:main.c        **** 
 224:main.c        ****    1) Messages have opcodes (configuration, position, get status)
 225:main.c        ****    2) Messages are validated by a checksum instead of an arbitrary signature pattern.
 226:main.c        ****    3) Transfer the max message size every time, regardless of all bytes used or not.
 227:main.c        **** */
 228:main.c        ****     
 229:main.c        **** /* Set this to match the size of the status response message, 18 bytes */    
 230:main.c        **** #define MAX_MESSAGE_SIZE 30
 231:main.c        ****     
 232:main.c        **** /* Remember the last time a message came in so we can timeout moves if the node box stops 
 233:main.c        ****    talking.  1000 ticks is 1 second of not talking. */
 234:main.c        **** #define MAX_LAST_MESSAGE_TIME_TICKS 1000
 235:main.c        **** uint32 LastMessageTimeTick;
 236:main.c        **** 
 237:main.c        **** /* Opcodes that can come from the node box software */
 238:main.c        **** typedef enum {
 239:main.c        ****     opUNDEFINED = 0,
 240:main.c        ****     opConfig    = 1,
 241:main.c        ****     opStatus    = 2,
 242:main.c        ****     opError     = 3,
 243:main.c        ****     opMAX       
 244:main.c        **** } rxMessage_opcodes_t;    
 245:main.c        **** 
 246:main.c        **** /* Sanity check for opcodes */
 247:main.c        **** #define rxMessageOpcodeValid(op) ( ((rxMessage_opcodes_t) op > opUNDEFINED) && ((rxMessage_opcodes_
 248:main.c        **** 
 249:main.c        **** typedef struct { 
 250:main.c        ****     uint8 checksum;        
 251:main.c        ****     uint8 size;       /* Size of the message bytes, including opcode and size and checksum */
 252:main.c        ****     uint8 opcode;     /* Operation (generic overlay for previewing opcode value) */
 253:main.c        **** } __attribute__ ((__packed__)) rxMessage_overlay_t;
 254:main.c        **** 
 255:main.c        **** /* Configuration message, 18 bytes */
 256:main.c        **** typedef struct {
 257:main.c        ****     uint8 checksum;        
 258:main.c        ****     uint8 size;       /* Size of the message bytes, including opcode and size and checksum */
ARM GAS  C:\Users\PRICHA~1\AppData\Local\Temp\cctE1isk.s 			page 6


 259:main.c        ****     uint8 opcode;     /* Operation: 01 == config */        
 260:main.c        ****     uint8 sequence;   /* Configuration message sequence number */
 261:main.c        ****     float Kp;         /* PID constants to be used in calculation */
 262:main.c        ****     float Ki;
 263:main.c        ****     float Kd;
 264:main.c        ****     uint8 limit_Total;/* Total drive output limit, +/- percentage */
 265:main.c        ****     uint8 limit_ITerm;/* PID I term output limit, also +/- percentage */
 266:main.c        **** } __attribute__ ((__packed__)) rxMessage_config_t;
 267:main.c        **** 
 268:main.c        **** /* Status message, contains desired position and such values, 12 bytes */
 269:main.c        **** typedef struct {
 270:main.c        ****     uint8  checksum;        
 271:main.c        ****     uint8  size;       /* Size of the message bytes, including opcode and size and checksum */
 272:main.c        ****     uint8  opcode;     /* Operation: 02 == status */
 273:main.c        ****     uint8  enable;     /* Enable/disable PID algorithm */
 274:main.c        ****     uint32 setpoint;   /* Setpoint (desired actuator position) */
 275:main.c        ****     int8   jog;        /* Jog value, to manually move the motor; valid range -100 to 100 */ 
 276:main.c        ****     uint8  clearfaults;/* Set to nonzero to clear all the current faults */
 277:main.c        **** } __attribute__ ((__packed__)) rxMessage_status_t;
 278:main.c        ****    
 279:main.c        **** 
 280:main.c        **** 
 281:main.c        **** /* Wrap the message with an array of bytes */
 282:main.c        **** union {
 283:main.c        ****     uint8               buf[MAX_MESSAGE_SIZE];
 284:main.c        ****     rxMessage_overlay_t overlay;
 285:main.c        ****     rxMessage_config_t  config;
 286:main.c        ****     rxMessage_status_t  status;  
 287:main.c        **** } rxMessage;
 288:main.c        **** 
 289:main.c        **** /* Message back to the BBB, watch out for alignment here by packing the structure (should be 18 byt
 290:main.c        **** typedef struct  {  
 291:main.c        ****     uint8  checksum;   /* Message checksum */    
 292:main.c        ****     uint8  version0;   /* Version byte 0 */ 
 293:main.c        ****     uint8  version1;   /* Version byte 1 */
 294:main.c        ****     uint8  version2;   /* Version byte 2 */
 295:main.c        ****     uint8  size;       /* Size of the message bytes, including opcode and size and checksum */
 296:main.c        ****     uint8  opcode;     /* Echo back of the opcode this response is for, operation: 02 == status */
 297:main.c        ****     uint8  state;      /* Enum value for current device configuration state */ 
 298:main.c        ****     uint8  fault;      /* Bit encoded fields for current fault status */
 299:main.c        ****     uint8  sequence;   /* Echo back the config sequence number currently set */
 300:main.c        ****     uint16 checksum_errors; /* Count of checksum errors */
 301:main.c        ****     int16 current;     /* Motor current consumption (mA) */
 302:main.c        ****     int32 position;    /* Actual actuator position, signed value */ 
 303:main.c        ****     float pwm;         /* PWM value the motor is moving at */     
 304:main.c        **** } __attribute__ ((__packed__)) txMessage_t;
 305:main.c        **** 
 306:main.c        **** /* Wrap the message with an array of bytes */
 307:main.c        **** union {    
 308:main.c        ****     uint8       buf[MAX_MESSAGE_SIZE];
 309:main.c        ****     txMessage_t msg;
 310:main.c        **** } txMessage;
 311:main.c        **** 
 312:main.c        **** /* State machine definition for transmit side of messaging */
 313:main.c        **** typedef enum {
 314:main.c        ****     txmsClear,    /* Transmit message buffer is empty and needs loading */
 315:main.c        ****     txmsLoaded    /* Transmit message buffer has been loaded by the message thread for sending */
ARM GAS  C:\Users\PRICHA~1\AppData\Local\Temp\cctE1isk.s 			page 7


 316:main.c        **** } txMessageStates_t;
 317:main.c        **** 
 318:main.c        **** txMessageStates_t txMessageState;
 319:main.c        **** 
 320:main.c        **** 
 321:main.c        **** /******************************************************************************/
 322:main.c        **** /* Function prototypes */
 323:main.c        **** int32 GetPosition(void);
 324:main.c        **** /******************************************************************************/
 325:main.c        **** 
 326:main.c        **** 
 327:main.c        **** 
 328:main.c        **** /*******************************************************************************
 329:main.c        **** * Function Name: setupFreeRTOS
 330:main.c        **** ********************************************************************************
 331:main.c        **** * Summary:
 332:main.c        **** *  Hooks the tick and service handlers for the RTOS at runtime.
 333:main.c        **** *
 334:main.c        **** * Parameters: None
 335:main.c        **** * Return: None
 336:main.c        **** *******************************************************************************/
 337:main.c        **** 
 338:main.c        **** extern void xPortPendSVHandler(void);
 339:main.c        **** extern void xPortSysTickHandler(void);
 340:main.c        **** extern void vPortSVCHandler(void);
 341:main.c        **** 
 342:main.c        **** void setupFreeRTOS(void) {
 343:main.c        **** #define CORTEX_INTERRUPT_BASE (16)
 344:main.c        ****     
 345:main.c        ****     /* Handler for Cortex Supervisor Call (SVC, formerly SWI) - address 11 */
 346:main.c        ****     CyIntSetSysVector( CORTEX_INTERRUPT_BASE + SVCall_IRQn, (cyisraddress)vPortSVCHandler );
 347:main.c        ****     
 348:main.c        ****     /* Handler for Cortex PendSV Call - address 14 */
 349:main.c        ****     CyIntSetSysVector( CORTEX_INTERRUPT_BASE + PendSV_IRQn, (cyisraddress)xPortPendSVHandler );    
 350:main.c        ****     
 351:main.c        ****     /* Handler for Cortex SYSTICK - address 15 */
 352:main.c        ****     CyIntSetSysVector( CORTEX_INTERRUPT_BASE + SysTick_IRQn, (cyisraddress)xPortSysTickHandler );
 353:main.c        **** }
 354:main.c        **** 
 355:main.c        **** 
 356:main.c        **** /*******************************************************************************
 357:main.c        **** * Function Name: AssertFault
 358:main.c        **** ********************************************************************************
 359:main.c        **** * Summary:
 360:main.c        **** *  Sets a flag that a particular fault has been detected.  Assert fsNONE to clear
 361:main.c        **** *  all faults.
 362:main.c        **** *
 363:main.c        **** * Parameters: FaultStates_t of the fault detected.
 364:main.c        **** * Return: None
 365:main.c        **** *******************************************************************************/
 366:main.c        **** void AssertFault(FaultStates_t fault) {
 367:main.c        ****  
 368:main.c        ****     switch (fault) {
 369:main.c        ****      
 370:main.c        ****         /* Clears all asserted faults */
 371:main.c        ****         case fsNONE:
 372:main.c        ****             FaultState = fsNONE;
ARM GAS  C:\Users\PRICHA~1\AppData\Local\Temp\cctE1isk.s 			page 8


 373:main.c        ****             break;        
 374:main.c        ****         
 375:main.c        ****         /* Any other fault has its bit turned on in the fault status */
 376:main.c        ****         default:
 377:main.c        ****             FaultState |= fault;
 378:main.c        ****             break;        
 379:main.c        ****     }    
 380:main.c        **** }
 381:main.c        **** 
 382:main.c        **** 
 383:main.c        **** /*******************************************************************************
 384:main.c        **** * Function Name: ClearFault
 385:main.c        **** ********************************************************************************
 386:main.c        **** * Summary:
 387:main.c        **** *  Clears a flag that a particular fault has been detected.  Assert fsNONE to clear
 388:main.c        **** *  all faults.
 389:main.c        **** *
 390:main.c        **** * Parameters: FaultStates_t of the fault to be cleared.
 391:main.c        **** * Return: None
 392:main.c        **** *******************************************************************************/
 393:main.c        **** void ClearFault(FaultStates_t fault) {
 394:main.c        ****  
 395:main.c        ****     switch (fault) {
 396:main.c        ****      
 397:main.c        ****         /* Clears all asserted faults */
 398:main.c        ****         case fsNONE:
 399:main.c        ****             FaultState = fsNONE;
 400:main.c        ****             break;        
 401:main.c        ****         
 402:main.c        ****         /* Any other fault has its bit turned off in the fault status */
 403:main.c        ****         default:
 404:main.c        ****             FaultState &= ~fault;
 405:main.c        ****             break;        
 406:main.c        ****     }    
 407:main.c        **** }
 408:main.c        **** 
 409:main.c        **** 
 410:main.c        **** /*******************************************************************************
 411:main.c        **** * Function Name: Current_Read_Task
 412:main.c        **** ********************************************************************************
 413:main.c        **** * Summary:
 414:main.c        **** *  RTOS task to read the motor current consumption.
 415:main.c        **** *
 416:main.c        **** * Parameters: None
 417:main.c        **** * Return: None
 418:main.c        **** *******************************************************************************/
 419:main.c        **** void Current_Read_Task(void *arg) {
 420:main.c        ****     
 421:main.c        ****     volatile uint32 err;
 422:main.c        ****     uint8 byteMSB;
 423:main.c        ****     uint8 byteLSB;
 424:main.c        ****     volatile int16 CurrentTemp;
 425:main.c        ****     
 426:main.c        ****     
 427:main.c        ****     /* Initial high water mark reading */
 428:main.c        ****     uxHighWaterMark_Current = uxTaskGetStackHighWaterMark( NULL );
 429:main.c        ****     
ARM GAS  C:\Users\PRICHA~1\AppData\Local\Temp\cctE1isk.s 			page 9


 430:main.c        ****     //TODO Init_INA(INA219_I2C_ADDR);
 431:main.c        ****     
 432:main.c        ****     while (1) {
 433:main.c        **** 
 434:main.c        ****         //TODO CurrentTemp = getCurrent_raw(INA219_I2C_ADDR);
 435:main.c        ****         
 436:main.c        ****         err = I2C_I2CMasterSendStart(INA219_I2C_ADDR, 0x00, 10); // send start condition for the IN
 437:main.c        ****         if (err == I2C_I2C_MSTR_NO_ERROR) {
 438:main.c        ****             
 439:main.c        ****             I2C_I2CMasterWriteByte(INA219_REG_CALIBRATION, 10);
 440:main.c        ****             
 441:main.c        ****             byteMSB = (uint8)((INA219_CAL_VALUE & 0xFF00) >> 8);
 442:main.c        ****             I2C_I2CMasterWriteByte(byteMSB, 10);
 443:main.c        ****             
 444:main.c        ****             byteLSB = (uint8)(INA219_CAL_VALUE & 0x00FF);
 445:main.c        ****             I2C_I2CMasterWriteByte(byteLSB, 10);
 446:main.c        ****             I2C_I2CMasterSendStop(10);
 447:main.c        ****             
 448:main.c        ****         } else {
 449:main.c        ****             Current = 0;
 450:main.c        ****             AssertFault(fsCurrentRead);
 451:main.c        ****         }
 452:main.c        ****         
 453:main.c        ****         err = I2C_I2CMasterSendStart(INA219_I2C_ADDR, 0x00, 10); // send start condition for the IN
 454:main.c        ****         if (err == I2C_I2C_MSTR_NO_ERROR) {
 455:main.c        ****             
 456:main.c        ****             I2C_I2CMasterWriteByte(INA219_REG_CURRENT, 10);
 457:main.c        ****             I2C_I2CMasterSendStop(10);
 458:main.c        ****             
 459:main.c        ****             /* Read back the value for the current usage */
 460:main.c        ****             err = I2C_I2CMasterReadBuf(INA219_I2C_ADDR, CurrentI2Cinbuf, 5, 1);
 461:main.c        ****             
 462:main.c        ****             /* Reassemble the current value into a signed 16 bit value */
 463:main.c        ****             if (err == I2C_I2C_MSTR_NO_ERROR) {
 464:main.c        ****                 CurrentTemp = (int16)(CurrentI2Cinbuf[0] << 8) + CurrentI2Cinbuf[1];
 465:main.c        ****             } else {
 466:main.c        ****                 CurrentTemp = 0;   
 467:main.c        ****                 AssertFault(fsCurrentRead);
 468:main.c        ****             }
 469:main.c        ****         } else {
 470:main.c        ****             CurrentTemp = 0; 
 471:main.c        ****             AssertFault(fsCurrentRead);
 472:main.c        ****         }
 473:main.c        **** 
 474:main.c        ****         /* Perform the assignment as one operation, to make it as atomic as possible (may need more
 475:main.c        ****         Current = CurrentTemp;
 476:main.c        **** 
 477:main.c        ****         /* Read the current at 2Hz */        
 478:main.c        ****         Sleep(500);
 479:main.c        ****         
 480:main.c        ****         /* Get our task stack usage high water mark */    
 481:main.c        ****         uxHighWaterMark_Current = uxTaskGetStackHighWaterMark( NULL );
 482:main.c        ****     }
 483:main.c        ****    
 484:main.c        **** }
 485:main.c        **** 
 486:main.c        **** /*******************************************************************************
ARM GAS  C:\Users\PRICHA~1\AppData\Local\Temp\cctE1isk.s 			page 10


 487:main.c        **** * Function Name: Comm_Task
 488:main.c        **** ********************************************************************************
 489:main.c        **** * Summary:
 490:main.c        **** *  RTOS task to perform the SPI communications.
 491:main.c        **** *
 492:main.c        **** * Parameters: None
 493:main.c        **** * Return: None
 494:main.c        **** *******************************************************************************/
 495:main.c        **** void Comm_Task(void *arg) {
 496:main.c        ****  
 497:main.c        ****     rxMessage_opcodes_t opcode;
 498:main.c        ****     uint8 size;
 499:main.c        ****     uint8 i;
 500:main.c        ****     uint8 checksum;
 501:main.c        ****     uint8 limit;    
 502:main.c        ****     
 503:main.c        ****     /* Initial high water mark reading */
 504:main.c        ****     uxHighWaterMark_Comm = uxTaskGetStackHighWaterMark( NULL );  
 505:main.c        ****     
 506:main.c        ****     while (1) {
 507:main.c        ****         //PROBE_Write(1);
 508:main.c        ****         
 509:main.c        ****         /* If the SPI is moving data out right now, skip any touching of the message buffer */
 510:main.c        ****         if (!SPI_1_SpiIsBusBusy()) {
 511:main.c        ****         
 512:main.c        ****             /* In certain states, this thread is responsible for loading the outbound messaging */
 513:main.c        ****             switch (txMessageState) {
 514:main.c        ****              
 515:main.c        ****                 /* Output buffer is clear and ready for loading, rxMessage is (probably) good and n
 516:main.c        ****                 case txmsClear:
 517:main.c        **** 
 518:main.c        ****                     /* Take the lock, set the fields, and release the lock.  If we can't get the lo
 519:main.c        ****                        we have missed this messaging cycle have to skip it.
 520:main.c        ****                        2018-12-18 PMR: At the moment, this is the only task taking the lock so it w
 521:main.c        ****                                        Sometime in the future we might need the lock so I am leavin
 522:main.c        ****                     */
 523:main.c        ****                     if( xSemaphoreTake( Lock, ( TickType_t ) 4 ) == pdTRUE ) {
 524:main.c        ****                         
 525:main.c        ****                         /* Get a few items out of the message before checking the sum */
 526:main.c        ****                         size     = rxMessage.overlay.size;
 527:main.c        ****                         opcode   = (rxMessage_opcodes_t) rxMessage.overlay.opcode;
 528:main.c        ****                         
 529:main.c        ****                         /* Make sure the size makes sense.  If we have to reset the size it's proba
 530:main.c        ****                         if (size > sizeof(txMessage.buf))
 531:main.c        ****                             size = sizeof(txMessage.buf);                            
 532:main.c        ****                     
 533:main.c        ****                         /* Calculate the checksum by summing the bytes of the entire message, it sh
 534:main.c        ****                         for (i = 0, checksum = 0; i < size; i++)
 535:main.c        ****                             checksum += rxMessage.buf[i]; 
 536:main.c        **** 
 537:main.c        ****                         /* Checksum fault, don't try to process the messgage */
 538:main.c        ****                         if ((checksum & 0xFF) != 0) {
 539:main.c        ****                             
 540:main.c        ****                             txMessage.msg.opcode = opcode;
 541:main.c        ****                             txMessage.msg.size = sizeof(txMessage_t);
 542:main.c        ****                             ChecksumErrors++;
 543:main.c        ****                             
ARM GAS  C:\Users\PRICHA~1\AppData\Local\Temp\cctE1isk.s 			page 11


 544:main.c        ****                         /* Message looks fine, process it */
 545:main.c        ****                         } else {
 546:main.c        **** 
 547:main.c        ****                             /* Message opcode must be valid before trying to process the message co
 548:main.c        ****                             if ( rxMessageOpcodeValid(opcode) ) {                            
 549:main.c        ****                             
 550:main.c        ****                                 switch (opcode) {
 551:main.c        ****                                 
 552:main.c        ****                                     case opConfig:
 553:main.c        ****                                         /* Special message to establish settings on the device such
 554:main.c        ****                                     
 555:main.c        ****                                         /* Update the 'reference' values passed down from the serve
 556:main.c        ****                                            values are time interval adjusted */
 557:main.c        ****                                         refKp = rxMessage.config.Kp;
 558:main.c        ****                                         refKi = rxMessage.config.Ki;
 559:main.c        ****                                         refKd = rxMessage.config.Kd;                               
 560:main.c        ****                                            
 561:main.c        ****                                         /* Setup the output limits and stop a jog if one was in pro
 562:main.c        ****                                         Jog = 0;
 563:main.c        ****                                     
 564:main.c        ****                                         /* Clip the limits to 100% duty cycle */
 565:main.c        ****                                         limit = rxMessage.config.limit_Total;
 566:main.c        ****                                         if (limit > 100)
 567:main.c        ****                                             limit = 100;
 568:main.c        ****                                     
 569:main.c        ****                                         outMax_Total = limit;                                      
 570:main.c        ****                                         
 571:main.c        ****                                         limit = rxMessage.config.limit_ITerm;                      
 572:main.c        ****                                         if (limit > 100)
 573:main.c        ****                                             limit = 100;
 574:main.c        ****                                         
 575:main.c        ****                                         outMax_ITerm = limit;
 576:main.c        ****                                         
 577:main.c        ****                                         /* Convert the configured output maximum also into a PWM va
 578:main.c        ****                                         could be set from manual control of the PWM.  
 579:main.c        **** 
 580:main.c        ****                                         outMax_Total ranges from 0 to 100% of power delivery, which
 581:main.c        ****                                         convert it into a value symmetrically above and below the "
 582:main.c        ****                                         point value of 50 */    
 583:main.c        ****                                         pwmLimit = (outMax_Total/100 * 50);
 584:main.c        ****                                         pwmMax = 50 + pwmLimit;
 585:main.c        ****                                         pwmMin = 50 - pwmLimit;
 586:main.c        ****                                     
 587:main.c        ****                                         /* We have received a config message, so signal to the PID 
 588:main.c        ****                                         ConfigState = csReady;  
 589:main.c        ****                                         ConfigSequence = rxMessage.config.sequence;
 590:main.c        ****                                     
 591:main.c        ****                                         /* Clear all the faults when reconfigured */
 592:main.c        ****                                         ClearFault(fsNONE);
 593:main.c        ****                                         break;
 594:main.c        **** 
 595:main.c        ****                                     case opStatus:
 596:main.c        ****                                         /* The normal message telling us where to go, how much to j
 597:main.c        ****                                         PID_Enabled = (bool) rxMessage.status.enable;
 598:main.c        ****                                         
 599:main.c        ****                                         /* If we are commanded to move somewhere else, remember whe
 600:main.c        ****                                         if (PID_Setpoint != rxMessage.status.setpoint) {
ARM GAS  C:\Users\PRICHA~1\AppData\Local\Temp\cctE1isk.s 			page 12


 601:main.c        ****                                             
 602:main.c        ****                                             /* Remember where we started */
 603:main.c        ****                                             LastPosition = GetPosition();
 604:main.c        ****                                             
 605:main.c        ****                                             /* Update destination */
 606:main.c        ****                                             PID_Setpoint = rxMessage.status.setpoint;
 607:main.c        ****                                             
 608:main.c        ****                                             /* Reset counting of index marks */
 609:main.c        ****                                             Index_Counter_1_WriteCounter(0);
 610:main.c        ****                                         }                                        
 611:main.c        ****                                     
 612:main.c        ****                                         /* PWM jog value ranges from -50 to 50, where -50 is max-re
 613:main.c        ****                                         Jog = rxMessage.status.jog;                                
 614:main.c        ****                                         break;
 615:main.c        ****                                     
 616:main.c        ****                                     /* No other opcodes are valid */
 617:main.c        ****                                     default:
 618:main.c        ****                                         break;
 619:main.c        ****                                 }                           
 620:main.c        ****                             }                            
 621:main.c        ****                         }
 622:main.c        ****                         
 623:main.c        ****                         /* Get a fresh copy of the position information */
 624:main.c        ****                         Position = GetPosition();
 625:main.c        ****                         
 626:main.c        ****                         /* Fill out the common reponse the same way every time, as a status respons
 627:main.c        ****                         txMessage.msg.checksum = 0;
 628:main.c        ****                         txMessage.msg.version0 = FIRMWARE_REV_0;
 629:main.c        ****                         txMessage.msg.version1 = FIRMWARE_REV_1;
 630:main.c        ****                         txMessage.msg.version2 = FIRMWARE_REV_2;
 631:main.c        ****                         txMessage.msg.size     = sizeof(txMessage_t);
 632:main.c        ****                         txMessage.msg.opcode   = opStatus;
 633:main.c        ****                         txMessage.msg.state    = (uint8) ConfigState;
 634:main.c        ****                         txMessage.msg.fault    = (uint8) FaultState;
 635:main.c        ****                         txMessage.msg.checksum_errors = ChecksumErrors;
 636:main.c        ****                         txMessage.msg.sequence = ConfigSequence;
 637:main.c        ****                         txMessage.msg.position = Position;
 638:main.c        ****                         txMessage.msg.pwm      = PWM;
 639:main.c        ****                         txMessage.msg.current  = Current;                            
 640:main.c        ****                         
 641:main.c        ****                         /* Set the checksum in the response */
 642:main.c        ****                         for (i = 0, checksum = 0; i < sizeof(txMessage_t); i++)
 643:main.c        ****                             checksum += txMessage.buf[i]; 
 644:main.c        ****                             
 645:main.c        ****                         /* Take the 2's complement of the sum and put it back in the message */
 646:main.c        ****                         txMessage.msg.checksum = ~checksum + 1;
 647:main.c        ****                             
 648:main.c        ****                         /* Copy the readied buffer out to the FIFO */
 649:main.c        ****                         //TODO: should we clear this here, or at the end of the transmit complete i
 650:main.c        ****                         SPI_1_SpiUartPutArray(txMessage.buf, sizeof(txMessage.buf)); 
 651:main.c        **** 
 652:main.c        ****                         /* Indicate it's loaded for use */
 653:main.c        ****                         txMessageState = txmsLoaded;
 654:main.c        ****                         
 655:main.c        ****                         /* Clear all the faults if told to */
 656:main.c        ****                         if ((bool) rxMessage.status.clearfaults)
 657:main.c        ****                             ClearFault(fsNONE);
ARM GAS  C:\Users\PRICHA~1\AppData\Local\Temp\cctE1isk.s 			page 13


 658:main.c        ****                     
 659:main.c        ****                         /* Release the lock */
 660:main.c        ****                         xSemaphoreGive( Lock );
 661:main.c        ****                     }            
 662:main.c        ****                 
 663:main.c        ****                     break;
 664:main.c        ****             
 665:main.c        ****                 /* A message was already readied for transmission, nothing to do here */
 666:main.c        ****                 case txmsLoaded:
 667:main.c        ****                     
 668:main.c        ****                     break;
 669:main.c        ****             }
 670:main.c        ****             
 671:main.c        ****         }
 672:main.c        ****         
 673:main.c        ****         //PROBE_Write(0);
 674:main.c        ****         
 675:main.c        ****         /* Quick sleep, a whole messaging sequence will take maybe 1.5ms */
 676:main.c        ****         Sleep(1);
 677:main.c        ****         
 678:main.c        ****         /* Get our task stack usage high water mark */    
 679:main.c        ****         uxHighWaterMark_Comm = uxTaskGetStackHighWaterMark( NULL );
 680:main.c        ****     }
 681:main.c        **** }
 682:main.c        ****     
 683:main.c        **** 
 684:main.c        **** 
 685:main.c        **** 
 686:main.c        **** /*******************************************************************************
 687:main.c        **** * Function Name: PWM_Set
 688:main.c        **** ********************************************************************************
 689:main.c        **** * Summary:
 690:main.c        **** *  Sets the duty cycle of the PWM at the output pin.
 691:main.c        **** *
 692:main.c        **** * Parameters: Duty cycle, in percent.  A value of 50 is "neutral", values up 
 693:main.c        **** *             to 100 is forward drive, and below 50 down to 0 is backward drive.
 694:main.c        **** * Return: None
 695:main.c        **** *******************************************************************************/
 696:main.c        **** void PWM_Set(float dutycycle) {
 697:main.c        ****     
 698:main.c        ****     float drive = dutycycle;
 699:main.c        ****     
 700:main.c        ****     /* Clip to the max PWM drive +/- around 50 */
 701:main.c        ****     if (drive > pwmMax) {
 702:main.c        ****         drive = pwmMax;
 703:main.c        ****     } else if (drive < pwmMin) {
 704:main.c        ****         drive = pwmMin;
 705:main.c        ****     }
 706:main.c        ****     
 707:main.c        ****     PWM_1_WriteCompare(PWM_PCT_TO_COMPARE(drive));    
 708:main.c        **** }
 709:main.c        **** 
 710:main.c        **** /*******************************************************************************
 711:main.c        **** * Function Name: GetPosition
 712:main.c        **** ********************************************************************************
 713:main.c        **** * Summary:
 714:main.c        **** *  Get the physical position value and compensate for negative locations.
ARM GAS  C:\Users\PRICHA~1\AppData\Local\Temp\cctE1isk.s 			page 14


 715:main.c        **** *
 716:main.c        **** * Parameters: None
 717:main.c        **** * Return: int32 (signed!) position value
 718:main.c        **** *******************************************************************************/
 719:main.c        **** int32 GetPosition(void) {
 720:main.c        ****     
 721:main.c        ****     uint32 RawPosition;
 722:main.c        ****     int32 result;
 723:main.c        ****     
 724:main.c        ****     /* Get up-to-date position from the 24 bit unsigned counter*/
 725:main.c        ****     RawPosition = Counter_1_ReadCounter();   
 726:main.c        ****     
 727:main.c        ****     /* If the raw position is higher than some extremely high number, treat it as 
 728:main.c        ****        underflow and make that into a negative value */
 729:main.c        ****     if (RawPosition > ENCODER_NEGATIVE_BOUNDARY) {
 730:main.c        ****         
 731:main.c        ****         result = (int32) ((-1) * (ENCODER_MAX - RawPosition));
 732:main.c        ****         
 733:main.c        ****     } else {
 734:main.c        ****      
 735:main.c        ****         /* Value is "positive", treat it normally */
 736:main.c        ****         result = (int32) RawPosition;
 737:main.c        ****     }
 738:main.c        ****     
 739:main.c        ****     /* Update the master copy of position information */
 740:main.c        ****     Position = result;
 741:main.c        ****     return result;
 742:main.c        **** }
 743:main.c        **** 
 744:main.c        **** 
 745:main.c        **** 
 746:main.c        **** /*******************************************************************************
 747:main.c        **** * Function Name: PID_Initialize
 748:main.c        **** ********************************************************************************
 749:main.c        **** * Summary:
 750:main.c        **** *  Setup and reset the PID terms.
 751:main.c        **** *
 752:main.c        **** * Parameters: None
 753:main.c        **** * Return: None
 754:main.c        **** *******************************************************************************/
 755:main.c        **** void PID_Initialize(void) {
 756:main.c        ****     
 757:main.c        ****     /* Get up-to-date position */
 758:main.c        ****     Position = GetPosition();
 759:main.c        ****     LastPosition = Position;
 760:main.c        ****     
 761:main.c        ****     /* 2019-03-13 PMR: Init to zero instead of the output value, since we are not
 762:main.c        ****        switching from manual to auto frequently */
 763:main.c        ****     ITerm = 0;
 764:main.c        **** }    
 765:main.c        **** 
 766:main.c        **** 
 767:main.c        **** /*******************************************************************************
 768:main.c        **** * Function Name: PID_SetTunings
 769:main.c        **** ********************************************************************************
 770:main.c        **** * Summary:
 771:main.c        **** *  Setup the p, i, and d gain values and scale to the sample time.
ARM GAS  C:\Users\PRICHA~1\AppData\Local\Temp\cctE1isk.s 			page 15


 772:main.c        **** *
 773:main.c        **** * Parameters: Sample time in ms, and Kp, Ki, Kd gains.
 774:main.c        **** * Return: None
 775:main.c        **** *******************************************************************************/
 776:main.c        **** void PID_SetTunings(uint32 newSampleTime, float newKp, float newKi, float newKd) {
 777:main.c        ****     
 778:main.c        ****     if (newSampleTime > 0) {
 779:main.c        ****     
 780:main.c        ****         float sampleTimeInSec = ((float) newSampleTime) / 1000;
 781:main.c        ****     
 782:main.c        ****         kp = newKp;
 783:main.c        ****         ki = newKi * sampleTimeInSec;
 784:main.c        ****         kd = newKd / sampleTimeInSec;        
 785:main.c        ****     }
 786:main.c        **** }
 787:main.c        **** 
 788:main.c        **** 
 789:main.c        **** /*******************************************************************************
 790:main.c        **** * Function Name: PID_Compute
 791:main.c        **** ********************************************************************************
 792:main.c        **** * Summary:
 793:main.c        **** *  Execute a pass through the PID process to create a duty cycle output.
 794:main.c        **** *
 795:main.c        **** * Parameters: Current time and current destination.
 796:main.c        **** * Return: PWM output, in percentage.
 797:main.c        **** *******************************************************************************/
 798:main.c        **** float PID_Compute(uint32 now, uint32 setpoint) {
 799:main.c        ****     
 800:main.c        ****     int32 error, dPosition;
 801:main.c        ****     uint32 timeChange;
 802:main.c        ****         
 803:main.c        ****     if(!inAuto) 
 804:main.c        ****         return 0;
 805:main.c        ****     
 806:main.c        ****     /* Get most up-to-date current position */
 807:main.c        ****     Position = GetPosition();
 808:main.c        **** 
 809:main.c        ****     /* How much time has elapsed since the last pass? */
 810:main.c        ****     timeChange = (now - lastTime);
 811:main.c        ****     
 812:main.c        ****     /* Only do the PID calc if at LEAST 5ms has elapsed */
 813:main.c        ****     if (timeChange >= refSampleTime) {
 814:main.c        **** 
 815:main.c        ****         /* Adjust the gains to the most recent sampling time.  Do it continuously to make sure the 
 816:main.c        ****            in case the cycle runs longer than the normal 5ms. */
 817:main.c        ****         PID_SetTunings(timeChange, refKp, refKi, refKd);
 818:main.c        ****         
 819:main.c        ****         /* Compute all the working error variables */
 820:main.c        ****         error = setpoint - Position;
 821:main.c        ****         ITerm += (ki * error);
 822:main.c        ****         
 823:main.c        ****         /* Clip the I term at a max value for just that term (windup guard) */
 824:main.c        ****         if (ITerm > outMax_ITerm) {
 825:main.c        ****             ITerm = outMax_ITerm;
 826:main.c        ****         } else if (ITerm < -outMax_ITerm) {
 827:main.c        ****             ITerm = -outMax_ITerm;
 828:main.c        ****         }
ARM GAS  C:\Users\PRICHA~1\AppData\Local\Temp\cctE1isk.s 			page 16


 829:main.c        ****         
 830:main.c        ****         /* Calculate the error term */
 831:main.c        ****         dPosition = (Position - LastPosition);
 832:main.c        **** 
 833:main.c        ****         /* Compute PID Output */
 834:main.c        ****         Output = (kp * error) + ITerm - (kd * dPosition);
 835:main.c        ****         
 836:main.c        ****         /* Clip the output */
 837:main.c        ****         if (Output> outMax_Total) {
 838:main.c        ****             Output = outMax_Total;
 839:main.c        ****         } else if (Output < -outMax_Total) {
 840:main.c        ****             Output = -outMax_Total;
 841:main.c        ****         }
 842:main.c        **** 
 843:main.c        ****         /* Remember some variables for next time */
 844:main.c        ****         LastPosition = Position;
 845:main.c        ****         lastTime = now;        
 846:main.c        ****     }
 847:main.c        ****     
 848:main.c        ****     return Output;    
 849:main.c        **** }
 850:main.c        ****  
 851:main.c        **** /*******************************************************************************
 852:main.c        **** * Function Name: PID_SetMode
 853:main.c        **** ********************************************************************************
 854:main.c        **** * Summary:
 855:main.c        **** *  Sets the PID into automatic or manual mode.
 856:main.c        **** *
 857:main.c        **** * Parameters: Mode, either PID_AUTOMATIC or PID_MANUAL.
 858:main.c        **** * Return: None
 859:main.c        **** *******************************************************************************/
 860:main.c        **** void PID_SetMode(uint32 Mode) {
 861:main.c        ****     
 862:main.c        ****     bool newAuto = (Mode == PID_AUTOMATIC);
 863:main.c        ****     
 864:main.c        ****     if (newAuto && !inAuto) {  
 865:main.c        ****         /*we just went from manual to auto*/
 866:main.c        ****         PID_Initialize();
 867:main.c        ****     }
 868:main.c        ****     
 869:main.c        ****     inAuto = newAuto;
 870:main.c        **** } 
 871:main.c        ****     
 872:main.c        **** /*******************************************************************************
 873:main.c        **** * Function Name: PID_SetDrive
 874:main.c        **** ********************************************************************************
 875:main.c        **** * Summary:
 876:main.c        **** *  Convert the output of PID into a duty cycle for use on the PWM.
 877:main.c        **** *
 878:main.c        **** * Parameters: Percentage output to drive the PWM.
 879:main.c        **** * Return: None
 880:main.c        **** *******************************************************************************/
 881:main.c        **** void PID_SetDrive(float percent) {
 882:main.c        **** 
 883:main.c        ****     /* Valid percentage range coming out of the PID algorithm is -100.0 to +100.0 
 884:main.c        ****        which needs to be translated into a duty cycle value of 0.0 to 100.0 */
 885:main.c        ****     float dutycycle = (percent + 100) / 2;    
ARM GAS  C:\Users\PRICHA~1\AppData\Local\Temp\cctE1isk.s 			page 17


 886:main.c        ****     
 887:main.c        ****     /* The duty cycle can now be written to the PWM device itself */
 888:main.c        ****     PWM_Set(dutycycle);  
 889:main.c        **** }
 890:main.c        **** 
 891:main.c        **** 
 892:main.c        **** 
 893:main.c        **** 
 894:main.c        **** /*******************************************************************************
 895:main.c        **** * Function Name: PID_Task
 896:main.c        **** ********************************************************************************
 897:main.c        **** * Summary:
 898:main.c        **** *  RTOS task to perform the PID calculations.
 899:main.c        **** *
 900:main.c        **** * Parameters: None
 901:main.c        **** * Return: None
 902:main.c        **** *******************************************************************************/
 903:main.c        **** void PID_Task(void *arg) {
 904:main.c        ****     
 905:main.c        ****     /* Sleep this thread 5ms at a time */
 906:main.c        ****     uint32 sleeptime = 5;    
 907:main.c        ****     uint32 now;
 908:main.c        ****     float percent; 
 909:main.c        ****     int32 CurrentPosition, DeltaPosition;
 910:main.c        ****     uint32 CurrentIndexCount;
 911:main.c        ****     
 912:main.c        ****     /* Initial high water mark reading */
 913:main.c        ****     uxHighWaterMark_PID = uxTaskGetStackHighWaterMark( NULL );
 914:main.c        ****     
 915:main.c        ****     /* Initial values */
 916:main.c        **** 
 917:main.c        ****     /* These are the 'reference' values passed down from the server, not to be used in-the-raw beca
 918:main.c        ****        values are time interval adjusted */
 919:main.c        ****     refKp = 0;
 920:main.c        ****     refKi = 0;
 921:main.c        ****     refKd = 0;
 922:main.c        ****     
 923:main.c        ****     /* Setup the PID subsystem */
 924:main.c        ****     PID_Initialize();
 925:main.c        ****     PID_SetTunings(sleeptime, refKp, refKi, refKd);    
 926:main.c        ****     PID_SetMode(PID_MANUAL);
 927:main.c        ****     
 928:main.c        ****     /* Initially default to 100% output max until config tells us otherwise */
 929:main.c        ****     outMax_Total = 100;
 930:main.c        ****     outMax_ITerm = 100;
 931:main.c        **** 
 932:main.c        ****     /* Init the PWM limits the same way, full maximums */
 933:main.c        ****     pwmLimit = 50;   // This is a + or - value
 934:main.c        ****     pwmMax = PWM_JOG_NEUTRAL + pwmLimit;
 935:main.c        ****     pwmMin = PWM_JOG_NEUTRAL - pwmLimit;    
 936:main.c        ****     
 937:main.c        ****     /* Start counting time at 0ms */
 938:main.c        ****     now = 0;
 939:main.c        ****     
 940:main.c        ****     /* Start off disabled */
 941:main.c        ****     PID_Setpoint = 0;  
 942:main.c        ****     PID_Was_Enabled = false;
ARM GAS  C:\Users\PRICHA~1\AppData\Local\Temp\cctE1isk.s 			page 18


 943:main.c        ****     PID_Enabled = false;
 944:main.c        ****     
 945:main.c        ****     while (1) {
 946:main.c        ****         
 947:main.c        ****         PROBE_Write(1);
 948:main.c        ****               
 949:main.c        ****         /* ------------------------------------------------------------------------------------ */
 950:main.c        ****         /* At the top of the PID loop, refresh the counter of the watchdog to indicate the RTOS 
 951:main.c        ****            thread is still alive.  Were the RTOS to crash or the motion thread to die, the CPU 
 952:main.c        ****            will be reset after 2 seconds. */
 953:main.c        ****         WDT_COUNT1_REFRESH();        
 954:main.c        ****         /* ------------------------------------------------------------------------------------ */
 955:main.c        **** 
 956:main.c        ****         
 957:main.c        ****         /* If the server hasn't talked to us in a while (no messages on the SPI), 
 958:main.c        ****            take preventative action and abandon any moves in progress.  When the uint32
 959:main.c        ****            overflows, "now" will be (temporarily) less than the last timestamped message,
 960:main.c        ****            so handle that too */
 961:main.c        ****         now = xTaskGetTickCount();
 962:main.c        ****         if ( (now > (LastMessageTimeTick + MAX_LAST_MESSAGE_TIME_TICKS)) ||
 963:main.c        ****              (now < LastMessageTimeTick) ) {
 964:main.c        ****             
 965:main.c        ****             /* Stop all motion */
 966:main.c        ****             PWM_Set(PWM_JOG_NEUTRAL);
 967:main.c        ****             PID_Enabled = false;
 968:main.c        ****             
 969:main.c        ****             /* Clear the values that would drive motion on the next message arrival.  Assume the ne
 970:main.c        ****                in which case we want to be neutral. */
 971:main.c        ****             Jog = 0;
 972:main.c        **** 
 973:main.c        ****         /* Only run the PID algorithm if we have been configured by the nodebox software */
 974:main.c        ****         } else if (ConfigState == csReady) {
 975:main.c        ****             
 976:main.c        ****             /* Enable the drive outputs for the home and index once configured, otherwise they
 977:main.c        ****                can screw up the boot pins on the BeagleBoneBlack */
 978:main.c        ****             HOME_OUT_SetDriveMode(HOME_OUT_DM_STRONG); 
 979:main.c        ****             INDEX_OUT_SetDriveMode(INDEX_OUT_DM_STRONG); 
 980:main.c        ****         
 981:main.c        ****             /* If the server is asking us to jog, do that instead of PID */
 982:main.c        ****             if (!PID_Enabled) {                   
 983:main.c        ****                 
 984:main.c        ****                 /* When we start homing, it looks like a big negative jog.  Setup to watch the inde
 985:main.c        ****                    so we can assert faults if they aren't changing. */                
 986:main.c        ****                 if ((Jog != LastJog) && (Jog != 0)) {
 987:main.c        ****                     
 988:main.c        ****                     /* Update the 'last' jog value, so we don't fall into this reset code over and 
 989:main.c        ****                     LastJog = Jog;
 990:main.c        ****                     
 991:main.c        ****                     /* Remember where we started */
 992:main.c        ****                     LastPosition = GetPosition();
 993:main.c        ****                     
 994:main.c        ****                     /* Reset counting of index marks */
 995:main.c        ****                     Index_Counter_1_WriteCounter(0);
 996:main.c        ****                 }                
 997:main.c        ****                 
 998:main.c        ****                 /* Drive in the direction and speed the server told us */
 999:main.c        ****                 PWM_Set(PWM_JOG_NEUTRAL + Jog);
ARM GAS  C:\Users\PRICHA~1\AppData\Local\Temp\cctE1isk.s 			page 19


1000:main.c        **** 
1001:main.c        ****                 /* Watch for stuck signals while we are moving */
1002:main.c        ****                 if ( Jog != 0 ) {
1003:main.c        ****                 
1004:main.c        ****                     /* If we have moved a good distance away from the origin point, compare index c
1005:main.c        ****                        looking for discrepancy. */
1006:main.c        ****                     CurrentPosition = GetPosition();
1007:main.c        ****                     DeltaPosition = labs( CurrentPosition - LastPosition );
1008:main.c        ****                     CurrentIndexCount = Index_Counter_1_ReadCounter();
1009:main.c        ****                     
1010:main.c        ****                     /* Look for index failure: the index counter should have incremented by at leas
1011:main.c        ****                     if (CurrentIndexCount == 0)
1012:main.c        ****                         if (DeltaPosition > 2*ENCODER_COUNTS_PER_INDEX) 
1013:main.c        ****                             AssertFault(fsIndex);        
1014:main.c        ****                     
1015:main.c        ****                     /* Look for encoder failure: the encoders should register some amount of moveme
1016:main.c        ****                     if ((CurrentIndexCount > 0) && (DeltaPosition < 2))                     
1017:main.c        ****                         AssertFault(fsEncoder);
1018:main.c        ****                 }
1019:main.c        ****                 
1020:main.c        ****             }
1021:main.c        ****             
1022:main.c        ****             /* Handle mode switching */
1023:main.c        ****             if (!PID_Was_Enabled && PID_Enabled) {
1024:main.c        ****                 PID_SetMode(PID_AUTOMATIC);
1025:main.c        ****             } else if (!PID_Enabled && PID_Was_Enabled) {
1026:main.c        ****                 PID_SetMode(PID_MANUAL);                
1027:main.c        ****             } else {
1028:main.c        ****                 // No mode change happened   
1029:main.c        ****             }
1030:main.c        ****             
1031:main.c        ****             /* Save value for next cycle */
1032:main.c        ****             PID_Was_Enabled = PID_Enabled;
1033:main.c        ****             
1034:main.c        ****                 
1035:main.c        ****             /* Run the PID algorithm */
1036:main.c        ****             percent = PID_Compute(now, PID_Setpoint);
1037:main.c        ****             
1038:main.c        ****             /* Send the pwm back up to the BBB */
1039:main.c        ****             if (PID_Enabled) {
1040:main.c        ****                 
1041:main.c        ****                 /* Use the global PWM value to communicate back the percentage of drive to the serv
1042:main.c        ****                 PWM = percent;
1043:main.c        ****                 
1044:main.c        ****                 /* Put the PID drive percentage out on the wire */
1045:main.c        ****                 PID_SetDrive(percent);
1046:main.c        ****                 
1047:main.c        ****             } else {
1048:main.c        ****                 /* If disabled, just return 0 */
1049:main.c        ****                 PWM = 0;
1050:main.c        ****             }
1051:main.c        ****             
1052:main.c        ****         }
1053:main.c        ****         
1054:main.c        ****         PROBE_Write(0);
1055:main.c        ****         
1056:main.c        ****         /* Run the loop every 5ms, which is 200Hz update rate */
ARM GAS  C:\Users\PRICHA~1\AppData\Local\Temp\cctE1isk.s 			page 20


1057:main.c        ****         Sleep(sleeptime);
1058:main.c        **** 
1059:main.c        ****         /* Get our task stack usage high water mark */    
1060:main.c        ****         uxHighWaterMark_PID = uxTaskGetStackHighWaterMark( NULL );        
1061:main.c        ****     }
1062:main.c        ****    
1063:main.c        **** }
1064:main.c        **** 
1065:main.c        **** 
1066:main.c        **** 
1067:main.c        **** /*******************************************************************************
1068:main.c        **** * Function Name: main
1069:main.c        **** ********************************************************************************
1070:main.c        **** * Summary:
1071:main.c        **** *  Setup tasks, interrupts, and get the RTOS running.
1072:main.c        **** *
1073:main.c        **** * Parameters: None
1074:main.c        **** * Return: NEVER!
1075:main.c        **** *******************************************************************************/
1076:main.c        **** int main(void) {
1077:main.c        ****     
1078:main.c        ****     uint8 s;
1079:main.c        ****     setupFreeRTOS();
1080:main.c        **** 
1081:main.c        ****     /* DISABLE the drive outputs for the home and index immediately upon booting the 
1082:main.c        ****        microprocessor   There is a race condition here: unless the actuator is on a home
1083:main.c        ****        flag or index mark, a 1 will be written to each output.  Depending on which 
1084:main.c        ****        Cypress device this is, it could end up going to one of the boot pins of the Beagle
1085:main.c        ****        Bone Black device.  Undesirable results can result: corrupt serial output on the
1086:main.c        ****        console, inabulity to boot from eMMC, or even a complete failure to power on. */
1087:main.c        ****     HOME_OUT_SetDriveMode(HOME_OUT_DM_DIG_HIZ); 
1088:main.c        ****     INDEX_OUT_SetDriveMode(INDEX_OUT_DM_DIG_HIZ); 
1089:main.c        **** 
1090:main.c        ****     /* Create LED task, which will control the intensity of the LEDs */
1091:main.c        ****     xTaskCreate(
1092:main.c        ****         PID_Task,       /* Task function */
1093:main.c        ****         "PID",          /* Task name (string) */
1094:main.c        ****         64,             /* Task stack, allocated from heap (measured 12/27 to be 24 bytes) */
1095:main.c        ****         0,              /* No param passed to task function */
1096:main.c        ****         3,              /* Medium priority */
1097:main.c        ****         0 );            /* Not using the task handle */    
1098:main.c        ****     
1099:main.c        ****     xTaskCreate(
1100:main.c        ****         Comm_Task,       /* Task function */
1101:main.c        ****         "Communications", /* Task name (string) */
1102:main.c        ****         100,            /* Task stack, allocated from heap (measured 12/27 to be 78 bytes)  */
1103:main.c        ****         0,              /* No param passed to task function */
1104:main.c        ****         2,              /* High priority */
1105:main.c        ****         0 );            /* Not using the task handle */    
1106:main.c        **** 
1107:main.c        ****     xTaskCreate(
1108:main.c        ****         Current_Read_Task, /* Task function */
1109:main.c        ****         "Read Current", /* Task name (string) */
1110:main.c        ****         64,             /* Task stack, allocated from heap (measured 12/27 to be 40 bytes) */
1111:main.c        ****         0,              /* No param passed to task function */
1112:main.c        ****         1,              /* Low priority */
1113:main.c        ****         0 );            /* Not using the task handle */    
ARM GAS  C:\Users\PRICHA~1\AppData\Local\Temp\cctE1isk.s 			page 21


1114:main.c        ****     
1115:main.c        ****     /********************************************************************** 
1116:main.c        ****     * Message buffer mutex
1117:main.c        ****     **********************************************************************/
1118:main.c        ****     Lock = xSemaphoreCreateMutex();
1119:main.c        **** 
1120:main.c        ****     /* If we can't create the lock, flash the light and hold here */
1121:main.c        ****     if( Lock == NULL ) {
1122:main.c        ****         s = 1;
1123:main.c        ****         
1124:main.c        ****         while(1) {
1125:main.c        ****             s = !s;
1126:main.c        ****             LED_Write(s); 
1127:main.c        ****             CyDelay(1000u);                    
1128:main.c        ****         }
1129:main.c        ****     }
1130:main.c        ****     
1131:main.c        ****     
1132:main.c        ****     /********************************************************************** 
1133:main.c        ****     * Interrupts
1134:main.c        ****     **********************************************************************/
1135:main.c        ****     
1136:main.c        ****     /* Sets up the Index and Reset interrupt and enables them */
1137:main.c        ****     isr_home_StartEx(HomeIsrHandler);
1138:main.c        ****     isr_rst_encoder_StartEx(RSTIsrHandler);
1139:main.c        ****     
1140:main.c        ****     /* Setup the SPI slave select interrupt ISR */
1141:main.c        ****     isr_spi_ss_StartEx(SPI_SS_IsrHandler);
1142:main.c        ****     
1143:main.c        ****     /* Changes initial priority for the interrupts */
1144:main.c        ****     isr_home_SetPriority(DEFAULT_PRIORITY);
1145:main.c        ****     isr_rst_encoder_SetPriority(HIGHER_PRIORITY);
1146:main.c        ****     isr_spi_ss_SetPriority(DEFAULT_PRIORITY);
1147:main.c        **** 
1148:main.c        ****     /* Enable the global interrupt */
1149:main.c        ****     CyGlobalIntEnable;
1150:main.c        ****     
1151:main.c        ****     
1152:main.c        ****     
1153:main.c        ****     /********************************************************************** 
1154:main.c        ****     * Watchdog timer.  Implements the WDT1 automatic CPU reset.
1155:main.c        ****     **********************************************************************/
1156:main.c        **** 
1157:main.c        ****     /* If you are using the JTAG debugging probe, turn off the watchdog by
1158:main.c        ****        defining DEBUG_PROBE_ATTACHED to something, or it will reset the CPU
1159:main.c        ****        when you hit a breakpoint. */
1160:main.c        **** 
1161:main.c        **** #ifndef DEBUG_PROBE_ATTACHED
1162:main.c        **** 	/* Set WDT counter 1 to generate reset on match */
1163:main.c        **** 	CySysWdtWriteMatch(CY_SYS_WDT_COUNTER1, WDT_COUNT1_MATCH_RESET);
1164:main.c        **** 	CySysWdtWriteMode(CY_SYS_WDT_COUNTER1, CY_SYS_WDT_MODE_RESET);
1165:main.c        ****     CySysWdtWriteClearOnMatch(CY_SYS_WDT_COUNTER1, 1u);
1166:main.c        **** 	
1167:main.c        **** 	/* Enable WDT counter 1 */
1168:main.c        **** 	CySysWdtEnable(CY_SYS_WDT_COUNTER1_MASK);
1169:main.c        **** 	
1170:main.c        **** 	/* Lock WDT registers and try to disable WDT 1 */
ARM GAS  C:\Users\PRICHA~1\AppData\Local\Temp\cctE1isk.s 			page 22


1171:main.c        **** 	CySysWdtLock();
1172:main.c        **** 	CySysWdtDisable(CY_SYS_WDT_COUNTER1_MASK);
1173:main.c        **** 	CySysWdtUnlock();        
1174:main.c        **** #endif    
1175:main.c        **** 
1176:main.c        ****     
1177:main.c        ****     /*********************************************************************** 
1178:main.c        ****     * Start the various subsystems.
1179:main.c        ****     ***********************************************************************/
1180:main.c        ****     I2C_Start();
1181:main.c        ****     CyDelay(100u);
1182:main.c        ****     SPI_1_Start();
1183:main.c        ****     
1184:main.c        ****     /* Setup the PWM at a base frequency of 15KHz, 50% duty cycle.  Clock_1 is set to
1185:main.c        ****        12MHz, so the desired period to get 15KHz is a count of 800. */
1186:main.c        ****     PWM_1_Start();
1187:main.c        ****     PWM_1_WritePeriod(PWM_15KHZ_PERIOD);
1188:main.c        ****     PWM_Set(PWM_IDLE);   
1189:main.c        ****     
1190:main.c        ****     /* Default the jog value to neutral (no movement) */
1191:main.c        ****     Jog = 0;
1192:main.c        ****    
1193:main.c        ****     /* Start counting the quadrature encoding */
1194:main.c        ****     Counter_1_Start();    
1195:main.c        ****     Counter_1_WriteCounter(ENCODER_MAX);  // Set the encoder initially to mid range
1196:main.c        ****     LastPosition = ENCODER_MAX;
1197:main.c        ****     
1198:main.c        ****     /* Clear and start the index mark counter */
1199:main.c        ****     Index_Counter_1_Start();
1200:main.c        ****     Index_Counter_1_WriteCounter(0);
1201:main.c        ****      
1202:main.c        ****     /* Set some initial values */
1203:main.c        ****     LastMessageTimeTick = xTaskGetTickCount();
1204:main.c        ****     
1205:main.c        ****     /* Start off unconfigured */
1206:main.c        ****     ConfigState = csUnconfig;  
1207:main.c        ****     ConfigSequence = 0;
1208:main.c        ****     ChecksumErrors = 0;
1209:main.c        ****    
1210:main.c        ****     /***********************************************************************
1211:main.c        ****     * Start the RTOS task scheduler
1212:main.c        ****     ***********************************************************************/
1213:main.c        ****     vTaskStartScheduler();
1214:main.c        ****    
1215:main.c        ****     /***********************************************************************
1216:main.c        ****     *  We should never reach this
1217:main.c        ****     ***********************************************************************/
1218:main.c        ****     return 1;       
1219:main.c        **** }
1220:main.c        **** 
1221:main.c        **** /*******************************************************************************
1222:main.c        **** * Function Name: RSTIsrHandler
1223:main.c        **** ********************************************************************************
1224:main.c        **** * Summary:
1225:main.c        **** *  The interrupt handler for resetting the encoder count interrupts.
1226:main.c        **** *  Clears a pending Interrupt.
1227:main.c        **** *  Clears a pin Interrupt.
ARM GAS  C:\Users\PRICHA~1\AppData\Local\Temp\cctE1isk.s 			page 23


1228:main.c        **** *
1229:main.c        **** * Parameters: None
1230:main.c        **** * Return: None
1231:main.c        **** *******************************************************************************/
1232:main.c        **** CY_ISR(RSTIsrHandler) {
  28              		.loc 1 1232 0
  29              		.cfi_startproc
  30              		@ args = 0, pretend = 0, frame = 0
  31              		@ frame_needed = 0, uses_anonymous_args = 0
  32 0000 10B5     		push	{r4, lr}
  33              		.cfi_def_cfa_offset 8
  34              		.cfi_offset 4, -8
  35              		.cfi_offset 14, -4
1233:main.c        ****     
1234:main.c        ****     /* Clear pending Interrupt */
1235:main.c        ****     isr_rst_encoder_ClearPending(); 
  36              		.loc 1 1235 0
  37 0002 FFF7FEFF 		bl	isr_rst_encoder_ClearPending
  38              	.LVL0:
1236:main.c        ****     
1237:main.c        ****     /* Clear pin Interrupt */
1238:main.c        ****     Reset_Encoder_ClearInterrupt();
  39              		.loc 1 1238 0
  40 0006 FFF7FEFF 		bl	Reset_Encoder_ClearInterrupt
  41              	.LVL1:
1239:main.c        ****     
1240:main.c        ****     /* Clear the 24b Encoder (Absolute Position Counter) */
1241:main.c        ****     Counter_1_WriteCounter(0);
  42              		.loc 1 1241 0
  43 000a 0020     		movs	r0, #0
  44 000c FFF7FEFF 		bl	Counter_1_WriteCounter
  45              	.LVL2:
1242:main.c        ****     
1243:main.c        ****     /* Clear the index counter */
1244:main.c        ****     Index_Counter_1_WriteCounter(0);  
  46              		.loc 1 1244 0
  47 0010 0020     		movs	r0, #0
  48 0012 FFF7FEFF 		bl	Index_Counter_1_WriteCounter
  49              	.LVL3:
1245:main.c        **** }
  50              		.loc 1 1245 0
  51              		@ sp needed
  52 0016 10BD     		pop	{r4, pc}
  53              		.cfi_endproc
  54              	.LFE46:
  55              		.size	RSTIsrHandler, .-RSTIsrHandler
  56              		.section	.text.HomeIsrHandler,"ax",%progbits
  57              		.align	2
  58              		.global	HomeIsrHandler
  59              		.code	16
  60              		.thumb_func
  61              		.type	HomeIsrHandler, %function
  62              	HomeIsrHandler:
  63              	.LFB47:
1246:main.c        **** 
1247:main.c        **** /*******************************************************************************
1248:main.c        **** * Function Name: HomeIsrHandler
ARM GAS  C:\Users\PRICHA~1\AppData\Local\Temp\cctE1isk.s 			page 24


1249:main.c        **** ********************************************************************************
1250:main.c        **** * Summary:
1251:main.c        **** *  The interrupt handler for resetting the encoder count interrupts.
1252:main.c        **** *  Clears a pending Interrupt.
1253:main.c        **** *  Clears a pin Interrupt.
1254:main.c        **** *
1255:main.c        **** * Parameters: None
1256:main.c        **** * Return: None
1257:main.c        **** *******************************************************************************/
1258:main.c        **** CY_ISR(HomeIsrHandler) {
  64              		.loc 1 1258 0
  65              		.cfi_startproc
  66              		@ args = 0, pretend = 0, frame = 0
  67              		@ frame_needed = 0, uses_anonymous_args = 0
  68 0000 10B5     		push	{r4, lr}
  69              		.cfi_def_cfa_offset 8
  70              		.cfi_offset 4, -8
  71              		.cfi_offset 14, -4
1259:main.c        ****     
1260:main.c        ****     /* Clear pending Interrupt */
1261:main.c        ****     isr_home_ClearPending(); 
  72              		.loc 1 1261 0
  73 0002 FFF7FEFF 		bl	isr_home_ClearPending
  74              	.LVL4:
1262:main.c        ****     
1263:main.c        ****     /* Clear pin Interrupt */
1264:main.c        ****     HOME_IN_ClearInterrupt();
  75              		.loc 1 1264 0
  76 0006 FFF7FEFF 		bl	HOME_IN_ClearInterrupt
  77              	.LVL5:
1265:main.c        **** 
1266:main.c        ****     /* Clear the 24b Encoder (Absolute Position Counter) */
1267:main.c        ****     Counter_1_WriteCounter(0);
  78              		.loc 1 1267 0
  79 000a 0020     		movs	r0, #0
  80 000c FFF7FEFF 		bl	Counter_1_WriteCounter
  81              	.LVL6:
1268:main.c        **** }
  82              		.loc 1 1268 0
  83              		@ sp needed
  84 0010 10BD     		pop	{r4, pc}
  85              		.cfi_endproc
  86              	.LFE47:
  87              		.size	HomeIsrHandler, .-HomeIsrHandler
  88 0012 C046     		.section	.text.SPI_SS_IsrHandler,"ax",%progbits
  89              		.align	2
  90              		.global	SPI_SS_IsrHandler
  91              		.code	16
  92              		.thumb_func
  93              		.type	SPI_SS_IsrHandler, %function
  94              	SPI_SS_IsrHandler:
  95              	.LFB48:
1269:main.c        **** 
1270:main.c        **** 
1271:main.c        **** /*******************************************************************************
1272:main.c        **** * Function Name: SPI_SS_IsrHandler
1273:main.c        **** ********************************************************************************
ARM GAS  C:\Users\PRICHA~1\AppData\Local\Temp\cctE1isk.s 			page 25


1274:main.c        **** * Summary:
1275:main.c        **** *  The interrupt handler for knowing when the SPI master deasserts the slave select.
1276:main.c        **** *  Clears a pin Interrupt.
1277:main.c        **** *
1278:main.c        **** * Parameters: None
1279:main.c        **** * Return: None
1280:main.c        **** *******************************************************************************/
1281:main.c        **** CY_ISR(SPI_SS_IsrHandler) {
  96              		.loc 1 1281 0
  97              		.cfi_startproc
  98              		@ args = 0, pretend = 0, frame = 0
  99              		@ frame_needed = 0, uses_anonymous_args = 0
 100 0000 10B5     		push	{r4, lr}
 101              		.cfi_def_cfa_offset 8
 102              		.cfi_offset 4, -8
 103              		.cfi_offset 14, -4
1282:main.c        ****     
1283:main.c        ****     uint32 i;
1284:main.c        ****     
1285:main.c        ****     /* Clear SPI slave select pin Interrupt */
1286:main.c        ****     spi_ss_ClearInterrupt();
 104              		.loc 1 1286 0
 105 0002 FFF7FEFF 		bl	spi_ss_ClearInterrupt
 106              	.LVL7:
1287:main.c        ****     
1288:main.c        ****     /* Make sure the slave select is actually de-asserted before proceeding */
1289:main.c        ****     if (!spi_ss_Read()) 
 107              		.loc 1 1289 0
 108 0006 FFF7FEFF 		bl	spi_ss_Read
 109              	.LVL8:
 110 000a 0028     		cmp	r0, #0
 111 000c 1CD0     		beq	.L3
1290:main.c        ****         return;
1291:main.c        ****    
1292:main.c        ****     /* Update the last message tick timer */
1293:main.c        ****     LastMessageTimeTick = xTaskGetTickCount();
 112              		.loc 1 1293 0
 113 000e FFF7FEFF 		bl	xTaskGetTickCount
 114              	.LVL9:
 115 0012 0E4B     		ldr	r3, .L8
 116 0014 1860     		str	r0, [r3]
1294:main.c        **** 
1295:main.c        ****     /* It's possible the slave select has fired and returned without transmitting any data (glitche
1296:main.c        ****        check the messaging state before resetting the buffers */
1297:main.c        ****     switch (txMessageState) {
 117              		.loc 1 1297 0
 118 0016 0E4B     		ldr	r3, .L8+4
 119 0018 1B78     		ldrb	r3, [r3]
 120 001a 012B     		cmp	r3, #1
 121 001c 14D1     		bne	.L3
1298:main.c        ****      
1299:main.c        ****         /* FIFO is not yet loaded and slave select deasserted, this is a glitch */ 
1300:main.c        ****         case txmsClear:
1301:main.c        ****             break;
1302:main.c        ****      
1303:main.c        ****         /* A message was readied for transmission */
1304:main.c        ****         case txmsLoaded:
ARM GAS  C:\Users\PRICHA~1\AppData\Local\Temp\cctE1isk.s 			page 26


1305:main.c        ****          
1306:main.c        ****             /* FIFO is clear and slave select deasserted, it's time to reset */ 
1307:main.c        ****             
1308:main.c        ****             /* Clear the transmit message buffer, the comm thread will fill it in again to make sur
1309:main.c        ****             bzero(txMessage.buf, sizeof(txMessage.buf)); 
 122              		.loc 1 1309 0
 123 001e 1E22     		movs	r2, #30
 124 0020 0021     		movs	r1, #0
 125 0022 0C48     		ldr	r0, .L8+8
 126 0024 FFF7FEFF 		bl	memset
 127              	.LVL10:
1310:main.c        **** 
1311:main.c        ****             /* Message from the master is completely clocked in by now */     
1312:main.c        ****             for (i = 0; i < sizeof(rxMessage.buf); i++) {
 128              		.loc 1 1312 0
 129 0028 0024     		movs	r4, #0
 130 002a 04E0     		b	.L6
 131              	.LVL11:
 132              	.L7:
1313:main.c        ****                 rxMessage.buf[i] = (uint8) SPI_1_SpiUartReadRxData();            
 133              		.loc 1 1313 0 discriminator 3
 134 002c FFF7FEFF 		bl	SPI_1_SpiUartReadRxData
 135              	.LVL12:
 136 0030 094B     		ldr	r3, .L8+12
 137 0032 1855     		strb	r0, [r3, r4]
1312:main.c        ****                 rxMessage.buf[i] = (uint8) SPI_1_SpiUartReadRxData();            
 138              		.loc 1 1312 0 discriminator 3
 139 0034 0134     		adds	r4, r4, #1
 140              	.LVL13:
 141              	.L6:
1312:main.c        ****                 rxMessage.buf[i] = (uint8) SPI_1_SpiUartReadRxData();            
 142              		.loc 1 1312 0 is_stmt 0 discriminator 1
 143 0036 1D2C     		cmp	r4, #29
 144 0038 F8D9     		bls	.L7
1314:main.c        ****             }
1315:main.c        ****             
1316:main.c        ****             /* Clear out all the bytes in the receive side so they can be filled in again */
1317:main.c        ****             SPI_1_SpiUartClearRxBuffer();  
 145              		.loc 1 1317 0 is_stmt 1
 146 003a FFF7FEFF 		bl	SPI_1_SpiUartClearRxBuffer
 147              	.LVL14:
1318:main.c        ****             
1319:main.c        ****             /* Clear out any remaining bytes in the transmit buffer, in case the message transfer w
1320:main.c        ****             SPI_1_SpiUartClearTxBuffer();
 148              		.loc 1 1320 0
 149 003e FFF7FEFF 		bl	SPI_1_SpiUartClearTxBuffer
 150              	.LVL15:
1321:main.c        ****             
1322:main.c        ****             /* Set the state to indicate to the messaging thread that it's time to load the TX buff
1323:main.c        ****             txMessageState = txmsClear;        
 151              		.loc 1 1323 0
 152 0042 0022     		movs	r2, #0
 153 0044 024B     		ldr	r3, .L8+4
 154 0046 1A70     		strb	r2, [r3]
 155              	.LVL16:
 156              	.L3:
1324:main.c        ****             break;
ARM GAS  C:\Users\PRICHA~1\AppData\Local\Temp\cctE1isk.s 			page 27


1325:main.c        ****             
1326:main.c        ****     } 
1327:main.c        **** }
 157              		.loc 1 1327 0
 158              		@ sp needed
 159 0048 10BD     		pop	{r4, pc}
 160              	.L9:
 161 004a C046     		.align	2
 162              	.L8:
 163 004c 00000000 		.word	LastMessageTimeTick
 164 0050 00000000 		.word	txMessageState
 165 0054 00000000 		.word	txMessage
 166 0058 00000000 		.word	rxMessage
 167              		.cfi_endproc
 168              	.LFE48:
 169              		.size	SPI_SS_IsrHandler, .-SPI_SS_IsrHandler
 170              		.section	.text.setupFreeRTOS,"ax",%progbits
 171              		.align	2
 172              		.global	setupFreeRTOS
 173              		.code	16
 174              		.thumb_func
 175              		.type	setupFreeRTOS, %function
 176              	setupFreeRTOS:
 177              	.LFB32:
 342:main.c        **** #define CORTEX_INTERRUPT_BASE (16)
 178              		.loc 1 342 0
 179              		.cfi_startproc
 180              		@ args = 0, pretend = 0, frame = 0
 181              		@ frame_needed = 0, uses_anonymous_args = 0
 182 0000 10B5     		push	{r4, lr}
 183              		.cfi_def_cfa_offset 8
 184              		.cfi_offset 4, -8
 185              		.cfi_offset 14, -4
 346:main.c        ****     
 186              		.loc 1 346 0
 187 0002 0649     		ldr	r1, .L11
 188 0004 0B20     		movs	r0, #11
 189 0006 FFF7FEFF 		bl	CyIntSetSysVector
 190              	.LVL17:
 349:main.c        ****     
 191              		.loc 1 349 0
 192 000a 0549     		ldr	r1, .L11+4
 193 000c 0E20     		movs	r0, #14
 194 000e FFF7FEFF 		bl	CyIntSetSysVector
 195              	.LVL18:
 352:main.c        **** }
 196              		.loc 1 352 0
 197 0012 0449     		ldr	r1, .L11+8
 198 0014 0F20     		movs	r0, #15
 199 0016 FFF7FEFF 		bl	CyIntSetSysVector
 200              	.LVL19:
 353:main.c        **** 
 201              		.loc 1 353 0
 202              		@ sp needed
 203 001a 10BD     		pop	{r4, pc}
 204              	.L12:
 205              		.align	2
ARM GAS  C:\Users\PRICHA~1\AppData\Local\Temp\cctE1isk.s 			page 28


 206              	.L11:
 207 001c 00000000 		.word	vPortSVCHandler
 208 0020 00000000 		.word	xPortPendSVHandler
 209 0024 00000000 		.word	xPortSysTickHandler
 210              		.cfi_endproc
 211              	.LFE32:
 212              		.size	setupFreeRTOS, .-setupFreeRTOS
 213              		.section	.text.AssertFault,"ax",%progbits
 214              		.align	2
 215              		.global	AssertFault
 216              		.code	16
 217              		.thumb_func
 218              		.type	AssertFault, %function
 219              	AssertFault:
 220              	.LFB33:
 366:main.c        ****  
 221              		.loc 1 366 0
 222              		.cfi_startproc
 223              		@ args = 0, pretend = 0, frame = 0
 224              		@ frame_needed = 0, uses_anonymous_args = 0
 225              		@ link register save eliminated.
 226              	.LVL20:
 368:main.c        ****      
 227              		.loc 1 368 0
 228 0000 0028     		cmp	r0, #0
 229 0002 03D1     		bne	.L17
 372:main.c        ****             break;        
 230              		.loc 1 372 0
 231 0004 0022     		movs	r2, #0
 232 0006 044B     		ldr	r3, .L18
 233 0008 1A70     		strb	r2, [r3]
 373:main.c        ****         
 234              		.loc 1 373 0
 235 000a 03E0     		b	.L13
 236              	.L17:
 377:main.c        ****             break;        
 237              		.loc 1 377 0
 238 000c 024B     		ldr	r3, .L18
 239 000e 1A78     		ldrb	r2, [r3]
 240 0010 1043     		orrs	r0, r2
 241              	.LVL21:
 242 0012 1870     		strb	r0, [r3]
 243              	.L13:
 380:main.c        **** 
 244              		.loc 1 380 0
 245              		@ sp needed
 246 0014 7047     		bx	lr
 247              	.L19:
 248 0016 C046     		.align	2
 249              	.L18:
 250 0018 00000000 		.word	FaultState
 251              		.cfi_endproc
 252              	.LFE33:
 253              		.size	AssertFault, .-AssertFault
 254              		.section	.text.Current_Read_Task,"ax",%progbits
 255              		.align	2
 256              		.global	Current_Read_Task
ARM GAS  C:\Users\PRICHA~1\AppData\Local\Temp\cctE1isk.s 			page 29


 257              		.code	16
 258              		.thumb_func
 259              		.type	Current_Read_Task, %function
 260              	Current_Read_Task:
 261              	.LFB35:
 419:main.c        ****     
 262              		.loc 1 419 0
 263              		.cfi_startproc
 264              		@ args = 0, pretend = 0, frame = 8
 265              		@ frame_needed = 0, uses_anonymous_args = 0
 266              	.LVL22:
 267 0000 00B5     		push	{lr}
 268              		.cfi_def_cfa_offset 4
 269              		.cfi_offset 14, -4
 270 0002 83B0     		sub	sp, sp, #12
 271              		.cfi_def_cfa_offset 16
 428:main.c        ****     
 272              		.loc 1 428 0
 273 0004 0020     		movs	r0, #0
 274              	.LVL23:
 275 0006 FFF7FEFF 		bl	uxTaskGetStackHighWaterMark
 276              	.LVL24:
 277 000a 304B     		ldr	r3, .L27
 278 000c 1860     		str	r0, [r3]
 279              	.L26:
 436:main.c        ****         if (err == I2C_I2C_MSTR_NO_ERROR) {
 280              		.loc 1 436 0
 281 000e 0A22     		movs	r2, #10
 282 0010 0021     		movs	r1, #0
 283 0012 4020     		movs	r0, #64
 284 0014 FFF7FEFF 		bl	I2C_I2CMasterSendStart
 285              	.LVL25:
 286 0018 0190     		str	r0, [sp, #4]
 437:main.c        ****             
 287              		.loc 1 437 0
 288 001a 019B     		ldr	r3, [sp, #4]
 289 001c 002B     		cmp	r3, #0
 290 001e 0FD1     		bne	.L21
 439:main.c        ****             
 291              		.loc 1 439 0
 292 0020 0A21     		movs	r1, #10
 293 0022 0520     		movs	r0, #5
 294 0024 FFF7FEFF 		bl	I2C_I2CMasterWriteByte
 295              	.LVL26:
 442:main.c        ****             
 296              		.loc 1 442 0
 297 0028 0A21     		movs	r1, #10
 298 002a 2020     		movs	r0, #32
 299 002c FFF7FEFF 		bl	I2C_I2CMasterWriteByte
 300              	.LVL27:
 445:main.c        ****             I2C_I2CMasterSendStop(10);
 301              		.loc 1 445 0
 302 0030 0A21     		movs	r1, #10
 303 0032 0020     		movs	r0, #0
 304 0034 FFF7FEFF 		bl	I2C_I2CMasterWriteByte
 305              	.LVL28:
 446:main.c        ****             
ARM GAS  C:\Users\PRICHA~1\AppData\Local\Temp\cctE1isk.s 			page 30


 306              		.loc 1 446 0
 307 0038 0A20     		movs	r0, #10
 308 003a FFF7FEFF 		bl	I2C_I2CMasterSendStop
 309              	.LVL29:
 310 003e 05E0     		b	.L22
 311              	.LVL30:
 312              	.L21:
 449:main.c        ****             AssertFault(fsCurrentRead);
 313              		.loc 1 449 0
 314 0040 0022     		movs	r2, #0
 315 0042 234B     		ldr	r3, .L27+4
 316 0044 1A80     		strh	r2, [r3]
 450:main.c        ****         }
 317              		.loc 1 450 0
 318 0046 0820     		movs	r0, #8
 319 0048 FFF7FEFF 		bl	AssertFault
 320              	.LVL31:
 321              	.L22:
 453:main.c        ****         if (err == I2C_I2C_MSTR_NO_ERROR) {
 322              		.loc 1 453 0
 323 004c 0A22     		movs	r2, #10
 324 004e 0021     		movs	r1, #0
 325 0050 4020     		movs	r0, #64
 326 0052 FFF7FEFF 		bl	I2C_I2CMasterSendStart
 327              	.LVL32:
 328 0056 0190     		str	r0, [sp, #4]
 454:main.c        ****             
 329              		.loc 1 454 0
 330 0058 019B     		ldr	r3, [sp, #4]
 331 005a 002B     		cmp	r3, #0
 332 005c 20D1     		bne	.L23
 456:main.c        ****             I2C_I2CMasterSendStop(10);
 333              		.loc 1 456 0
 334 005e 0A21     		movs	r1, #10
 335 0060 0420     		movs	r0, #4
 336 0062 FFF7FEFF 		bl	I2C_I2CMasterWriteByte
 337              	.LVL33:
 457:main.c        ****             
 338              		.loc 1 457 0
 339 0066 0A20     		movs	r0, #10
 340 0068 FFF7FEFF 		bl	I2C_I2CMasterSendStop
 341              	.LVL34:
 460:main.c        ****             
 342              		.loc 1 460 0
 343 006c 0123     		movs	r3, #1
 344 006e 0522     		movs	r2, #5
 345 0070 1849     		ldr	r1, .L27+8
 346 0072 4020     		movs	r0, #64
 347 0074 FFF7FEFF 		bl	I2C_I2CMasterReadBuf
 348              	.LVL35:
 349 0078 0190     		str	r0, [sp, #4]
 463:main.c        ****                 CurrentTemp = (int16)(CurrentI2Cinbuf[0] << 8) + CurrentI2Cinbuf[1];
 350              		.loc 1 463 0
 351 007a 019B     		ldr	r3, [sp, #4]
 352 007c 002B     		cmp	r3, #0
 353 007e 08D1     		bne	.L24
 464:main.c        ****             } else {
ARM GAS  C:\Users\PRICHA~1\AppData\Local\Temp\cctE1isk.s 			page 31


 354              		.loc 1 464 0
 355 0080 144A     		ldr	r2, .L27+8
 356 0082 1378     		ldrb	r3, [r2]
 357 0084 1B02     		lsls	r3, r3, #8
 358 0086 5278     		ldrb	r2, [r2, #1]
 359 0088 9B18     		adds	r3, r3, r2
 360 008a 1BB2     		sxth	r3, r3
 361 008c 6A46     		mov	r2, sp
 362 008e 5380     		strh	r3, [r2, #2]
 363 0090 0CE0     		b	.L25
 364              	.L24:
 466:main.c        ****                 AssertFault(fsCurrentRead);
 365              		.loc 1 466 0
 366 0092 0022     		movs	r2, #0
 367 0094 6B46     		mov	r3, sp
 368 0096 5A80     		strh	r2, [r3, #2]
 467:main.c        ****             }
 369              		.loc 1 467 0
 370 0098 0820     		movs	r0, #8
 371 009a FFF7FEFF 		bl	AssertFault
 372              	.LVL36:
 373 009e 05E0     		b	.L25
 374              	.L23:
 470:main.c        ****             AssertFault(fsCurrentRead);
 375              		.loc 1 470 0
 376 00a0 0022     		movs	r2, #0
 377 00a2 6B46     		mov	r3, sp
 378 00a4 5A80     		strh	r2, [r3, #2]
 471:main.c        ****         }
 379              		.loc 1 471 0
 380 00a6 0820     		movs	r0, #8
 381 00a8 FFF7FEFF 		bl	AssertFault
 382              	.LVL37:
 383              	.L25:
 475:main.c        **** 
 384              		.loc 1 475 0
 385 00ac 6B46     		mov	r3, sp
 386 00ae 0233     		adds	r3, r3, #2
 387 00b0 1B88     		ldrh	r3, [r3]
 388 00b2 1BB2     		sxth	r3, r3
 389 00b4 064A     		ldr	r2, .L27+4
 390 00b6 1380     		strh	r3, [r2]
 478:main.c        ****         
 391              		.loc 1 478 0
 392 00b8 FA20     		movs	r0, #250
 393 00ba 4000     		lsls	r0, r0, #1
 394 00bc FFF7FEFF 		bl	vTaskDelay
 395              	.LVL38:
 481:main.c        ****     }
 396              		.loc 1 481 0
 397 00c0 0020     		movs	r0, #0
 398 00c2 FFF7FEFF 		bl	uxTaskGetStackHighWaterMark
 399              	.LVL39:
 400 00c6 014B     		ldr	r3, .L27
 401 00c8 1860     		str	r0, [r3]
 482:main.c        ****    
 402              		.loc 1 482 0
ARM GAS  C:\Users\PRICHA~1\AppData\Local\Temp\cctE1isk.s 			page 32


 403 00ca A0E7     		b	.L26
 404              	.L28:
 405              		.align	2
 406              	.L27:
 407 00cc 00000000 		.word	uxHighWaterMark_Current
 408 00d0 00000000 		.word	Current
 409 00d4 00000000 		.word	CurrentI2Cinbuf
 410              		.cfi_endproc
 411              	.LFE35:
 412              		.size	Current_Read_Task, .-Current_Read_Task
 413              		.section	.text.ClearFault,"ax",%progbits
 414              		.align	2
 415              		.global	ClearFault
 416              		.code	16
 417              		.thumb_func
 418              		.type	ClearFault, %function
 419              	ClearFault:
 420              	.LFB34:
 393:main.c        ****  
 421              		.loc 1 393 0
 422              		.cfi_startproc
 423              		@ args = 0, pretend = 0, frame = 0
 424              		@ frame_needed = 0, uses_anonymous_args = 0
 425              		@ link register save eliminated.
 426              	.LVL40:
 395:main.c        ****      
 427              		.loc 1 395 0
 428 0000 0028     		cmp	r0, #0
 429 0002 03D1     		bne	.L33
 399:main.c        ****             break;        
 430              		.loc 1 399 0
 431 0004 0022     		movs	r2, #0
 432 0006 044B     		ldr	r3, .L34
 433 0008 1A70     		strb	r2, [r3]
 400:main.c        ****         
 434              		.loc 1 400 0
 435 000a 03E0     		b	.L29
 436              	.L33:
 404:main.c        ****             break;        
 437              		.loc 1 404 0
 438 000c 024A     		ldr	r2, .L34
 439 000e 1378     		ldrb	r3, [r2]
 440 0010 8343     		bics	r3, r0
 441 0012 1370     		strb	r3, [r2]
 442              	.L29:
 407:main.c        **** 
 443              		.loc 1 407 0
 444              		@ sp needed
 445 0014 7047     		bx	lr
 446              	.L35:
 447 0016 C046     		.align	2
 448              	.L34:
 449 0018 00000000 		.word	FaultState
 450              		.cfi_endproc
 451              	.LFE34:
 452              		.size	ClearFault, .-ClearFault
 453              		.global	__aeabi_fcmpgt
ARM GAS  C:\Users\PRICHA~1\AppData\Local\Temp\cctE1isk.s 			page 33


 454              		.global	__aeabi_fcmplt
 455              		.global	__aeabi_fmul
 456              		.global	__aeabi_f2uiz
 457              		.section	.text.PWM_Set,"ax",%progbits
 458              		.align	2
 459              		.global	PWM_Set
 460              		.code	16
 461              		.thumb_func
 462              		.type	PWM_Set, %function
 463              	PWM_Set:
 464              	.LFB37:
 696:main.c        ****     
 465              		.loc 1 696 0
 466              		.cfi_startproc
 467              		@ args = 0, pretend = 0, frame = 0
 468              		@ frame_needed = 0, uses_anonymous_args = 0
 469              	.LVL41:
 470 0000 70B5     		push	{r4, r5, r6, lr}
 471              		.cfi_def_cfa_offset 16
 472              		.cfi_offset 4, -16
 473              		.cfi_offset 5, -12
 474              		.cfi_offset 6, -8
 475              		.cfi_offset 14, -4
 476 0002 051C     		adds	r5, r0, #0
 477              	.LVL42:
 701:main.c        ****         drive = pwmMax;
 478              		.loc 1 701 0
 479 0004 0C4B     		ldr	r3, .L38
 480 0006 1C68     		ldr	r4, [r3]
 481 0008 211C     		adds	r1, r4, #0
 482 000a FFF7FEFF 		bl	__aeabi_fcmpgt
 483              	.LVL43:
 484 000e 0028     		cmp	r0, #0
 485 0010 08D1     		bne	.L37
 703:main.c        ****         drive = pwmMin;
 486              		.loc 1 703 0
 487 0012 0A4B     		ldr	r3, .L38+4
 488 0014 1C68     		ldr	r4, [r3]
 489 0016 211C     		adds	r1, r4, #0
 490 0018 281C     		adds	r0, r5, #0
 491 001a FFF7FEFF 		bl	__aeabi_fcmplt
 492              	.LVL44:
 493 001e 0028     		cmp	r0, #0
 494 0020 00D1     		bne	.L37
 698:main.c        ****     
 495              		.loc 1 698 0
 496 0022 2C1C     		adds	r4, r5, #0
 497              	.L37:
 498              	.LVL45:
 707:main.c        **** }
 499              		.loc 1 707 0
 500 0024 8321     		movs	r1, #131
 501 0026 C905     		lsls	r1, r1, #23
 502 0028 201C     		adds	r0, r4, #0
 503 002a FFF7FEFF 		bl	__aeabi_fmul
 504              	.LVL46:
 505 002e FFF7FEFF 		bl	__aeabi_f2uiz
ARM GAS  C:\Users\PRICHA~1\AppData\Local\Temp\cctE1isk.s 			page 34


 506              	.LVL47:
 507 0032 FFF7FEFF 		bl	PWM_1_WriteCompare
 508              	.LVL48:
 708:main.c        **** 
 509              		.loc 1 708 0
 510              		@ sp needed
 511              	.LVL49:
 512              	.LVL50:
 513 0036 70BD     		pop	{r4, r5, r6, pc}
 514              	.L39:
 515              		.align	2
 516              	.L38:
 517 0038 00000000 		.word	pwmMax
 518 003c 00000000 		.word	pwmMin
 519              		.cfi_endproc
 520              	.LFE37:
 521              		.size	PWM_Set, .-PWM_Set
 522              		.section	.text.GetPosition,"ax",%progbits
 523              		.align	2
 524              		.global	GetPosition
 525              		.code	16
 526              		.thumb_func
 527              		.type	GetPosition, %function
 528              	GetPosition:
 529              	.LFB38:
 719:main.c        ****     
 530              		.loc 1 719 0
 531              		.cfi_startproc
 532              		@ args = 0, pretend = 0, frame = 0
 533              		@ frame_needed = 0, uses_anonymous_args = 0
 534 0000 10B5     		push	{r4, lr}
 535              		.cfi_def_cfa_offset 8
 536              		.cfi_offset 4, -8
 537              		.cfi_offset 14, -4
 725:main.c        ****     
 538              		.loc 1 725 0
 539 0002 FFF7FEFF 		bl	Counter_1_ReadCounter
 540              	.LVL51:
 729:main.c        ****         
 541              		.loc 1 729 0
 542 0006 E023     		movs	r3, #224
 543 0008 DB03     		lsls	r3, r3, #15
 544 000a 9842     		cmp	r0, r3
 545 000c 02D9     		bls	.L42
 731:main.c        ****         
 546              		.loc 1 731 0
 547 000e 034B     		ldr	r3, .L43
 548 0010 9C46     		mov	ip, r3
 549 0012 6044     		add	r0, r0, ip
 550              	.LVL52:
 551              	.L42:
 740:main.c        ****     return result;
 552              		.loc 1 740 0
 553 0014 024B     		ldr	r3, .L43+4
 554 0016 1860     		str	r0, [r3]
 742:main.c        **** 
 555              		.loc 1 742 0
ARM GAS  C:\Users\PRICHA~1\AppData\Local\Temp\cctE1isk.s 			page 35


 556              		@ sp needed
 557 0018 10BD     		pop	{r4, pc}
 558              	.L44:
 559 001a C046     		.align	2
 560              	.L43:
 561 001c 000080FF 		.word	-8388608
 562 0020 00000000 		.word	Position
 563              		.cfi_endproc
 564              	.LFE38:
 565              		.size	GetPosition, .-GetPosition
 566              		.global	__aeabi_ui2f
 567              		.global	__aeabi_fdiv
 568              		.global	__aeabi_fadd
 569              		.global	__aeabi_fsub
 570              		.section	.text.Comm_Task,"ax",%progbits
 571              		.align	2
 572              		.global	Comm_Task
 573              		.code	16
 574              		.thumb_func
 575              		.type	Comm_Task, %function
 576              	Comm_Task:
 577              	.LFB36:
 495:main.c        ****  
 578              		.loc 1 495 0
 579              		.cfi_startproc
 580              		@ args = 0, pretend = 0, frame = 0
 581              		@ frame_needed = 0, uses_anonymous_args = 0
 582              	.LVL53:
 583 0000 10B5     		push	{r4, lr}
 584              		.cfi_def_cfa_offset 8
 585              		.cfi_offset 4, -8
 586              		.cfi_offset 14, -4
 504:main.c        ****     
 587              		.loc 1 504 0
 588 0002 0020     		movs	r0, #0
 589              	.LVL54:
 590 0004 FFF7FEFF 		bl	uxTaskGetStackHighWaterMark
 591              	.LVL55:
 592 0008 924B     		ldr	r3, .L65
 593 000a 1860     		str	r0, [r3]
 594              	.L61:
 510:main.c        ****         
 595              		.loc 1 510 0
 596 000c 924B     		ldr	r3, .L65+4
 597 000e 1B68     		ldr	r3, [r3]
 598 0010 DB07     		lsls	r3, r3, #31
 599 0012 00D5     		bpl	.LCB483
 600 0014 15E1     		b	.L46	@long jump
 601              	.LCB483:
 513:main.c        ****              
 602              		.loc 1 513 0
 603 0016 914B     		ldr	r3, .L65+8
 604 0018 1B78     		ldrb	r3, [r3]
 605 001a 002B     		cmp	r3, #0
 606 001c 00D0     		beq	.LCB488
 607 001e 10E1     		b	.L46	@long jump
 608              	.LCB488:
ARM GAS  C:\Users\PRICHA~1\AppData\Local\Temp\cctE1isk.s 			page 36


 523:main.c        ****                         
 609              		.loc 1 523 0
 610 0020 8F4B     		ldr	r3, .L65+12
 611 0022 1868     		ldr	r0, [r3]
 612 0024 0421     		movs	r1, #4
 613 0026 FFF7FEFF 		bl	xQueueSemaphoreTake
 614              	.LVL56:
 615 002a 0128     		cmp	r0, #1
 616 002c 00D0     		beq	.LCB495
 617 002e 08E1     		b	.L46	@long jump
 618              	.LCB495:
 526:main.c        ****                         opcode   = (rxMessage_opcodes_t) rxMessage.overlay.opcode;
 619              		.loc 1 526 0
 620 0030 8C4B     		ldr	r3, .L65+16
 621 0032 5878     		ldrb	r0, [r3, #1]
 622              	.LVL57:
 527:main.c        ****                         
 623              		.loc 1 527 0
 624 0034 9C78     		ldrb	r4, [r3, #2]
 625              	.LVL58:
 530:main.c        ****                             size = sizeof(txMessage.buf);                            
 626              		.loc 1 530 0
 627 0036 1E28     		cmp	r0, #30
 628 0038 00D9     		bls	.L48
 531:main.c        ****                     
 629              		.loc 1 531 0
 630 003a 1E20     		movs	r0, #30
 631              	.LVL59:
 632              	.L48:
 534:main.c        ****                             checksum += rxMessage.buf[i]; 
 633              		.loc 1 534 0
 634 003c 0022     		movs	r2, #0
 635 003e 0023     		movs	r3, #0
 636 0040 05E0     		b	.L49
 637              	.LVL60:
 638              	.L50:
 535:main.c        **** 
 639              		.loc 1 535 0 discriminator 3
 640 0042 8849     		ldr	r1, .L65+16
 641 0044 C95C     		ldrb	r1, [r1, r3]
 642 0046 5218     		adds	r2, r2, r1
 643              	.LVL61:
 644 0048 D2B2     		uxtb	r2, r2
 645              	.LVL62:
 534:main.c        ****                             checksum += rxMessage.buf[i]; 
 646              		.loc 1 534 0 discriminator 3
 647 004a 0133     		adds	r3, r3, #1
 648              	.LVL63:
 649 004c DBB2     		uxtb	r3, r3
 650              	.LVL64:
 651              	.L49:
 534:main.c        ****                             checksum += rxMessage.buf[i]; 
 652              		.loc 1 534 0 is_stmt 0 discriminator 1
 653 004e 9842     		cmp	r0, r3
 654 0050 F7D8     		bhi	.L50
 538:main.c        ****                             
 655              		.loc 1 538 0 is_stmt 1
ARM GAS  C:\Users\PRICHA~1\AppData\Local\Temp\cctE1isk.s 			page 37


 656 0052 002A     		cmp	r2, #0
 657 0054 09D0     		beq	.L51
 540:main.c        ****                             txMessage.msg.size = sizeof(txMessage_t);
 658              		.loc 1 540 0
 659 0056 844B     		ldr	r3, .L65+20
 660              	.LVL65:
 661 0058 5C71     		strb	r4, [r3, #5]
 541:main.c        ****                             ChecksumErrors++;
 662              		.loc 1 541 0
 663 005a 1522     		movs	r2, #21
 664              	.LVL66:
 665 005c 1A71     		strb	r2, [r3, #4]
 542:main.c        ****                             
 666              		.loc 1 542 0
 667 005e 834A     		ldr	r2, .L65+24
 668 0060 1388     		ldrh	r3, [r2]
 669 0062 0133     		adds	r3, r3, #1
 670 0064 9BB2     		uxth	r3, r3
 671 0066 1380     		strh	r3, [r2]
 672 0068 95E0     		b	.L52
 673              	.LVL67:
 674              	.L51:
 548:main.c        ****                             
 675              		.loc 1 548 0
 676 006a 631E     		subs	r3, r4, #1
 677              	.LVL68:
 678 006c DBB2     		uxtb	r3, r3
 679 006e 022B     		cmp	r3, #2
 680 0070 00D9     		bls	.LCB561
 681 0072 90E0     		b	.L52	@long jump
 682              	.LCB561:
 550:main.c        ****                                 
 683              		.loc 1 550 0
 684 0074 012C     		cmp	r4, #1
 685 0076 02D0     		beq	.L53
 686 0078 022C     		cmp	r4, #2
 687 007a 5DD0     		beq	.L54
 688 007c 8BE0     		b	.L52
 689              	.L53:
 557:main.c        ****                                         refKi = rxMessage.config.Ki;
 690              		.loc 1 557 0
 691 007e 794B     		ldr	r3, .L65+16
 692 0080 1A79     		ldrb	r2, [r3, #4]
 693              	.LVL69:
 694 0082 5979     		ldrb	r1, [r3, #5]
 695 0084 0902     		lsls	r1, r1, #8
 696 0086 1143     		orrs	r1, r2
 697 0088 9A79     		ldrb	r2, [r3, #6]
 698 008a 1204     		lsls	r2, r2, #16
 699 008c 0A43     		orrs	r2, r1
 700 008e 1100     		movs	r1, r2
 701 0090 DA79     		ldrb	r2, [r3, #7]
 702 0092 1206     		lsls	r2, r2, #24
 703 0094 0A43     		orrs	r2, r1
 704 0096 7649     		ldr	r1, .L65+28
 705 0098 0A60     		str	r2, [r1]
 558:main.c        ****                                         refKd = rxMessage.config.Kd;                               
ARM GAS  C:\Users\PRICHA~1\AppData\Local\Temp\cctE1isk.s 			page 38


 706              		.loc 1 558 0
 707 009a 1A7A     		ldrb	r2, [r3, #8]
 708 009c 597A     		ldrb	r1, [r3, #9]
 709 009e 0902     		lsls	r1, r1, #8
 710 00a0 1143     		orrs	r1, r2
 711 00a2 9A7A     		ldrb	r2, [r3, #10]
 712 00a4 1204     		lsls	r2, r2, #16
 713 00a6 0A43     		orrs	r2, r1
 714 00a8 1100     		movs	r1, r2
 715 00aa DA7A     		ldrb	r2, [r3, #11]
 716 00ac 1206     		lsls	r2, r2, #24
 717 00ae 0A43     		orrs	r2, r1
 718 00b0 7049     		ldr	r1, .L65+32
 719 00b2 0A60     		str	r2, [r1]
 559:main.c        ****                                            
 720              		.loc 1 559 0
 721 00b4 1A7B     		ldrb	r2, [r3, #12]
 722 00b6 597B     		ldrb	r1, [r3, #13]
 723 00b8 0902     		lsls	r1, r1, #8
 724 00ba 1143     		orrs	r1, r2
 725 00bc 9A7B     		ldrb	r2, [r3, #14]
 726 00be 1204     		lsls	r2, r2, #16
 727 00c0 0A43     		orrs	r2, r1
 728 00c2 1100     		movs	r1, r2
 729 00c4 DA7B     		ldrb	r2, [r3, #15]
 730 00c6 1206     		lsls	r2, r2, #24
 731 00c8 0A43     		orrs	r2, r1
 732 00ca 6B49     		ldr	r1, .L65+36
 733 00cc 0A60     		str	r2, [r1]
 562:main.c        ****                                     
 734              		.loc 1 562 0
 735 00ce 0021     		movs	r1, #0
 736 00d0 6A4A     		ldr	r2, .L65+40
 737 00d2 1170     		strb	r1, [r2]
 565:main.c        ****                                         if (limit > 100)
 738              		.loc 1 565 0
 739 00d4 187C     		ldrb	r0, [r3, #16]
 740              	.LVL70:
 566:main.c        ****                                             limit = 100;
 741              		.loc 1 566 0
 742 00d6 6428     		cmp	r0, #100
 743 00d8 00D9     		bls	.L55
 567:main.c        ****                                     
 744              		.loc 1 567 0
 745 00da 6420     		movs	r0, #100
 746              	.LVL71:
 747              	.L55:
 569:main.c        ****                                         
 748              		.loc 1 569 0
 749 00dc FFF7FEFF 		bl	__aeabi_ui2f
 750              	.LVL72:
 751 00e0 041C     		adds	r4, r0, #0
 752              	.LVL73:
 753 00e2 674B     		ldr	r3, .L65+44
 754 00e4 1860     		str	r0, [r3]
 571:main.c        ****                                         if (limit > 100)
 755              		.loc 1 571 0
ARM GAS  C:\Users\PRICHA~1\AppData\Local\Temp\cctE1isk.s 			page 39


 756 00e6 5F4B     		ldr	r3, .L65+16
 757 00e8 587C     		ldrb	r0, [r3, #17]
 758              	.LVL74:
 572:main.c        ****                                             limit = 100;
 759              		.loc 1 572 0
 760 00ea 6428     		cmp	r0, #100
 761 00ec 00D9     		bls	.L56
 573:main.c        ****                                         
 762              		.loc 1 573 0
 763 00ee 6420     		movs	r0, #100
 764              	.LVL75:
 765              	.L56:
 575:main.c        ****                                         
 766              		.loc 1 575 0
 767 00f0 FFF7FEFF 		bl	__aeabi_ui2f
 768              	.LVL76:
 769 00f4 634B     		ldr	r3, .L65+48
 770 00f6 1860     		str	r0, [r3]
 583:main.c        ****                                         pwmMax = 50 + pwmLimit;
 771              		.loc 1 583 0
 772 00f8 6349     		ldr	r1, .L65+52
 773 00fa 201C     		adds	r0, r4, #0
 774 00fc FFF7FEFF 		bl	__aeabi_fdiv
 775              	.LVL77:
 776 0100 6249     		ldr	r1, .L65+56
 777 0102 FFF7FEFF 		bl	__aeabi_fmul
 778              	.LVL78:
 779 0106 041C     		adds	r4, r0, #0
 780 0108 614B     		ldr	r3, .L65+60
 781 010a 1860     		str	r0, [r3]
 584:main.c        ****                                         pwmMin = 50 - pwmLimit;
 782              		.loc 1 584 0
 783 010c 5F49     		ldr	r1, .L65+56
 784 010e FFF7FEFF 		bl	__aeabi_fadd
 785              	.LVL79:
 786 0112 604B     		ldr	r3, .L65+64
 787 0114 1860     		str	r0, [r3]
 585:main.c        ****                                     
 788              		.loc 1 585 0
 789 0116 211C     		adds	r1, r4, #0
 790 0118 5C48     		ldr	r0, .L65+56
 791 011a FFF7FEFF 		bl	__aeabi_fsub
 792              	.LVL80:
 793 011e 5E4B     		ldr	r3, .L65+68
 794 0120 1860     		str	r0, [r3]
 588:main.c        ****                                         ConfigSequence = rxMessage.config.sequence;
 795              		.loc 1 588 0
 796 0122 0222     		movs	r2, #2
 797 0124 5D4B     		ldr	r3, .L65+72
 798 0126 1A70     		strb	r2, [r3]
 589:main.c        ****                                     
 799              		.loc 1 589 0
 800 0128 4E4B     		ldr	r3, .L65+16
 801 012a DA78     		ldrb	r2, [r3, #3]
 802 012c 5C4B     		ldr	r3, .L65+76
 803 012e 1A70     		strb	r2, [r3]
 592:main.c        ****                                         break;
ARM GAS  C:\Users\PRICHA~1\AppData\Local\Temp\cctE1isk.s 			page 40


 804              		.loc 1 592 0
 805 0130 0020     		movs	r0, #0
 806 0132 FFF7FEFF 		bl	ClearFault
 807              	.LVL81:
 593:main.c        **** 
 808              		.loc 1 593 0
 809 0136 2EE0     		b	.L52
 810              	.LVL82:
 811              	.L54:
 597:main.c        ****                                         
 812              		.loc 1 597 0
 813 0138 4A48     		ldr	r0, .L65+16
 814              	.LVL83:
 815 013a C378     		ldrb	r3, [r0, #3]
 816 013c 5A1E     		subs	r2, r3, #1
 817 013e 9341     		sbcs	r3, r3, r2
 818              	.LVL84:
 819 0140 584A     		ldr	r2, .L65+80
 820 0142 1370     		strb	r3, [r2]
 600:main.c        ****                                             
 821              		.loc 1 600 0
 822 0144 0379     		ldrb	r3, [r0, #4]
 823 0146 4279     		ldrb	r2, [r0, #5]
 824 0148 1202     		lsls	r2, r2, #8
 825 014a 1A43     		orrs	r2, r3
 826 014c 8379     		ldrb	r3, [r0, #6]
 827 014e 1B04     		lsls	r3, r3, #16
 828 0150 1343     		orrs	r3, r2
 829 0152 1A00     		movs	r2, r3
 830 0154 C379     		ldrb	r3, [r0, #7]
 831 0156 1B06     		lsls	r3, r3, #24
 832 0158 1343     		orrs	r3, r2
 833 015a 534A     		ldr	r2, .L65+84
 834 015c 1268     		ldr	r2, [r2]
 835 015e 9342     		cmp	r3, r2
 836 0160 14D0     		beq	.L57
 603:main.c        ****                                             
 837              		.loc 1 603 0
 838 0162 FFF7FEFF 		bl	GetPosition
 839              	.LVL85:
 840 0166 514B     		ldr	r3, .L65+88
 841 0168 1860     		str	r0, [r3]
 606:main.c        ****                                             
 842              		.loc 1 606 0
 843 016a 3E48     		ldr	r0, .L65+16
 844 016c 0379     		ldrb	r3, [r0, #4]
 845 016e 4279     		ldrb	r2, [r0, #5]
 846 0170 1202     		lsls	r2, r2, #8
 847 0172 1A43     		orrs	r2, r3
 848 0174 8379     		ldrb	r3, [r0, #6]
 849 0176 1B04     		lsls	r3, r3, #16
 850 0178 1343     		orrs	r3, r2
 851 017a 1A00     		movs	r2, r3
 852 017c C379     		ldrb	r3, [r0, #7]
 853 017e 1B06     		lsls	r3, r3, #24
 854 0180 1343     		orrs	r3, r2
 855 0182 494A     		ldr	r2, .L65+84
ARM GAS  C:\Users\PRICHA~1\AppData\Local\Temp\cctE1isk.s 			page 41


 856 0184 1360     		str	r3, [r2]
 609:main.c        ****                                         }                                        
 857              		.loc 1 609 0
 858 0186 0020     		movs	r0, #0
 859 0188 FFF7FEFF 		bl	Index_Counter_1_WriteCounter
 860              	.LVL86:
 861              	.L57:
 613:main.c        ****                                         break;
 862              		.loc 1 613 0
 863 018c 354B     		ldr	r3, .L65+16
 864 018e 0822     		movs	r2, #8
 865 0190 9A56     		ldrsb	r2, [r3, r2]
 866 0192 3A4B     		ldr	r3, .L65+40
 867 0194 1A70     		strb	r2, [r3]
 868              	.LVL87:
 869              	.L52:
 624:main.c        ****                         
 870              		.loc 1 624 0
 871 0196 FFF7FEFF 		bl	GetPosition
 872              	.LVL88:
 873 019a 4549     		ldr	r1, .L65+92
 874 019c 0860     		str	r0, [r1]
 627:main.c        ****                         txMessage.msg.version0 = FIRMWARE_REV_0;
 875              		.loc 1 627 0
 876 019e 324B     		ldr	r3, .L65+20
 877 01a0 0022     		movs	r2, #0
 878 01a2 1A70     		strb	r2, [r3]
 628:main.c        ****                         txMessage.msg.version1 = FIRMWARE_REV_1;
 879              		.loc 1 628 0
 880 01a4 5A70     		strb	r2, [r3, #1]
 629:main.c        ****                         txMessage.msg.version2 = FIRMWARE_REV_2;
 881              		.loc 1 629 0
 882 01a6 9A70     		strb	r2, [r3, #2]
 630:main.c        ****                         txMessage.msg.size     = sizeof(txMessage_t);
 883              		.loc 1 630 0
 884 01a8 0332     		adds	r2, r2, #3
 885 01aa DA70     		strb	r2, [r3, #3]
 631:main.c        ****                         txMessage.msg.opcode   = opStatus;
 886              		.loc 1 631 0
 887 01ac 1232     		adds	r2, r2, #18
 888 01ae 1A71     		strb	r2, [r3, #4]
 632:main.c        ****                         txMessage.msg.state    = (uint8) ConfigState;
 889              		.loc 1 632 0
 890 01b0 133A     		subs	r2, r2, #19
 891 01b2 5A71     		strb	r2, [r3, #5]
 633:main.c        ****                         txMessage.msg.fault    = (uint8) FaultState;
 892              		.loc 1 633 0
 893 01b4 394A     		ldr	r2, .L65+72
 894 01b6 1278     		ldrb	r2, [r2]
 895 01b8 9A71     		strb	r2, [r3, #6]
 634:main.c        ****                         txMessage.msg.checksum_errors = ChecksumErrors;
 896              		.loc 1 634 0
 897 01ba 3E4A     		ldr	r2, .L65+96
 898 01bc 1278     		ldrb	r2, [r2]
 899 01be DA71     		strb	r2, [r3, #7]
 635:main.c        ****                         txMessage.msg.sequence = ConfigSequence;
 900              		.loc 1 635 0
ARM GAS  C:\Users\PRICHA~1\AppData\Local\Temp\cctE1isk.s 			page 42


 901 01c0 2A4A     		ldr	r2, .L65+24
 902 01c2 1288     		ldrh	r2, [r2]
 903 01c4 92B2     		uxth	r2, r2
 904 01c6 5A72     		strb	r2, [r3, #9]
 905 01c8 120A     		lsrs	r2, r2, #8
 906 01ca 9A72     		strb	r2, [r3, #10]
 636:main.c        ****                         txMessage.msg.position = Position;
 907              		.loc 1 636 0
 908 01cc 344A     		ldr	r2, .L65+76
 909 01ce 1278     		ldrb	r2, [r2]
 910 01d0 1A72     		strb	r2, [r3, #8]
 637:main.c        ****                         txMessage.msg.pwm      = PWM;
 911              		.loc 1 637 0
 912 01d2 0A68     		ldr	r2, [r1]
 913 01d4 5A73     		strb	r2, [r3, #13]
 914 01d6 100A     		lsrs	r0, r2, #8
 915 01d8 9873     		strb	r0, [r3, #14]
 916 01da 100C     		lsrs	r0, r2, #16
 917 01dc D873     		strb	r0, [r3, #15]
 918 01de 120E     		lsrs	r2, r2, #24
 919 01e0 1A74     		strb	r2, [r3, #16]
 638:main.c        ****                         txMessage.msg.current  = Current;                            
 920              		.loc 1 638 0
 921 01e2 354A     		ldr	r2, .L65+100
 922 01e4 1268     		ldr	r2, [r2]
 923 01e6 5A74     		strb	r2, [r3, #17]
 924 01e8 100A     		lsrs	r0, r2, #8
 925 01ea 9874     		strb	r0, [r3, #18]
 926 01ec 100C     		lsrs	r0, r2, #16
 927 01ee D874     		strb	r0, [r3, #19]
 928 01f0 120E     		lsrs	r2, r2, #24
 929 01f2 1A75     		strb	r2, [r3, #20]
 639:main.c        ****                         
 930              		.loc 1 639 0
 931 01f4 314A     		ldr	r2, .L65+104
 932 01f6 1288     		ldrh	r2, [r2]
 933 01f8 DA72     		strb	r2, [r3, #11]
 934 01fa 120A     		lsrs	r2, r2, #8
 935 01fc 1A73     		strb	r2, [r3, #12]
 936              	.LVL89:
 642:main.c        ****                             checksum += txMessage.buf[i]; 
 937              		.loc 1 642 0
 938 01fe 0022     		movs	r2, #0
 939 0200 0023     		movs	r3, #0
 940 0202 05E0     		b	.L58
 941              	.LVL90:
 942              	.L59:
 643:main.c        ****                             
 943              		.loc 1 643 0 discriminator 3
 944 0204 1849     		ldr	r1, .L65+20
 945 0206 C95C     		ldrb	r1, [r1, r3]
 946 0208 5218     		adds	r2, r2, r1
 947              	.LVL91:
 948 020a D2B2     		uxtb	r2, r2
 949              	.LVL92:
 642:main.c        ****                             checksum += txMessage.buf[i]; 
 950              		.loc 1 642 0 discriminator 3
ARM GAS  C:\Users\PRICHA~1\AppData\Local\Temp\cctE1isk.s 			page 43


 951 020c 0133     		adds	r3, r3, #1
 952              	.LVL93:
 953 020e DBB2     		uxtb	r3, r3
 954              	.LVL94:
 955              	.L58:
 642:main.c        ****                             checksum += txMessage.buf[i]; 
 956              		.loc 1 642 0 is_stmt 0 discriminator 1
 957 0210 142B     		cmp	r3, #20
 958 0212 F7D9     		bls	.L59
 646:main.c        ****                             
 959              		.loc 1 646 0 is_stmt 1
 960 0214 1448     		ldr	r0, .L65+20
 961 0216 5242     		rsbs	r2, r2, #0
 962              	.LVL95:
 963 0218 0270     		strb	r2, [r0]
 650:main.c        **** 
 964              		.loc 1 650 0
 965 021a 1E21     		movs	r1, #30
 966 021c FFF7FEFF 		bl	SPI_1_SpiUartPutArray
 967              	.LVL96:
 653:main.c        ****                         
 968              		.loc 1 653 0
 969 0220 0122     		movs	r2, #1
 970 0222 0E4B     		ldr	r3, .L65+8
 971 0224 1A70     		strb	r2, [r3]
 656:main.c        ****                             ClearFault(fsNONE);
 972              		.loc 1 656 0
 973 0226 0F4B     		ldr	r3, .L65+16
 974 0228 5B7A     		ldrb	r3, [r3, #9]
 975 022a 002B     		cmp	r3, #0
 976 022c 02D0     		beq	.L60
 657:main.c        ****                     
 977              		.loc 1 657 0
 978 022e 0020     		movs	r0, #0
 979 0230 FFF7FEFF 		bl	ClearFault
 980              	.LVL97:
 981              	.L60:
 660:main.c        ****                     }            
 982              		.loc 1 660 0
 983 0234 0A4B     		ldr	r3, .L65+12
 984 0236 1868     		ldr	r0, [r3]
 985 0238 0023     		movs	r3, #0
 986 023a 0022     		movs	r2, #0
 987 023c 0021     		movs	r1, #0
 988 023e FFF7FEFF 		bl	xQueueGenericSend
 989              	.LVL98:
 990              	.L46:
 676:main.c        ****         
 991              		.loc 1 676 0
 992 0242 0120     		movs	r0, #1
 993 0244 FFF7FEFF 		bl	vTaskDelay
 994              	.LVL99:
 679:main.c        ****     }
 995              		.loc 1 679 0
 996 0248 0020     		movs	r0, #0
 997 024a FFF7FEFF 		bl	uxTaskGetStackHighWaterMark
 998              	.LVL100:
ARM GAS  C:\Users\PRICHA~1\AppData\Local\Temp\cctE1isk.s 			page 44


 999 024e 014B     		ldr	r3, .L65
 1000 0250 1860     		str	r0, [r3]
 680:main.c        **** }
 1001              		.loc 1 680 0
 1002 0252 DBE6     		b	.L61
 1003              	.L66:
 1004              		.align	2
 1005              	.L65:
 1006 0254 00000000 		.word	uxHighWaterMark_Comm
 1007 0258 24000740 		.word	1074200612
 1008 025c 00000000 		.word	txMessageState
 1009 0260 00000000 		.word	Lock
 1010 0264 00000000 		.word	rxMessage
 1011 0268 00000000 		.word	txMessage
 1012 026c 00000000 		.word	ChecksumErrors
 1013 0270 00000000 		.word	refKp
 1014 0274 00000000 		.word	refKi
 1015 0278 00000000 		.word	refKd
 1016 027c 00000000 		.word	Jog
 1017 0280 00000000 		.word	outMax_Total
 1018 0284 00000000 		.word	outMax_ITerm
 1019 0288 0000C842 		.word	1120403456
 1020 028c 00004842 		.word	1112014848
 1021 0290 00000000 		.word	pwmLimit
 1022 0294 00000000 		.word	pwmMax
 1023 0298 00000000 		.word	pwmMin
 1024 029c 00000000 		.word	ConfigState
 1025 02a0 00000000 		.word	ConfigSequence
 1026 02a4 00000000 		.word	PID_Enabled
 1027 02a8 00000000 		.word	PID_Setpoint
 1028 02ac 00000000 		.word	LastPosition
 1029 02b0 00000000 		.word	Position
 1030 02b4 00000000 		.word	FaultState
 1031 02b8 00000000 		.word	PWM
 1032 02bc 00000000 		.word	Current
 1033              		.cfi_endproc
 1034              	.LFE36:
 1035              		.size	Comm_Task, .-Comm_Task
 1036              		.section	.text.PID_Initialize,"ax",%progbits
 1037              		.align	2
 1038              		.global	PID_Initialize
 1039              		.code	16
 1040              		.thumb_func
 1041              		.type	PID_Initialize, %function
 1042              	PID_Initialize:
 1043              	.LFB39:
 755:main.c        ****     
 1044              		.loc 1 755 0
 1045              		.cfi_startproc
 1046              		@ args = 0, pretend = 0, frame = 0
 1047              		@ frame_needed = 0, uses_anonymous_args = 0
 1048 0000 10B5     		push	{r4, lr}
 1049              		.cfi_def_cfa_offset 8
 1050              		.cfi_offset 4, -8
 1051              		.cfi_offset 14, -4
 758:main.c        ****     LastPosition = Position;
 1052              		.loc 1 758 0
ARM GAS  C:\Users\PRICHA~1\AppData\Local\Temp\cctE1isk.s 			page 45


 1053 0002 FFF7FEFF 		bl	GetPosition
 1054              	.LVL101:
 1055 0006 044B     		ldr	r3, .L68
 1056 0008 1860     		str	r0, [r3]
 759:main.c        ****     
 1057              		.loc 1 759 0
 1058 000a 1A68     		ldr	r2, [r3]
 1059 000c 034B     		ldr	r3, .L68+4
 1060 000e 1A60     		str	r2, [r3]
 763:main.c        **** }    
 1061              		.loc 1 763 0
 1062 0010 0022     		movs	r2, #0
 1063 0012 034B     		ldr	r3, .L68+8
 1064 0014 1A60     		str	r2, [r3]
 764:main.c        **** 
 1065              		.loc 1 764 0
 1066              		@ sp needed
 1067 0016 10BD     		pop	{r4, pc}
 1068              	.L69:
 1069              		.align	2
 1070              	.L68:
 1071 0018 00000000 		.word	Position
 1072 001c 00000000 		.word	LastPosition
 1073 0020 00000000 		.word	ITerm
 1074              		.cfi_endproc
 1075              	.LFE39:
 1076              		.size	PID_Initialize, .-PID_Initialize
 1077              		.section	.text.PID_SetTunings,"ax",%progbits
 1078              		.align	2
 1079              		.global	PID_SetTunings
 1080              		.code	16
 1081              		.thumb_func
 1082              		.type	PID_SetTunings, %function
 1083              	PID_SetTunings:
 1084              	.LFB40:
 776:main.c        ****     
 1085              		.loc 1 776 0
 1086              		.cfi_startproc
 1087              		@ args = 0, pretend = 0, frame = 0
 1088              		@ frame_needed = 0, uses_anonymous_args = 0
 1089              	.LVL102:
 1090 0000 F8B5     		push	{r3, r4, r5, r6, r7, lr}
 1091              		.cfi_def_cfa_offset 24
 1092              		.cfi_offset 3, -24
 1093              		.cfi_offset 4, -20
 1094              		.cfi_offset 5, -16
 1095              		.cfi_offset 6, -12
 1096              		.cfi_offset 7, -8
 1097              		.cfi_offset 14, -4
 1098 0002 0E1C     		adds	r6, r1, #0
 1099 0004 151C     		adds	r5, r2, #0
 1100 0006 1C1C     		adds	r4, r3, #0
 778:main.c        ****     
 1101              		.loc 1 778 0
 1102 0008 0028     		cmp	r0, #0
 1103 000a 12D0     		beq	.L70
 1104              	.LBB2:
ARM GAS  C:\Users\PRICHA~1\AppData\Local\Temp\cctE1isk.s 			page 46


 780:main.c        ****     
 1105              		.loc 1 780 0
 1106 000c FFF7FEFF 		bl	__aeabi_ui2f
 1107              	.LVL103:
 1108 0010 0849     		ldr	r1, .L72
 1109 0012 FFF7FEFF 		bl	__aeabi_fdiv
 1110              	.LVL104:
 1111 0016 071C     		adds	r7, r0, #0
 1112              	.LVL105:
 782:main.c        ****         ki = newKi * sampleTimeInSec;
 1113              		.loc 1 782 0
 1114 0018 074B     		ldr	r3, .L72+4
 1115 001a 1E60     		str	r6, [r3]
 783:main.c        ****         kd = newKd / sampleTimeInSec;        
 1116              		.loc 1 783 0
 1117 001c 291C     		adds	r1, r5, #0
 1118 001e FFF7FEFF 		bl	__aeabi_fmul
 1119              	.LVL106:
 1120 0022 064B     		ldr	r3, .L72+8
 1121 0024 1860     		str	r0, [r3]
 784:main.c        ****     }
 1122              		.loc 1 784 0
 1123 0026 391C     		adds	r1, r7, #0
 1124 0028 201C     		adds	r0, r4, #0
 1125 002a FFF7FEFF 		bl	__aeabi_fdiv
 1126              	.LVL107:
 1127 002e 044B     		ldr	r3, .L72+12
 1128 0030 1860     		str	r0, [r3]
 1129              	.LVL108:
 1130              	.L70:
 1131              	.LBE2:
 786:main.c        **** 
 1132              		.loc 1 786 0
 1133              		@ sp needed
 1134              	.LVL109:
 1135              	.LVL110:
 1136              	.LVL111:
 1137 0032 F8BD     		pop	{r3, r4, r5, r6, r7, pc}
 1138              	.L73:
 1139              		.align	2
 1140              	.L72:
 1141 0034 00007A44 		.word	1148846080
 1142 0038 00000000 		.word	kp
 1143 003c 00000000 		.word	ki
 1144 0040 00000000 		.word	kd
 1145              		.cfi_endproc
 1146              	.LFE40:
 1147              		.size	PID_SetTunings, .-PID_SetTunings
 1148              		.global	__aeabi_i2f
 1149              		.section	.text.PID_Compute,"ax",%progbits
 1150              		.align	2
 1151              		.global	PID_Compute
 1152              		.code	16
 1153              		.thumb_func
 1154              		.type	PID_Compute, %function
 1155              	PID_Compute:
 1156              	.LFB41:
ARM GAS  C:\Users\PRICHA~1\AppData\Local\Temp\cctE1isk.s 			page 47


 798:main.c        ****     
 1157              		.loc 1 798 0
 1158              		.cfi_startproc
 1159              		@ args = 0, pretend = 0, frame = 0
 1160              		@ frame_needed = 0, uses_anonymous_args = 0
 1161              	.LVL112:
 1162 0000 F8B5     		push	{r3, r4, r5, r6, r7, lr}
 1163              		.cfi_def_cfa_offset 24
 1164              		.cfi_offset 3, -24
 1165              		.cfi_offset 4, -20
 1166              		.cfi_offset 5, -16
 1167              		.cfi_offset 6, -12
 1168              		.cfi_offset 7, -8
 1169              		.cfi_offset 14, -4
 1170 0002 0400     		movs	r4, r0
 1171 0004 0D00     		movs	r5, r1
 803:main.c        ****         return 0;
 1172              		.loc 1 803 0
 1173 0006 3D4B     		ldr	r3, .L92
 1174 0008 1B78     		ldrb	r3, [r3]
 1175 000a 002B     		cmp	r3, #0
 1176 000c 74D0     		beq	.L85
 807:main.c        **** 
 1177              		.loc 1 807 0
 1178 000e FFF7FEFF 		bl	GetPosition
 1179              	.LVL113:
 1180 0012 3B4B     		ldr	r3, .L92+4
 1181 0014 1860     		str	r0, [r3]
 810:main.c        ****     
 1182              		.loc 1 810 0
 1183 0016 3B4B     		ldr	r3, .L92+8
 1184 0018 1868     		ldr	r0, [r3]
 1185 001a 201A     		subs	r0, r4, r0
 1186              	.LVL114:
 813:main.c        **** 
 1187              		.loc 1 813 0
 1188 001c 3A4B     		ldr	r3, .L92+12
 1189 001e 1B68     		ldr	r3, [r3]
 1190 0020 9842     		cmp	r0, r3
 1191 0022 66D3     		bcc	.L76
 817:main.c        ****         
 1192              		.loc 1 817 0
 1193 0024 394B     		ldr	r3, .L92+16
 1194 0026 1B68     		ldr	r3, [r3]
 1195 0028 394A     		ldr	r2, .L92+20
 1196 002a 1268     		ldr	r2, [r2]
 1197 002c 3949     		ldr	r1, .L92+24
 1198 002e 0968     		ldr	r1, [r1]
 1199 0030 FFF7FEFF 		bl	PID_SetTunings
 1200              	.LVL115:
 820:main.c        ****         ITerm += (ki * error);
 1201              		.loc 1 820 0
 1202 0034 324B     		ldr	r3, .L92+4
 1203 0036 1868     		ldr	r0, [r3]
 1204 0038 281A     		subs	r0, r5, r0
 1205              	.LVL116:
 821:main.c        ****         
ARM GAS  C:\Users\PRICHA~1\AppData\Local\Temp\cctE1isk.s 			page 48


 1206              		.loc 1 821 0
 1207 003a FFF7FEFF 		bl	__aeabi_i2f
 1208              	.LVL117:
 1209 003e 071C     		adds	r7, r0, #0
 1210 0040 354B     		ldr	r3, .L92+28
 1211 0042 1968     		ldr	r1, [r3]
 1212 0044 FFF7FEFF 		bl	__aeabi_fmul
 1213              	.LVL118:
 1214 0048 344D     		ldr	r5, .L92+32
 1215              	.LVL119:
 1216 004a 2968     		ldr	r1, [r5]
 1217 004c FFF7FEFF 		bl	__aeabi_fadd
 1218              	.LVL120:
 1219 0050 061C     		adds	r6, r0, #0
 1220 0052 2860     		str	r0, [r5]
 824:main.c        ****             ITerm = outMax_ITerm;
 1221              		.loc 1 824 0
 1222 0054 324B     		ldr	r3, .L92+36
 1223 0056 1D68     		ldr	r5, [r3]
 1224 0058 291C     		adds	r1, r5, #0
 1225 005a FFF7FEFF 		bl	__aeabi_fcmpgt
 1226              	.LVL121:
 1227 005e 0028     		cmp	r0, #0
 1228 0060 02D0     		beq	.L90
 825:main.c        ****         } else if (ITerm < -outMax_ITerm) {
 1229              		.loc 1 825 0
 1230 0062 2E4B     		ldr	r3, .L92+32
 1231 0064 1D60     		str	r5, [r3]
 1232 0066 0BE0     		b	.L79
 1233              	.L90:
 826:main.c        ****             ITerm = -outMax_ITerm;
 1234              		.loc 1 826 0
 1235 0068 8023     		movs	r3, #128
 1236 006a 1B06     		lsls	r3, r3, #24
 1237 006c 9C46     		mov	ip, r3
 1238 006e 6544     		add	r5, r5, ip
 1239 0070 291C     		adds	r1, r5, #0
 1240 0072 301C     		adds	r0, r6, #0
 1241 0074 FFF7FEFF 		bl	__aeabi_fcmplt
 1242              	.LVL122:
 1243 0078 0028     		cmp	r0, #0
 1244 007a 01D0     		beq	.L79
 827:main.c        ****         }
 1245              		.loc 1 827 0
 1246 007c 274B     		ldr	r3, .L92+32
 1247 007e 1D60     		str	r5, [r3]
 1248              	.L79:
 831:main.c        **** 
 1249              		.loc 1 831 0
 1250 0080 1F4B     		ldr	r3, .L92+4
 1251 0082 1B68     		ldr	r3, [r3]
 1252 0084 274A     		ldr	r2, .L92+40
 1253 0086 1568     		ldr	r5, [r2]
 1254 0088 5D1B     		subs	r5, r3, r5
 1255              	.LVL123:
 834:main.c        ****         
 1256              		.loc 1 834 0
ARM GAS  C:\Users\PRICHA~1\AppData\Local\Temp\cctE1isk.s 			page 49


 1257 008a 274B     		ldr	r3, .L92+44
 1258 008c 1968     		ldr	r1, [r3]
 1259 008e 381C     		adds	r0, r7, #0
 1260 0090 FFF7FEFF 		bl	__aeabi_fmul
 1261              	.LVL124:
 1262 0094 214B     		ldr	r3, .L92+32
 1263 0096 1968     		ldr	r1, [r3]
 1264 0098 FFF7FEFF 		bl	__aeabi_fadd
 1265              	.LVL125:
 1266 009c 061C     		adds	r6, r0, #0
 1267 009e 2800     		movs	r0, r5
 1268 00a0 FFF7FEFF 		bl	__aeabi_i2f
 1269              	.LVL126:
 1270 00a4 214B     		ldr	r3, .L92+48
 1271 00a6 1968     		ldr	r1, [r3]
 1272 00a8 FFF7FEFF 		bl	__aeabi_fmul
 1273              	.LVL127:
 1274 00ac 011C     		adds	r1, r0, #0
 1275 00ae 301C     		adds	r0, r6, #0
 1276 00b0 FFF7FEFF 		bl	__aeabi_fsub
 1277              	.LVL128:
 1278 00b4 061C     		adds	r6, r0, #0
 1279 00b6 1E4B     		ldr	r3, .L92+52
 1280 00b8 1860     		str	r0, [r3]
 837:main.c        ****             Output = outMax_Total;
 1281              		.loc 1 837 0
 1282 00ba 1E4B     		ldr	r3, .L92+56
 1283 00bc 1D68     		ldr	r5, [r3]
 1284              	.LVL129:
 1285 00be 291C     		adds	r1, r5, #0
 1286 00c0 FFF7FEFF 		bl	__aeabi_fcmpgt
 1287              	.LVL130:
 1288 00c4 0028     		cmp	r0, #0
 1289 00c6 02D0     		beq	.L91
 838:main.c        ****         } else if (Output < -outMax_Total) {
 1290              		.loc 1 838 0
 1291 00c8 194B     		ldr	r3, .L92+52
 1292 00ca 1D60     		str	r5, [r3]
 1293 00cc 0BE0     		b	.L83
 1294              	.L91:
 839:main.c        ****             Output = -outMax_Total;
 1295              		.loc 1 839 0
 1296 00ce 8023     		movs	r3, #128
 1297 00d0 1B06     		lsls	r3, r3, #24
 1298 00d2 9C46     		mov	ip, r3
 1299 00d4 6544     		add	r5, r5, ip
 1300 00d6 291C     		adds	r1, r5, #0
 1301 00d8 301C     		adds	r0, r6, #0
 1302 00da FFF7FEFF 		bl	__aeabi_fcmplt
 1303              	.LVL131:
 1304 00de 0028     		cmp	r0, #0
 1305 00e0 01D0     		beq	.L83
 840:main.c        ****         }
 1306              		.loc 1 840 0
 1307 00e2 134B     		ldr	r3, .L92+52
 1308 00e4 1D60     		str	r5, [r3]
 1309              	.L83:
ARM GAS  C:\Users\PRICHA~1\AppData\Local\Temp\cctE1isk.s 			page 50


 844:main.c        ****         lastTime = now;        
 1310              		.loc 1 844 0
 1311 00e6 064B     		ldr	r3, .L92+4
 1312 00e8 1A68     		ldr	r2, [r3]
 1313 00ea 0E4B     		ldr	r3, .L92+40
 1314 00ec 1A60     		str	r2, [r3]
 845:main.c        ****     }
 1315              		.loc 1 845 0
 1316 00ee 054B     		ldr	r3, .L92+8
 1317 00f0 1C60     		str	r4, [r3]
 1318              	.L76:
 848:main.c        **** }
 1319              		.loc 1 848 0
 1320 00f2 0F4B     		ldr	r3, .L92+52
 1321 00f4 1868     		ldr	r0, [r3]
 1322 00f6 00E0     		b	.L75
 1323              	.LVL132:
 1324              	.L85:
 804:main.c        ****     
 1325              		.loc 1 804 0
 1326 00f8 0020     		movs	r0, #0
 1327              	.LVL133:
 1328              	.L75:
 849:main.c        ****  
 1329              		.loc 1 849 0
 1330              		@ sp needed
 1331              	.LVL134:
 1332 00fa F8BD     		pop	{r3, r4, r5, r6, r7, pc}
 1333              	.L93:
 1334              		.align	2
 1335              	.L92:
 1336 00fc 00000000 		.word	.LANCHOR0
 1337 0100 00000000 		.word	Position
 1338 0104 00000000 		.word	lastTime
 1339 0108 00000000 		.word	.LANCHOR1
 1340 010c 00000000 		.word	refKd
 1341 0110 00000000 		.word	refKi
 1342 0114 00000000 		.word	refKp
 1343 0118 00000000 		.word	ki
 1344 011c 00000000 		.word	ITerm
 1345 0120 00000000 		.word	outMax_ITerm
 1346 0124 00000000 		.word	LastPosition
 1347 0128 00000000 		.word	kp
 1348 012c 00000000 		.word	kd
 1349 0130 00000000 		.word	Output
 1350 0134 00000000 		.word	outMax_Total
 1351              		.cfi_endproc
 1352              	.LFE41:
 1353              		.size	PID_Compute, .-PID_Compute
 1354              		.section	.text.PID_SetMode,"ax",%progbits
 1355              		.align	2
 1356              		.global	PID_SetMode
 1357              		.code	16
 1358              		.thumb_func
 1359              		.type	PID_SetMode, %function
 1360              	PID_SetMode:
 1361              	.LFB42:
ARM GAS  C:\Users\PRICHA~1\AppData\Local\Temp\cctE1isk.s 			page 51


 860:main.c        ****     
 1362              		.loc 1 860 0
 1363              		.cfi_startproc
 1364              		@ args = 0, pretend = 0, frame = 0
 1365              		@ frame_needed = 0, uses_anonymous_args = 0
 1366              	.LVL135:
 1367 0000 10B5     		push	{r4, lr}
 1368              		.cfi_def_cfa_offset 8
 1369              		.cfi_offset 4, -8
 1370              		.cfi_offset 14, -4
 862:main.c        ****     
 1371              		.loc 1 862 0
 1372 0002 441E     		subs	r4, r0, #1
 1373 0004 6342     		rsbs	r3, r4, #0
 1374 0006 5C41     		adcs	r4, r4, r3
 1375 0008 E4B2     		uxtb	r4, r4
 1376              	.LVL136:
 864:main.c        ****         /*we just went from manual to auto*/
 1377              		.loc 1 864 0
 1378 000a 0128     		cmp	r0, #1
 1379 000c 05D1     		bne	.L95
 864:main.c        ****         /*we just went from manual to auto*/
 1380              		.loc 1 864 0 is_stmt 0 discriminator 1
 1381 000e 044B     		ldr	r3, .L96
 1382 0010 1B78     		ldrb	r3, [r3]
 1383 0012 002B     		cmp	r3, #0
 1384 0014 01D1     		bne	.L95
 866:main.c        ****     }
 1385              		.loc 1 866 0 is_stmt 1
 1386 0016 FFF7FEFF 		bl	PID_Initialize
 1387              	.LVL137:
 1388              	.L95:
 869:main.c        **** } 
 1389              		.loc 1 869 0
 1390 001a 014B     		ldr	r3, .L96
 1391 001c 1C70     		strb	r4, [r3]
 870:main.c        ****     
 1392              		.loc 1 870 0
 1393              		@ sp needed
 1394              	.LVL138:
 1395 001e 10BD     		pop	{r4, pc}
 1396              	.L97:
 1397              		.align	2
 1398              	.L96:
 1399 0020 00000000 		.word	.LANCHOR0
 1400              		.cfi_endproc
 1401              	.LFE42:
 1402              		.size	PID_SetMode, .-PID_SetMode
 1403              		.section	.text.PID_SetDrive,"ax",%progbits
 1404              		.align	2
 1405              		.global	PID_SetDrive
 1406              		.code	16
 1407              		.thumb_func
 1408              		.type	PID_SetDrive, %function
 1409              	PID_SetDrive:
 1410              	.LFB43:
 881:main.c        **** 
ARM GAS  C:\Users\PRICHA~1\AppData\Local\Temp\cctE1isk.s 			page 52


 1411              		.loc 1 881 0
 1412              		.cfi_startproc
 1413              		@ args = 0, pretend = 0, frame = 0
 1414              		@ frame_needed = 0, uses_anonymous_args = 0
 1415              	.LVL139:
 1416 0000 10B5     		push	{r4, lr}
 1417              		.cfi_def_cfa_offset 8
 1418              		.cfi_offset 4, -8
 1419              		.cfi_offset 14, -4
 885:main.c        ****     
 1420              		.loc 1 885 0
 1421 0002 0549     		ldr	r1, .L99
 1422 0004 FFF7FEFF 		bl	__aeabi_fadd
 1423              	.LVL140:
 1424 0008 FC21     		movs	r1, #252
 1425 000a 8905     		lsls	r1, r1, #22
 1426 000c FFF7FEFF 		bl	__aeabi_fmul
 1427              	.LVL141:
 888:main.c        **** }
 1428              		.loc 1 888 0
 1429 0010 FFF7FEFF 		bl	PWM_Set
 1430              	.LVL142:
 889:main.c        **** 
 1431              		.loc 1 889 0
 1432              		@ sp needed
 1433 0014 10BD     		pop	{r4, pc}
 1434              	.L100:
 1435 0016 C046     		.align	2
 1436              	.L99:
 1437 0018 0000C842 		.word	1120403456
 1438              		.cfi_endproc
 1439              	.LFE43:
 1440              		.size	PID_SetDrive, .-PID_SetDrive
 1441              		.section	.text.PID_Task,"ax",%progbits
 1442              		.align	2
 1443              		.global	PID_Task
 1444              		.code	16
 1445              		.thumb_func
 1446              		.type	PID_Task, %function
 1447              	PID_Task:
 1448              	.LFB44:
 903:main.c        ****     
 1449              		.loc 1 903 0
 1450              		.cfi_startproc
 1451              		@ args = 0, pretend = 0, frame = 0
 1452              		@ frame_needed = 0, uses_anonymous_args = 0
 1453              	.LVL143:
 1454 0000 F8B5     		push	{r3, r4, r5, r6, r7, lr}
 1455              		.cfi_def_cfa_offset 24
 1456              		.cfi_offset 3, -24
 1457              		.cfi_offset 4, -20
 1458              		.cfi_offset 5, -16
 1459              		.cfi_offset 6, -12
 1460              		.cfi_offset 7, -8
 1461              		.cfi_offset 14, -4
 1462              	.LVL144:
 913:main.c        ****     
ARM GAS  C:\Users\PRICHA~1\AppData\Local\Temp\cctE1isk.s 			page 53


 1463              		.loc 1 913 0
 1464 0002 0020     		movs	r0, #0
 1465              	.LVL145:
 1466 0004 FFF7FEFF 		bl	uxTaskGetStackHighWaterMark
 1467              	.LVL146:
 1468 0008 604B     		ldr	r3, .L112
 1469 000a 1860     		str	r0, [r3]
 919:main.c        ****     refKi = 0;
 1470              		.loc 1 919 0
 1471 000c 604D     		ldr	r5, .L112+4
 1472 000e 0024     		movs	r4, #0
 1473 0010 2C60     		str	r4, [r5]
 920:main.c        ****     refKd = 0;
 1474              		.loc 1 920 0
 1475 0012 604E     		ldr	r6, .L112+8
 1476 0014 3460     		str	r4, [r6]
 921:main.c        ****     
 1477              		.loc 1 921 0
 1478 0016 604F     		ldr	r7, .L112+12
 1479 0018 3C60     		str	r4, [r7]
 924:main.c        ****     PID_SetTunings(sleeptime, refKp, refKi, refKd);    
 1480              		.loc 1 924 0
 1481 001a FFF7FEFF 		bl	PID_Initialize
 1482              	.LVL147:
 925:main.c        ****     PID_SetMode(PID_MANUAL);
 1483              		.loc 1 925 0
 1484 001e 3B68     		ldr	r3, [r7]
 1485 0020 3268     		ldr	r2, [r6]
 1486 0022 2968     		ldr	r1, [r5]
 1487 0024 0520     		movs	r0, #5
 1488 0026 FFF7FEFF 		bl	PID_SetTunings
 1489              	.LVL148:
 926:main.c        ****     
 1490              		.loc 1 926 0
 1491 002a 0020     		movs	r0, #0
 1492 002c FFF7FEFF 		bl	PID_SetMode
 1493              	.LVL149:
 929:main.c        ****     outMax_ITerm = 100;
 1494              		.loc 1 929 0
 1495 0030 5A4B     		ldr	r3, .L112+16
 1496 0032 5B4A     		ldr	r2, .L112+20
 1497 0034 1360     		str	r3, [r2]
 930:main.c        **** 
 1498              		.loc 1 930 0
 1499 0036 5B4A     		ldr	r2, .L112+24
 1500 0038 1360     		str	r3, [r2]
 933:main.c        ****     pwmMax = PWM_JOG_NEUTRAL + pwmLimit;
 1501              		.loc 1 933 0
 1502 003a 5B49     		ldr	r1, .L112+28
 1503 003c 5B4A     		ldr	r2, .L112+32
 1504 003e 1160     		str	r1, [r2]
 934:main.c        ****     pwmMin = PWM_JOG_NEUTRAL - pwmLimit;    
 1505              		.loc 1 934 0
 1506 0040 5B4A     		ldr	r2, .L112+36
 1507 0042 1360     		str	r3, [r2]
 935:main.c        ****     
 1508              		.loc 1 935 0
ARM GAS  C:\Users\PRICHA~1\AppData\Local\Temp\cctE1isk.s 			page 54


 1509 0044 5B4B     		ldr	r3, .L112+40
 1510 0046 1C60     		str	r4, [r3]
 1511              	.LVL150:
 941:main.c        ****     PID_Was_Enabled = false;
 1512              		.loc 1 941 0
 1513 0048 0023     		movs	r3, #0
 1514 004a 5B4A     		ldr	r2, .L112+44
 1515 004c 1360     		str	r3, [r2]
 942:main.c        ****     PID_Enabled = false;
 1516              		.loc 1 942 0
 1517 004e 5B4A     		ldr	r2, .L112+48
 1518 0050 1370     		strb	r3, [r2]
 943:main.c        ****     
 1519              		.loc 1 943 0
 1520 0052 5B4A     		ldr	r2, .L112+52
 1521 0054 1370     		strb	r3, [r2]
 1522              	.LVL151:
 1523              	.L111:
 947:main.c        ****               
 1524              		.loc 1 947 0
 1525 0056 0120     		movs	r0, #1
 1526 0058 FFF7FEFF 		bl	PROBE_Write
 1527              	.LVL152:
 953:main.c        ****         /* ------------------------------------------------------------------------------------ */
 1528              		.loc 1 953 0
 1529 005c 8020     		movs	r0, #128
 1530 005e 0001     		lsls	r0, r0, #4
 1531 0060 FFF7FEFF 		bl	CySysWdtResetCounters
 1532              	.LVL153:
 961:main.c        ****         if ( (now > (LastMessageTimeTick + MAX_LAST_MESSAGE_TIME_TICKS)) ||
 1533              		.loc 1 961 0
 1534 0064 FFF7FEFF 		bl	xTaskGetTickCount
 1535              	.LVL154:
 1536 0068 0400     		movs	r4, r0
 1537              	.LVL155:
 962:main.c        ****              (now < LastMessageTimeTick) ) {
 1538              		.loc 1 962 0
 1539 006a 564B     		ldr	r3, .L112+56
 1540 006c 1B68     		ldr	r3, [r3]
 1541 006e FA22     		movs	r2, #250
 1542 0070 9200     		lsls	r2, r2, #2
 1543 0072 9A18     		adds	r2, r3, r2
 1544 0074 9042     		cmp	r0, r2
 1545 0076 01D8     		bhi	.L102
 962:main.c        ****              (now < LastMessageTimeTick) ) {
 1546              		.loc 1 962 0 is_stmt 0 discriminator 1
 1547 0078 9842     		cmp	r0, r3
 1548 007a 08D2     		bcs	.L103
 1549              	.L102:
 966:main.c        ****             PID_Enabled = false;
 1550              		.loc 1 966 0 is_stmt 1
 1551 007c 4A48     		ldr	r0, .L112+28
 1552              	.LVL156:
 1553 007e FFF7FEFF 		bl	PWM_Set
 1554              	.LVL157:
 967:main.c        ****             
 1555              		.loc 1 967 0
ARM GAS  C:\Users\PRICHA~1\AppData\Local\Temp\cctE1isk.s 			page 55


 1556 0082 0023     		movs	r3, #0
 1557 0084 4E4A     		ldr	r2, .L112+52
 1558 0086 1370     		strb	r3, [r2]
 971:main.c        **** 
 1559              		.loc 1 971 0
 1560 0088 4F4A     		ldr	r2, .L112+60
 1561 008a 1370     		strb	r3, [r2]
 1562 008c 72E0     		b	.L104
 1563              	.LVL158:
 1564              	.L103:
 974:main.c        ****             
 1565              		.loc 1 974 0
 1566 008e 4F4B     		ldr	r3, .L112+64
 1567 0090 1B78     		ldrb	r3, [r3]
 1568 0092 022B     		cmp	r3, #2
 1569 0094 6ED1     		bne	.L104
 978:main.c        ****             INDEX_OUT_SetDriveMode(INDEX_OUT_DM_STRONG); 
 1570              		.loc 1 978 0
 1571 0096 0620     		movs	r0, #6
 1572              	.LVL159:
 1573 0098 FFF7FEFF 		bl	HOME_OUT_SetDriveMode
 1574              	.LVL160:
 979:main.c        ****         
 1575              		.loc 1 979 0
 1576 009c 0620     		movs	r0, #6
 1577 009e FFF7FEFF 		bl	INDEX_OUT_SetDriveMode
 1578              	.LVL161:
 982:main.c        ****                 
 1579              		.loc 1 982 0
 1580 00a2 474B     		ldr	r3, .L112+52
 1581 00a4 1B78     		ldrb	r3, [r3]
 1582 00a6 002B     		cmp	r3, #0
 1583 00a8 3BD1     		bne	.L105
 986:main.c        ****                     
 1584              		.loc 1 986 0
 1585 00aa 474B     		ldr	r3, .L112+60
 1586 00ac 1A78     		ldrb	r2, [r3]
 1587 00ae 52B2     		sxtb	r2, r2
 1588 00b0 474B     		ldr	r3, .L112+68
 1589 00b2 1B78     		ldrb	r3, [r3]
 1590 00b4 5BB2     		sxtb	r3, r3
 1591 00b6 9A42     		cmp	r2, r3
 1592 00b8 0FD0     		beq	.L106
 986:main.c        ****                     
 1593              		.loc 1 986 0 is_stmt 0 discriminator 1
 1594 00ba 434B     		ldr	r3, .L112+60
 1595 00bc 1B78     		ldrb	r3, [r3]
 1596 00be 002B     		cmp	r3, #0
 1597 00c0 0BD0     		beq	.L106
 989:main.c        ****                     
 1598              		.loc 1 989 0 is_stmt 1
 1599 00c2 414B     		ldr	r3, .L112+60
 1600 00c4 1B78     		ldrb	r3, [r3]
 1601 00c6 5BB2     		sxtb	r3, r3
 1602 00c8 414A     		ldr	r2, .L112+68
 1603 00ca 1370     		strb	r3, [r2]
 992:main.c        ****                     
ARM GAS  C:\Users\PRICHA~1\AppData\Local\Temp\cctE1isk.s 			page 56


 1604              		.loc 1 992 0
 1605 00cc FFF7FEFF 		bl	GetPosition
 1606              	.LVL162:
 1607 00d0 404B     		ldr	r3, .L112+72
 1608 00d2 1860     		str	r0, [r3]
 995:main.c        ****                 }                
 1609              		.loc 1 995 0
 1610 00d4 0020     		movs	r0, #0
 1611 00d6 FFF7FEFF 		bl	Index_Counter_1_WriteCounter
 1612              	.LVL163:
 1613              	.L106:
 999:main.c        **** 
 1614              		.loc 1 999 0
 1615 00da 3B4D     		ldr	r5, .L112+60
 1616 00dc 2878     		ldrb	r0, [r5]
 1617 00de 40B2     		sxtb	r0, r0
 1618 00e0 3230     		adds	r0, r0, #50
 1619 00e2 FFF7FEFF 		bl	__aeabi_i2f
 1620              	.LVL164:
 1621 00e6 FFF7FEFF 		bl	PWM_Set
 1622              	.LVL165:
1002:main.c        ****                 
 1623              		.loc 1 1002 0
 1624 00ea 2B78     		ldrb	r3, [r5]
 1625 00ec 002B     		cmp	r3, #0
 1626 00ee 18D0     		beq	.L105
1006:main.c        ****                     DeltaPosition = labs( CurrentPosition - LastPosition );
 1627              		.loc 1 1006 0
 1628 00f0 FFF7FEFF 		bl	GetPosition
 1629              	.LVL166:
1007:main.c        ****                     CurrentIndexCount = Index_Counter_1_ReadCounter();
 1630              		.loc 1 1007 0
 1631 00f4 374B     		ldr	r3, .L112+72
 1632 00f6 1B68     		ldr	r3, [r3]
 1633 00f8 C01A     		subs	r0, r0, r3
 1634              	.LVL167:
 1635 00fa C317     		asrs	r3, r0, #31
 1636 00fc C518     		adds	r5, r0, r3
 1637 00fe 5D40     		eors	r5, r3
 1638              	.LVL168:
1008:main.c        ****                     
 1639              		.loc 1 1008 0
 1640 0100 FFF7FEFF 		bl	Index_Counter_1_ReadCounter
 1641              	.LVL169:
 1642 0104 061E     		subs	r6, r0, #0
 1643              	.LVL170:
1011:main.c        ****                         if (DeltaPosition > 2*ENCODER_COUNTS_PER_INDEX) 
 1644              		.loc 1 1011 0
 1645 0106 05D1     		bne	.L107
1012:main.c        ****                             AssertFault(fsIndex);        
 1646              		.loc 1 1012 0
 1647 0108 334B     		ldr	r3, .L112+76
 1648 010a 9D42     		cmp	r5, r3
 1649 010c 02DD     		ble	.L107
1013:main.c        ****                     
 1650              		.loc 1 1013 0
 1651 010e 0420     		movs	r0, #4
ARM GAS  C:\Users\PRICHA~1\AppData\Local\Temp\cctE1isk.s 			page 57


 1652              	.LVL171:
 1653 0110 FFF7FEFF 		bl	AssertFault
 1654              	.LVL172:
 1655              	.L107:
1016:main.c        ****                         AssertFault(fsEncoder);
 1656              		.loc 1 1016 0
 1657 0114 002E     		cmp	r6, #0
 1658 0116 04D0     		beq	.L105
1016:main.c        ****                         AssertFault(fsEncoder);
 1659              		.loc 1 1016 0 is_stmt 0 discriminator 1
 1660 0118 012D     		cmp	r5, #1
 1661 011a 02DC     		bgt	.L105
1017:main.c        ****                 }
 1662              		.loc 1 1017 0 is_stmt 1
 1663 011c 0220     		movs	r0, #2
 1664 011e FFF7FEFF 		bl	AssertFault
 1665              	.LVL173:
 1666              	.L105:
1023:main.c        ****                 PID_SetMode(PID_AUTOMATIC);
 1667              		.loc 1 1023 0
 1668 0122 264B     		ldr	r3, .L112+48
 1669 0124 1B78     		ldrb	r3, [r3]
 1670 0126 002B     		cmp	r3, #0
 1671 0128 07D1     		bne	.L108
1023:main.c        ****                 PID_SetMode(PID_AUTOMATIC);
 1672              		.loc 1 1023 0 is_stmt 0 discriminator 1
 1673 012a 254A     		ldr	r2, .L112+52
 1674 012c 1278     		ldrb	r2, [r2]
 1675 012e 002A     		cmp	r2, #0
 1676 0130 03D0     		beq	.L108
1024:main.c        ****             } else if (!PID_Enabled && PID_Was_Enabled) {
 1677              		.loc 1 1024 0 is_stmt 1
 1678 0132 0120     		movs	r0, #1
 1679 0134 FFF7FEFF 		bl	PID_SetMode
 1680              	.LVL174:
 1681 0138 08E0     		b	.L109
 1682              	.L108:
1025:main.c        ****                 PID_SetMode(PID_MANUAL);                
 1683              		.loc 1 1025 0
 1684 013a 214A     		ldr	r2, .L112+52
 1685 013c 1278     		ldrb	r2, [r2]
 1686 013e 002A     		cmp	r2, #0
 1687 0140 04D1     		bne	.L109
1025:main.c        ****                 PID_SetMode(PID_MANUAL);                
 1688              		.loc 1 1025 0 is_stmt 0 discriminator 1
 1689 0142 002B     		cmp	r3, #0
 1690 0144 02D0     		beq	.L109
1026:main.c        ****             } else {
 1691              		.loc 1 1026 0 is_stmt 1
 1692 0146 0020     		movs	r0, #0
 1693 0148 FFF7FEFF 		bl	PID_SetMode
 1694              	.LVL175:
 1695              	.L109:
1032:main.c        ****             
 1696              		.loc 1 1032 0
 1697 014c 1C4D     		ldr	r5, .L112+52
 1698 014e 2A78     		ldrb	r2, [r5]
ARM GAS  C:\Users\PRICHA~1\AppData\Local\Temp\cctE1isk.s 			page 58


 1699 0150 1A4B     		ldr	r3, .L112+48
 1700 0152 1A70     		strb	r2, [r3]
1036:main.c        ****             
 1701              		.loc 1 1036 0
 1702 0154 184B     		ldr	r3, .L112+44
 1703 0156 1968     		ldr	r1, [r3]
 1704 0158 2000     		movs	r0, r4
 1705 015a FFF7FEFF 		bl	PID_Compute
 1706              	.LVL176:
1039:main.c        ****                 
 1707              		.loc 1 1039 0
 1708 015e 2B78     		ldrb	r3, [r5]
 1709 0160 002B     		cmp	r3, #0
 1710 0162 04D0     		beq	.L110
1042:main.c        ****                 
 1711              		.loc 1 1042 0
 1712 0164 1D4B     		ldr	r3, .L112+80
 1713 0166 1860     		str	r0, [r3]
1045:main.c        ****                 
 1714              		.loc 1 1045 0
 1715 0168 FFF7FEFF 		bl	PID_SetDrive
 1716              	.LVL177:
 1717 016c 02E0     		b	.L104
 1718              	.LVL178:
 1719              	.L110:
1049:main.c        ****             }
 1720              		.loc 1 1049 0
 1721 016e 0022     		movs	r2, #0
 1722 0170 1A4B     		ldr	r3, .L112+80
 1723 0172 1A60     		str	r2, [r3]
 1724              	.LVL179:
 1725              	.L104:
1054:main.c        ****         
 1726              		.loc 1 1054 0
 1727 0174 0020     		movs	r0, #0
 1728 0176 FFF7FEFF 		bl	PROBE_Write
 1729              	.LVL180:
1057:main.c        **** 
 1730              		.loc 1 1057 0
 1731 017a 0520     		movs	r0, #5
 1732 017c FFF7FEFF 		bl	vTaskDelay
 1733              	.LVL181:
1060:main.c        ****     }
 1734              		.loc 1 1060 0
 1735 0180 0020     		movs	r0, #0
 1736 0182 FFF7FEFF 		bl	uxTaskGetStackHighWaterMark
 1737              	.LVL182:
 1738 0186 014B     		ldr	r3, .L112
 1739 0188 1860     		str	r0, [r3]
1061:main.c        ****    
 1740              		.loc 1 1061 0
 1741 018a 64E7     		b	.L111
 1742              	.L113:
 1743              		.align	2
 1744              	.L112:
 1745 018c 00000000 		.word	uxHighWaterMark_PID
 1746 0190 00000000 		.word	refKp
ARM GAS  C:\Users\PRICHA~1\AppData\Local\Temp\cctE1isk.s 			page 59


 1747 0194 00000000 		.word	refKi
 1748 0198 00000000 		.word	refKd
 1749 019c 0000C842 		.word	1120403456
 1750 01a0 00000000 		.word	outMax_Total
 1751 01a4 00000000 		.word	outMax_ITerm
 1752 01a8 00004842 		.word	1112014848
 1753 01ac 00000000 		.word	pwmLimit
 1754 01b0 00000000 		.word	pwmMax
 1755 01b4 00000000 		.word	pwmMin
 1756 01b8 00000000 		.word	PID_Setpoint
 1757 01bc 00000000 		.word	PID_Was_Enabled
 1758 01c0 00000000 		.word	PID_Enabled
 1759 01c4 00000000 		.word	LastMessageTimeTick
 1760 01c8 00000000 		.word	Jog
 1761 01cc 00000000 		.word	ConfigState
 1762 01d0 00000000 		.word	LastJog
 1763 01d4 00000000 		.word	LastPosition
 1764 01d8 204E0000 		.word	20000
 1765 01dc 00000000 		.word	PWM
 1766              		.cfi_endproc
 1767              	.LFE44:
 1768              		.size	PID_Task, .-PID_Task
 1769              		.section	.text.main,"ax",%progbits
 1770              		.align	2
 1771              		.global	main
 1772              		.code	16
 1773              		.thumb_func
 1774              		.type	main, %function
 1775              	main:
 1776              	.LFB45:
1076:main.c        ****     
 1777              		.loc 1 1076 0
 1778              		.cfi_startproc
 1779              		@ args = 0, pretend = 0, frame = 0
 1780              		@ frame_needed = 0, uses_anonymous_args = 0
 1781 0000 30B5     		push	{r4, r5, lr}
 1782              		.cfi_def_cfa_offset 12
 1783              		.cfi_offset 4, -12
 1784              		.cfi_offset 5, -8
 1785              		.cfi_offset 14, -4
 1786 0002 83B0     		sub	sp, sp, #12
 1787              		.cfi_def_cfa_offset 24
1079:main.c        **** 
 1788              		.loc 1 1079 0
 1789 0004 FFF7FEFF 		bl	setupFreeRTOS
 1790              	.LVL183:
1087:main.c        ****     INDEX_OUT_SetDriveMode(INDEX_OUT_DM_DIG_HIZ); 
 1791              		.loc 1 1087 0
 1792 0008 0120     		movs	r0, #1
 1793 000a FFF7FEFF 		bl	HOME_OUT_SetDriveMode
 1794              	.LVL184:
1088:main.c        **** 
 1795              		.loc 1 1088 0
 1796 000e 0120     		movs	r0, #1
 1797 0010 FFF7FEFF 		bl	INDEX_OUT_SetDriveMode
 1798              	.LVL185:
1091:main.c        ****         PID_Task,       /* Task function */
ARM GAS  C:\Users\PRICHA~1\AppData\Local\Temp\cctE1isk.s 			page 60


 1799              		.loc 1 1091 0
 1800 0014 0024     		movs	r4, #0
 1801 0016 0194     		str	r4, [sp, #4]
 1802 0018 0323     		movs	r3, #3
 1803 001a 0093     		str	r3, [sp]
 1804 001c 0023     		movs	r3, #0
 1805 001e 4022     		movs	r2, #64
 1806 0020 3649     		ldr	r1, .L117
 1807 0022 3748     		ldr	r0, .L117+4
 1808 0024 FFF7FEFF 		bl	xTaskCreate
 1809              	.LVL186:
1099:main.c        ****         Comm_Task,       /* Task function */
 1810              		.loc 1 1099 0
 1811 0028 0194     		str	r4, [sp, #4]
 1812 002a 0223     		movs	r3, #2
 1813 002c 0093     		str	r3, [sp]
 1814 002e 0023     		movs	r3, #0
 1815 0030 6422     		movs	r2, #100
 1816 0032 3449     		ldr	r1, .L117+8
 1817 0034 3448     		ldr	r0, .L117+12
 1818 0036 FFF7FEFF 		bl	xTaskCreate
 1819              	.LVL187:
1107:main.c        ****         Current_Read_Task, /* Task function */
 1820              		.loc 1 1107 0
 1821 003a 0194     		str	r4, [sp, #4]
 1822 003c 0123     		movs	r3, #1
 1823 003e 0093     		str	r3, [sp]
 1824 0040 0023     		movs	r3, #0
 1825 0042 4022     		movs	r2, #64
 1826 0044 3149     		ldr	r1, .L117+16
 1827 0046 3248     		ldr	r0, .L117+20
 1828 0048 FFF7FEFF 		bl	xTaskCreate
 1829              	.LVL188:
1118:main.c        **** 
 1830              		.loc 1 1118 0
 1831 004c 0120     		movs	r0, #1
 1832 004e FFF7FEFF 		bl	xQueueCreateMutex
 1833              	.LVL189:
 1834 0052 304B     		ldr	r3, .L117+24
 1835 0054 1860     		str	r0, [r3]
1121:main.c        ****         s = 1;
 1836              		.loc 1 1121 0
 1837 0056 0028     		cmp	r0, #0
 1838 0058 0BD1     		bne	.L115
 1839 005a 0134     		adds	r4, r4, #1
 1840              	.L116:
 1841              	.LVL190:
1125:main.c        ****             LED_Write(s); 
 1842              		.loc 1 1125 0 discriminator 1
 1843 005c 6342     		rsbs	r3, r4, #0
 1844 005e 5C41     		adcs	r4, r4, r3
 1845              	.LVL191:
 1846 0060 E4B2     		uxtb	r4, r4
 1847              	.LVL192:
1126:main.c        ****             CyDelay(1000u);                    
 1848              		.loc 1 1126 0 discriminator 1
 1849 0062 2000     		movs	r0, r4
ARM GAS  C:\Users\PRICHA~1\AppData\Local\Temp\cctE1isk.s 			page 61


 1850 0064 FFF7FEFF 		bl	LED_Write
 1851              	.LVL193:
1127:main.c        ****         }
 1852              		.loc 1 1127 0 discriminator 1
 1853 0068 FA20     		movs	r0, #250
 1854 006a 8000     		lsls	r0, r0, #2
 1855 006c FFF7FEFF 		bl	CyDelay
 1856              	.LVL194:
 1857 0070 F4E7     		b	.L116
 1858              	.LVL195:
 1859              	.L115:
1137:main.c        ****     isr_rst_encoder_StartEx(RSTIsrHandler);
 1860              		.loc 1 1137 0
 1861 0072 2948     		ldr	r0, .L117+28
 1862 0074 FFF7FEFF 		bl	isr_home_StartEx
 1863              	.LVL196:
1138:main.c        ****     
 1864              		.loc 1 1138 0
 1865 0078 2848     		ldr	r0, .L117+32
 1866 007a FFF7FEFF 		bl	isr_rst_encoder_StartEx
 1867              	.LVL197:
1141:main.c        ****     
 1868              		.loc 1 1141 0
 1869 007e 2848     		ldr	r0, .L117+36
 1870 0080 FFF7FEFF 		bl	isr_spi_ss_StartEx
 1871              	.LVL198:
1144:main.c        ****     isr_rst_encoder_SetPriority(HIGHER_PRIORITY);
 1872              		.loc 1 1144 0
 1873 0084 0320     		movs	r0, #3
 1874 0086 FFF7FEFF 		bl	isr_home_SetPriority
 1875              	.LVL199:
1145:main.c        ****     isr_spi_ss_SetPriority(DEFAULT_PRIORITY);
 1876              		.loc 1 1145 0
 1877 008a 0220     		movs	r0, #2
 1878 008c FFF7FEFF 		bl	isr_rst_encoder_SetPriority
 1879              	.LVL200:
1146:main.c        **** 
 1880              		.loc 1 1146 0
 1881 0090 0320     		movs	r0, #3
 1882 0092 FFF7FEFF 		bl	isr_spi_ss_SetPriority
 1883              	.LVL201:
1149:main.c        ****     
 1884              		.loc 1 1149 0
 1885              		.syntax divided
 1886              	@ 1149 "main.c" 1
 1887 0096 62B6     		CPSIE   i
 1888              	@ 0 "" 2
1180:main.c        ****     CyDelay(100u);
 1889              		.loc 1 1180 0
 1890              		.thumb
 1891              		.syntax unified
 1892 0098 FFF7FEFF 		bl	I2C_Start
 1893              	.LVL202:
1181:main.c        ****     SPI_1_Start();
 1894              		.loc 1 1181 0
 1895 009c 6420     		movs	r0, #100
 1896 009e FFF7FEFF 		bl	CyDelay
ARM GAS  C:\Users\PRICHA~1\AppData\Local\Temp\cctE1isk.s 			page 62


 1897              	.LVL203:
1182:main.c        ****     
 1898              		.loc 1 1182 0
 1899 00a2 FFF7FEFF 		bl	SPI_1_Start
 1900              	.LVL204:
1186:main.c        ****     PWM_1_WritePeriod(PWM_15KHZ_PERIOD);
 1901              		.loc 1 1186 0
 1902 00a6 FFF7FEFF 		bl	PWM_1_Start
 1903              	.LVL205:
1187:main.c        ****     PWM_Set(PWM_IDLE);   
 1904              		.loc 1 1187 0
 1905 00aa C820     		movs	r0, #200
 1906 00ac C000     		lsls	r0, r0, #3
 1907 00ae FFF7FEFF 		bl	PWM_1_WritePeriod
 1908              	.LVL206:
1188:main.c        ****     
 1909              		.loc 1 1188 0
 1910 00b2 1C48     		ldr	r0, .L117+40
 1911 00b4 FFF7FEFF 		bl	PWM_Set
 1912              	.LVL207:
1191:main.c        ****    
 1913              		.loc 1 1191 0
 1914 00b8 0024     		movs	r4, #0
 1915 00ba 1B4B     		ldr	r3, .L117+44
 1916 00bc 1C70     		strb	r4, [r3]
1194:main.c        ****     Counter_1_WriteCounter(ENCODER_MAX);  // Set the encoder initially to mid range
 1917              		.loc 1 1194 0
 1918 00be FFF7FEFF 		bl	Counter_1_Start
 1919              	.LVL208:
1195:main.c        ****     LastPosition = ENCODER_MAX;
 1920              		.loc 1 1195 0
 1921 00c2 8025     		movs	r5, #128
 1922 00c4 2D04     		lsls	r5, r5, #16
 1923 00c6 2800     		movs	r0, r5
 1924 00c8 FFF7FEFF 		bl	Counter_1_WriteCounter
 1925              	.LVL209:
1196:main.c        ****     
 1926              		.loc 1 1196 0
 1927 00cc 174B     		ldr	r3, .L117+48
 1928 00ce 1D60     		str	r5, [r3]
1199:main.c        ****     Index_Counter_1_WriteCounter(0);
 1929              		.loc 1 1199 0
 1930 00d0 FFF7FEFF 		bl	Index_Counter_1_Start
 1931              	.LVL210:
1200:main.c        ****      
 1932              		.loc 1 1200 0
 1933 00d4 0020     		movs	r0, #0
 1934 00d6 FFF7FEFF 		bl	Index_Counter_1_WriteCounter
 1935              	.LVL211:
1203:main.c        ****     
 1936              		.loc 1 1203 0
 1937 00da FFF7FEFF 		bl	xTaskGetTickCount
 1938              	.LVL212:
 1939 00de 144B     		ldr	r3, .L117+52
 1940 00e0 1860     		str	r0, [r3]
1206:main.c        ****     ConfigSequence = 0;
 1941              		.loc 1 1206 0
ARM GAS  C:\Users\PRICHA~1\AppData\Local\Temp\cctE1isk.s 			page 63


 1942 00e2 0122     		movs	r2, #1
 1943 00e4 134B     		ldr	r3, .L117+56
 1944 00e6 1A70     		strb	r2, [r3]
1207:main.c        ****     ChecksumErrors = 0;
 1945              		.loc 1 1207 0
 1946 00e8 134B     		ldr	r3, .L117+60
 1947 00ea 1C70     		strb	r4, [r3]
1208:main.c        ****    
 1948              		.loc 1 1208 0
 1949 00ec 134B     		ldr	r3, .L117+64
 1950 00ee 1C80     		strh	r4, [r3]
1213:main.c        ****    
 1951              		.loc 1 1213 0
 1952 00f0 FFF7FEFF 		bl	vTaskStartScheduler
 1953              	.LVL213:
1219:main.c        **** 
 1954              		.loc 1 1219 0
 1955 00f4 0120     		movs	r0, #1
 1956 00f6 03B0     		add	sp, sp, #12
 1957              		@ sp needed
 1958 00f8 30BD     		pop	{r4, r5, pc}
 1959              	.L118:
 1960 00fa C046     		.align	2
 1961              	.L117:
 1962 00fc 00000000 		.word	.LC81
 1963 0100 00000000 		.word	PID_Task
 1964 0104 04000000 		.word	.LC84
 1965 0108 00000000 		.word	Comm_Task
 1966 010c 14000000 		.word	.LC87
 1967 0110 00000000 		.word	Current_Read_Task
 1968 0114 00000000 		.word	Lock
 1969 0118 00000000 		.word	HomeIsrHandler
 1970 011c 00000000 		.word	RSTIsrHandler
 1971 0120 00000000 		.word	SPI_SS_IsrHandler
 1972 0124 00004842 		.word	1112014848
 1973 0128 00000000 		.word	Jog
 1974 012c 00000000 		.word	LastPosition
 1975 0130 00000000 		.word	LastMessageTimeTick
 1976 0134 00000000 		.word	ConfigState
 1977 0138 00000000 		.word	ConfigSequence
 1978 013c 00000000 		.word	ChecksumErrors
 1979              		.cfi_endproc
 1980              	.LFE45:
 1981              		.size	main, .-main
 1982              		.comm	txMessageState,1,1
 1983              		.comm	txMessage,30,4
 1984              		.comm	rxMessage,30,4
 1985              		.comm	LastMessageTimeTick,4,4
 1986              		.comm	Lock,4,4
 1987              		.comm	uxHighWaterMark_Comm,4,4
 1988              		.comm	uxHighWaterMark_Current,4,4
 1989              		.comm	uxHighWaterMark_PID,4,4
 1990              		.comm	CurrentI2Cinbuf,20,4
 1991              		.comm	PWM,4,4
 1992              		.comm	Current,2,2
 1993              		.comm	ChecksumErrors,2,2
 1994              		.comm	ConfigSequence,1,1
ARM GAS  C:\Users\PRICHA~1\AppData\Local\Temp\cctE1isk.s 			page 64


 1995              		.comm	FaultState,1,1
 1996              		.comm	ConfigState,1,1
 1997              		.comm	pwmMin,4,4
 1998              		.comm	pwmMax,4,4
 1999              		.comm	pwmLimit,4,4
 2000              		.comm	outMax_ITerm,4,4
 2001              		.comm	outMax_Total,4,4
 2002              		.global	refSampleTime
 2003              		.comm	kd,4,4
 2004              		.comm	ki,4,4
 2005              		.comm	kp,4,4
 2006              		.comm	refKd,4,4
 2007              		.comm	refKi,4,4
 2008              		.comm	refKp,4,4
 2009              		.comm	LastPosition,4,4
 2010              		.comm	Position,4,4
 2011              		.comm	ITerm,4,4
 2012              		.comm	Output,4,4
 2013              		.comm	lastTime,4,4
 2014              		.comm	PID_Setpoint,4,4
 2015              		.comm	PID_Was_Enabled,1,1
 2016              		.comm	PID_Enabled,1,1
 2017              		.comm	LastJog,1,1
 2018              		.comm	Jog,1,1
 2019              		.global	inAuto
 2020              		.data
 2021              		.align	2
 2022              		.set	.LANCHOR1,. + 0
 2023              		.type	refSampleTime, %object
 2024              		.size	refSampleTime, 4
 2025              	refSampleTime:
 2026 0000 05000000 		.word	5
 2027              		.section	.rodata.str1.4,"aMS",%progbits,1
 2028              		.align	2
 2029              	.LC81:
 2030 0000 50494400 		.ascii	"PID\000"
 2031              	.LC84:
 2032 0004 436F6D6D 		.ascii	"Communications\000"
 2032      756E6963 
 2032      6174696F 
 2032      6E7300
 2033 0013 00       		.space	1
 2034              	.LC87:
 2035 0014 52656164 		.ascii	"Read Current\000"
 2035      20437572 
 2035      72656E74 
 2035      00
 2036              		.bss
 2037              		.set	.LANCHOR0,. + 0
 2038              		.type	inAuto, %object
 2039              		.size	inAuto, 1
 2040              	inAuto:
 2041 0000 00       		.space	1
 2042              		.text
 2043              	.Letext0:
 2044              		.file 2 "c:\\program files (x86)\\cypress\\psoc creator\\4.2\\psoc creator\\import\\gnu\\arm\\5.4.
 2045              		.file 3 "c:\\program files (x86)\\cypress\\psoc creator\\4.2\\psoc creator\\import\\gnu\\arm\\5.4.
ARM GAS  C:\Users\PRICHA~1\AppData\Local\Temp\cctE1isk.s 			page 65


 2046              		.file 4 "Generated_Source\\PSoC4/cytypes.h"
 2047              		.file 5 ".\\FreeRTOS/portmacro.h"
 2048              		.file 6 ".\\FreeRTOS/queue.h"
 2049              		.file 7 ".\\FreeRTOS/semphr.h"
 2050              		.file 8 "Generated_Source\\PSoC4/isr_rst_encoder.h"
 2051              		.file 9 "Generated_Source\\PSoC4/Reset_Encoder.h"
 2052              		.file 10 "Generated_Source\\PSoC4/Counter_1.h"
 2053              		.file 11 "Generated_Source\\PSoC4/Index_Counter_1.h"
 2054              		.file 12 "Generated_Source\\PSoC4/isr_home.h"
 2055              		.file 13 "Generated_Source\\PSoC4/HOME_IN.h"
 2056              		.file 14 "Generated_Source\\PSoC4/spi_ss.h"
 2057              		.file 15 ".\\FreeRTOS/task.h"
 2058              		.file 16 "Generated_Source\\PSoC4/SPI_1_SPI_UART.h"
 2059              		.file 17 "Generated_Source\\PSoC4/CyLib.h"
 2060              		.file 18 "Generated_Source\\PSoC4/I2C_I2C.h"
 2061              		.file 19 "Generated_Source\\PSoC4/PWM_1.h"
 2062              		.file 20 "Generated_Source\\PSoC4/PROBE.h"
 2063              		.file 21 "Generated_Source\\PSoC4/CyLFClk.h"
 2064              		.file 22 "Generated_Source\\PSoC4/HOME_OUT.h"
 2065              		.file 23 "Generated_Source\\PSoC4/INDEX_OUT.h"
 2066              		.file 24 "Generated_Source\\PSoC4/LED.h"
 2067              		.file 25 "Generated_Source\\PSoC4/isr_spi_ss.h"
 2068              		.file 26 "Generated_Source\\PSoC4/I2C.h"
 2069              		.file 27 "Generated_Source\\PSoC4/SPI_1.h"
 2070              		.file 28 "Generated_Source\\PSoC4/core_cm0_psoc4.h"
 2071              		.section	.debug_info,"",%progbits
 2072              	.Ldebug_info0:
 2073 0000 95140000 		.4byte	0x1495
 2074 0004 0400     		.2byte	0x4
 2075 0006 00000000 		.4byte	.Ldebug_abbrev0
 2076 000a 04       		.byte	0x4
 2077 000b 01       		.uleb128 0x1
 2078 000c A2020000 		.4byte	.LASF204
 2079 0010 0C       		.byte	0xc
 2080 0011 2C000000 		.4byte	.LASF205
 2081 0015 EF0A0000 		.4byte	.LASF206
 2082 0019 00000000 		.4byte	.Ldebug_ranges0+0
 2083 001d 00000000 		.4byte	0
 2084 0021 00000000 		.4byte	.Ldebug_line0
 2085 0025 02       		.uleb128 0x2
 2086 0026 04       		.byte	0x4
 2087 0027 04       		.byte	0x4
 2088 0028 AF010000 		.4byte	.LASF0
 2089 002c 03       		.uleb128 0x3
 2090 002d 04       		.byte	0x4
 2091 002e 05       		.byte	0x5
 2092 002f 696E7400 		.ascii	"int\000"
 2093 0033 02       		.uleb128 0x2
 2094 0034 04       		.byte	0x4
 2095 0035 07       		.byte	0x7
 2096 0036 7F000000 		.4byte	.LASF1
 2097 003a 02       		.uleb128 0x2
 2098 003b 08       		.byte	0x8
 2099 003c 05       		.byte	0x5
 2100 003d 72050000 		.4byte	.LASF2
 2101 0041 02       		.uleb128 0x2
 2102 0042 08       		.byte	0x8
ARM GAS  C:\Users\PRICHA~1\AppData\Local\Temp\cctE1isk.s 			page 66


 2103 0043 04       		.byte	0x4
 2104 0044 AC060000 		.4byte	.LASF3
 2105 0048 02       		.uleb128 0x2
 2106 0049 01       		.byte	0x1
 2107 004a 06       		.byte	0x6
 2108 004b 0B0A0000 		.4byte	.LASF4
 2109 004f 04       		.uleb128 0x4
 2110 0050 34080000 		.4byte	.LASF9
 2111 0054 02       		.byte	0x2
 2112 0055 1D       		.byte	0x1d
 2113 0056 5A000000 		.4byte	0x5a
 2114 005a 02       		.uleb128 0x2
 2115 005b 01       		.byte	0x1
 2116 005c 08       		.byte	0x8
 2117 005d 28090000 		.4byte	.LASF5
 2118 0061 02       		.uleb128 0x2
 2119 0062 02       		.byte	0x2
 2120 0063 05       		.byte	0x5
 2121 0064 0E070000 		.4byte	.LASF6
 2122 0068 02       		.uleb128 0x2
 2123 0069 02       		.byte	0x2
 2124 006a 07       		.byte	0x7
 2125 006b 170A0000 		.4byte	.LASF7
 2126 006f 02       		.uleb128 0x2
 2127 0070 04       		.byte	0x4
 2128 0071 05       		.byte	0x5
 2129 0072 56070000 		.4byte	.LASF8
 2130 0076 04       		.uleb128 0x4
 2131 0077 46090000 		.4byte	.LASF10
 2132 007b 02       		.byte	0x2
 2133 007c 41       		.byte	0x41
 2134 007d 81000000 		.4byte	0x81
 2135 0081 02       		.uleb128 0x2
 2136 0082 04       		.byte	0x4
 2137 0083 07       		.byte	0x7
 2138 0084 AB080000 		.4byte	.LASF11
 2139 0088 02       		.uleb128 0x2
 2140 0089 08       		.byte	0x8
 2141 008a 07       		.byte	0x7
 2142 008b 01020000 		.4byte	.LASF12
 2143 008f 04       		.uleb128 0x4
 2144 0090 C8040000 		.4byte	.LASF13
 2145 0094 03       		.byte	0x3
 2146 0095 18       		.byte	0x18
 2147 0096 4F000000 		.4byte	0x4f
 2148 009a 04       		.uleb128 0x4
 2149 009b 73010000 		.4byte	.LASF14
 2150 009f 03       		.byte	0x3
 2151 00a0 30       		.byte	0x30
 2152 00a1 76000000 		.4byte	0x76
 2153 00a5 05       		.uleb128 0x5
 2154 00a6 550A0000 		.4byte	.LASF15
 2155 00aa 04       		.byte	0x4
 2156 00ab E401     		.2byte	0x1e4
 2157 00ad 5A000000 		.4byte	0x5a
 2158 00b1 05       		.uleb128 0x5
 2159 00b2 9B040000 		.4byte	.LASF16
ARM GAS  C:\Users\PRICHA~1\AppData\Local\Temp\cctE1isk.s 			page 67


 2160 00b6 04       		.byte	0x4
 2161 00b7 E501     		.2byte	0x1e5
 2162 00b9 68000000 		.4byte	0x68
 2163 00bd 05       		.uleb128 0x5
 2164 00be E7050000 		.4byte	.LASF17
 2165 00c2 04       		.byte	0x4
 2166 00c3 E601     		.2byte	0x1e6
 2167 00c5 81000000 		.4byte	0x81
 2168 00c9 05       		.uleb128 0x5
 2169 00ca A2040000 		.4byte	.LASF18
 2170 00ce 04       		.byte	0x4
 2171 00cf E701     		.2byte	0x1e7
 2172 00d1 48000000 		.4byte	0x48
 2173 00d5 05       		.uleb128 0x5
 2174 00d6 AC000000 		.4byte	.LASF19
 2175 00da 04       		.byte	0x4
 2176 00db E801     		.2byte	0x1e8
 2177 00dd 61000000 		.4byte	0x61
 2178 00e1 05       		.uleb128 0x5
 2179 00e2 D1010000 		.4byte	.LASF20
 2180 00e6 04       		.byte	0x4
 2181 00e7 E901     		.2byte	0x1e9
 2182 00e9 6F000000 		.4byte	0x6f
 2183 00ed 02       		.uleb128 0x2
 2184 00ee 08       		.byte	0x8
 2185 00ef 04       		.byte	0x4
 2186 00f0 5B0A0000 		.4byte	.LASF21
 2187 00f4 02       		.uleb128 0x2
 2188 00f5 01       		.byte	0x1
 2189 00f6 08       		.byte	0x8
 2190 00f7 4B040000 		.4byte	.LASF22
 2191 00fb 06       		.uleb128 0x6
 2192 00fc A5000000 		.4byte	0xa5
 2193 0100 06       		.uleb128 0x6
 2194 0101 B1000000 		.4byte	0xb1
 2195 0105 05       		.uleb128 0x5
 2196 0106 BD060000 		.4byte	.LASF23
 2197 010a 04       		.byte	0x4
 2198 010b 9002     		.2byte	0x290
 2199 010d 11010000 		.4byte	0x111
 2200 0111 06       		.uleb128 0x6
 2201 0112 BD000000 		.4byte	0xbd
 2202 0116 05       		.uleb128 0x5
 2203 0117 C5050000 		.4byte	.LASF24
 2204 011b 04       		.byte	0x4
 2205 011c A002     		.2byte	0x2a0
 2206 011e 22010000 		.4byte	0x122
 2207 0122 07       		.uleb128 0x7
 2208 0123 04       		.byte	0x4
 2209 0124 28010000 		.4byte	0x128
 2210 0128 08       		.uleb128 0x8
 2211 0129 02       		.uleb128 0x2
 2212 012a 04       		.byte	0x4
 2213 012b 07       		.byte	0x7
 2214 012c A2080000 		.4byte	.LASF25
 2215 0130 09       		.uleb128 0x9
 2216 0131 04       		.byte	0x4
ARM GAS  C:\Users\PRICHA~1\AppData\Local\Temp\cctE1isk.s 			page 68


 2217 0132 0A       		.uleb128 0xa
 2218 0133 B8060000 		.4byte	.LASF207
 2219 0137 01       		.byte	0x1
 2220 0138 48000000 		.4byte	0x48
 2221 013c 1C       		.byte	0x1c
 2222 013d 17       		.byte	0x17
 2223 013e 61010000 		.4byte	0x161
 2224 0142 0B       		.uleb128 0xb
 2225 0143 87070000 		.4byte	.LASF26
 2226 0147 72       		.sleb128 -14
 2227 0148 0B       		.uleb128 0xb
 2228 0149 3E0A0000 		.4byte	.LASF27
 2229 014d 73       		.sleb128 -13
 2230 014e 0B       		.uleb128 0xb
 2231 014f 68090000 		.4byte	.LASF28
 2232 0153 7B       		.sleb128 -5
 2233 0154 0B       		.uleb128 0xb
 2234 0155 32010000 		.4byte	.LASF29
 2235 0159 7E       		.sleb128 -2
 2236 015a 0B       		.uleb128 0xb
 2237 015b 86080000 		.4byte	.LASF30
 2238 015f 7F       		.sleb128 -1
 2239 0160 00       		.byte	0
 2240 0161 04       		.uleb128 0x4
 2241 0162 8B050000 		.4byte	.LASF31
 2242 0166 05       		.byte	0x5
 2243 0167 38       		.byte	0x38
 2244 0168 6F000000 		.4byte	0x6f
 2245 016c 04       		.uleb128 0x4
 2246 016d 50040000 		.4byte	.LASF32
 2247 0171 05       		.byte	0x5
 2248 0172 39       		.byte	0x39
 2249 0173 81000000 		.4byte	0x81
 2250 0177 04       		.uleb128 0x4
 2251 0178 83060000 		.4byte	.LASF33
 2252 017c 05       		.byte	0x5
 2253 017d 3F       		.byte	0x3f
 2254 017e 9A000000 		.4byte	0x9a
 2255 0182 04       		.uleb128 0x4
 2256 0183 AE040000 		.4byte	.LASF34
 2257 0187 06       		.byte	0x6
 2258 0188 2E       		.byte	0x2e
 2259 0189 30010000 		.4byte	0x130
 2260 018d 04       		.uleb128 0x4
 2261 018e 9B070000 		.4byte	.LASF35
 2262 0192 07       		.byte	0x7
 2263 0193 25       		.byte	0x25
 2264 0194 82010000 		.4byte	0x182
 2265 0198 06       		.uleb128 0x6
 2266 0199 6C010000 		.4byte	0x16c
 2267 019d 0C       		.uleb128 0xc
 2268 019e 01       		.byte	0x1
 2269 019f 5A000000 		.4byte	0x5a
 2270 01a3 01       		.byte	0x1
 2271 01a4 B5       		.byte	0xb5
 2272 01a5 C2010000 		.4byte	0x1c2
 2273 01a9 0D       		.uleb128 0xd
ARM GAS  C:\Users\PRICHA~1\AppData\Local\Temp\cctE1isk.s 			page 69


 2274 01aa C3060000 		.4byte	.LASF36
 2275 01ae 00       		.byte	0
 2276 01af 0D       		.uleb128 0xd
 2277 01b0 55000000 		.4byte	.LASF37
 2278 01b4 01       		.byte	0x1
 2279 01b5 0D       		.uleb128 0xd
 2280 01b6 50010000 		.4byte	.LASF38
 2281 01ba 02       		.byte	0x2
 2282 01bb 0D       		.uleb128 0xd
 2283 01bc 5F070000 		.4byte	.LASF39
 2284 01c0 03       		.byte	0x3
 2285 01c1 00       		.byte	0
 2286 01c2 04       		.uleb128 0x4
 2287 01c3 8E060000 		.4byte	.LASF40
 2288 01c7 01       		.byte	0x1
 2289 01c8 BA       		.byte	0xba
 2290 01c9 9D010000 		.4byte	0x19d
 2291 01cd 0C       		.uleb128 0xc
 2292 01ce 01       		.byte	0x1
 2293 01cf 5A000000 		.4byte	0x5a
 2294 01d3 01       		.byte	0x1
 2295 01d4 BF       		.byte	0xbf
 2296 01d5 10020000 		.4byte	0x210
 2297 01d9 0D       		.uleb128 0xd
 2298 01da F2040000 		.4byte	.LASF41
 2299 01de 00       		.byte	0
 2300 01df 0D       		.uleb128 0xd
 2301 01e0 67030000 		.4byte	.LASF42
 2302 01e4 01       		.byte	0x1
 2303 01e5 0D       		.uleb128 0xd
 2304 01e6 4B000000 		.4byte	.LASF43
 2305 01ea 02       		.byte	0x2
 2306 01eb 0D       		.uleb128 0xd
 2307 01ec D7040000 		.4byte	.LASF44
 2308 01f0 04       		.byte	0x4
 2309 01f1 0D       		.uleb128 0xd
 2310 01f2 00070000 		.4byte	.LASF45
 2311 01f6 08       		.byte	0x8
 2312 01f7 0D       		.uleb128 0xd
 2313 01f8 80050000 		.4byte	.LASF46
 2314 01fc 10       		.byte	0x10
 2315 01fd 0D       		.uleb128 0xd
 2316 01fe 74090000 		.4byte	.LASF47
 2317 0202 20       		.byte	0x20
 2318 0203 0D       		.uleb128 0xd
 2319 0204 79090000 		.4byte	.LASF48
 2320 0208 40       		.byte	0x40
 2321 0209 0D       		.uleb128 0xd
 2322 020a 7E090000 		.4byte	.LASF49
 2323 020e 80       		.byte	0x80
 2324 020f 00       		.byte	0
 2325 0210 04       		.uleb128 0x4
 2326 0211 E10A0000 		.4byte	.LASF50
 2327 0215 01       		.byte	0x1
 2328 0216 C9       		.byte	0xc9
 2329 0217 CD010000 		.4byte	0x1cd
 2330 021b 0C       		.uleb128 0xc
ARM GAS  C:\Users\PRICHA~1\AppData\Local\Temp\cctE1isk.s 			page 70


 2331 021c 01       		.byte	0x1
 2332 021d 5A000000 		.4byte	0x5a
 2333 0221 01       		.byte	0x1
 2334 0222 EE       		.byte	0xee
 2335 0223 46020000 		.4byte	0x246
 2336 0227 0D       		.uleb128 0xd
 2337 0228 51090000 		.4byte	.LASF51
 2338 022c 00       		.byte	0
 2339 022d 0D       		.uleb128 0xd
 2340 022e 8D0A0000 		.4byte	.LASF52
 2341 0232 01       		.byte	0x1
 2342 0233 0D       		.uleb128 0xd
 2343 0234 3E080000 		.4byte	.LASF53
 2344 0238 02       		.byte	0x2
 2345 0239 0D       		.uleb128 0xd
 2346 023a 96050000 		.4byte	.LASF54
 2347 023e 03       		.byte	0x3
 2348 023f 0D       		.uleb128 0xd
 2349 0240 76080000 		.4byte	.LASF55
 2350 0244 04       		.byte	0x4
 2351 0245 00       		.byte	0
 2352 0246 04       		.uleb128 0x4
 2353 0247 7C010000 		.4byte	.LASF56
 2354 024b 01       		.byte	0x1
 2355 024c F4       		.byte	0xf4
 2356 024d 1B020000 		.4byte	0x21b
 2357 0251 0E       		.uleb128 0xe
 2358 0252 03       		.byte	0x3
 2359 0253 01       		.byte	0x1
 2360 0254 F9       		.byte	0xf9
 2361 0255 7E020000 		.4byte	0x27e
 2362 0259 0F       		.uleb128 0xf
 2363 025a C8010000 		.4byte	.LASF57
 2364 025e 01       		.byte	0x1
 2365 025f FA       		.byte	0xfa
 2366 0260 A5000000 		.4byte	0xa5
 2367 0264 00       		.byte	0
 2368 0265 0F       		.uleb128 0xf
 2369 0266 E2050000 		.4byte	.LASF58
 2370 026a 01       		.byte	0x1
 2371 026b FB       		.byte	0xfb
 2372 026c A5000000 		.4byte	0xa5
 2373 0270 01       		.byte	0x1
 2374 0271 0F       		.uleb128 0xf
 2375 0272 A7040000 		.4byte	.LASF59
 2376 0276 01       		.byte	0x1
 2377 0277 FC       		.byte	0xfc
 2378 0278 A5000000 		.4byte	0xa5
 2379 027c 02       		.byte	0x2
 2380 027d 00       		.byte	0
 2381 027e 04       		.uleb128 0x4
 2382 027f 12040000 		.4byte	.LASF60
 2383 0283 01       		.byte	0x1
 2384 0284 FD       		.byte	0xfd
 2385 0285 51020000 		.4byte	0x251
 2386 0289 10       		.uleb128 0x10
 2387 028a 12       		.byte	0x12
ARM GAS  C:\Users\PRICHA~1\AppData\Local\Temp\cctE1isk.s 			page 71


 2388 028b 01       		.byte	0x1
 2389 028c 0001     		.2byte	0x100
 2390 028e 05030000 		.4byte	0x305
 2391 0292 11       		.uleb128 0x11
 2392 0293 C8010000 		.4byte	.LASF57
 2393 0297 01       		.byte	0x1
 2394 0298 0101     		.2byte	0x101
 2395 029a A5000000 		.4byte	0xa5
 2396 029e 00       		.byte	0
 2397 029f 11       		.uleb128 0x11
 2398 02a0 E2050000 		.4byte	.LASF58
 2399 02a4 01       		.byte	0x1
 2400 02a5 0201     		.2byte	0x102
 2401 02a7 A5000000 		.4byte	0xa5
 2402 02ab 01       		.byte	0x1
 2403 02ac 11       		.uleb128 0x11
 2404 02ad A7040000 		.4byte	.LASF59
 2405 02b1 01       		.byte	0x1
 2406 02b2 0301     		.2byte	0x103
 2407 02b4 A5000000 		.4byte	0xa5
 2408 02b8 02       		.byte	0x2
 2409 02b9 11       		.uleb128 0x11
 2410 02ba E9060000 		.4byte	.LASF61
 2411 02be 01       		.byte	0x1
 2412 02bf 0401     		.2byte	0x104
 2413 02c1 A5000000 		.4byte	0xa5
 2414 02c5 03       		.byte	0x3
 2415 02c6 12       		.uleb128 0x12
 2416 02c7 4B7000   		.ascii	"Kp\000"
 2417 02ca 01       		.byte	0x1
 2418 02cb 0501     		.2byte	0x105
 2419 02cd 25000000 		.4byte	0x25
 2420 02d1 04       		.byte	0x4
 2421 02d2 12       		.uleb128 0x12
 2422 02d3 4B6900   		.ascii	"Ki\000"
 2423 02d6 01       		.byte	0x1
 2424 02d7 0601     		.2byte	0x106
 2425 02d9 25000000 		.4byte	0x25
 2426 02dd 08       		.byte	0x8
 2427 02de 12       		.uleb128 0x12
 2428 02df 4B6400   		.ascii	"Kd\000"
 2429 02e2 01       		.byte	0x1
 2430 02e3 0701     		.2byte	0x107
 2431 02e5 25000000 		.4byte	0x25
 2432 02e9 0C       		.byte	0xc
 2433 02ea 11       		.uleb128 0x11
 2434 02eb DA090000 		.4byte	.LASF62
 2435 02ef 01       		.byte	0x1
 2436 02f0 0801     		.2byte	0x108
 2437 02f2 A5000000 		.4byte	0xa5
 2438 02f6 10       		.byte	0x10
 2439 02f7 11       		.uleb128 0x11
 2440 02f8 30030000 		.4byte	.LASF63
 2441 02fc 01       		.byte	0x1
 2442 02fd 0901     		.2byte	0x109
 2443 02ff A5000000 		.4byte	0xa5
 2444 0303 11       		.byte	0x11
ARM GAS  C:\Users\PRICHA~1\AppData\Local\Temp\cctE1isk.s 			page 72


 2445 0304 00       		.byte	0
 2446 0305 05       		.uleb128 0x5
 2447 0306 22070000 		.4byte	.LASF64
 2448 030a 01       		.byte	0x1
 2449 030b 0A01     		.2byte	0x10a
 2450 030d 89020000 		.4byte	0x289
 2451 0311 10       		.uleb128 0x10
 2452 0312 0A       		.byte	0xa
 2453 0313 01       		.byte	0x1
 2454 0314 0D01     		.2byte	0x10d
 2455 0316 76030000 		.4byte	0x376
 2456 031a 11       		.uleb128 0x11
 2457 031b C8010000 		.4byte	.LASF57
 2458 031f 01       		.byte	0x1
 2459 0320 0E01     		.2byte	0x10e
 2460 0322 A5000000 		.4byte	0xa5
 2461 0326 00       		.byte	0
 2462 0327 11       		.uleb128 0x11
 2463 0328 E2050000 		.4byte	.LASF58
 2464 032c 01       		.byte	0x1
 2465 032d 0F01     		.2byte	0x10f
 2466 032f A5000000 		.4byte	0xa5
 2467 0333 01       		.byte	0x1
 2468 0334 11       		.uleb128 0x11
 2469 0335 A7040000 		.4byte	.LASF59
 2470 0339 01       		.byte	0x1
 2471 033a 1001     		.2byte	0x110
 2472 033c A5000000 		.4byte	0xa5
 2473 0340 02       		.byte	0x2
 2474 0341 11       		.uleb128 0x11
 2475 0342 61020000 		.4byte	.LASF65
 2476 0346 01       		.byte	0x1
 2477 0347 1101     		.2byte	0x111
 2478 0349 A5000000 		.4byte	0xa5
 2479 034d 03       		.byte	0x3
 2480 034e 11       		.uleb128 0x11
 2481 034f EA070000 		.4byte	.LASF66
 2482 0353 01       		.byte	0x1
 2483 0354 1201     		.2byte	0x112
 2484 0356 BD000000 		.4byte	0xbd
 2485 035a 04       		.byte	0x4
 2486 035b 12       		.uleb128 0x12
 2487 035c 6A6F6700 		.ascii	"jog\000"
 2488 0360 01       		.byte	0x1
 2489 0361 1301     		.2byte	0x113
 2490 0363 C9000000 		.4byte	0xc9
 2491 0367 08       		.byte	0x8
 2492 0368 11       		.uleb128 0x11
 2493 0369 A0000000 		.4byte	.LASF67
 2494 036d 01       		.byte	0x1
 2495 036e 1401     		.2byte	0x114
 2496 0370 A5000000 		.4byte	0xa5
 2497 0374 09       		.byte	0x9
 2498 0375 00       		.byte	0
 2499 0376 05       		.uleb128 0x5
 2500 0377 90010000 		.4byte	.LASF68
 2501 037b 01       		.byte	0x1
ARM GAS  C:\Users\PRICHA~1\AppData\Local\Temp\cctE1isk.s 			page 73


 2502 037c 1501     		.2byte	0x115
 2503 037e 11030000 		.4byte	0x311
 2504 0382 13       		.uleb128 0x13
 2505 0383 1E       		.byte	0x1e
 2506 0384 01       		.byte	0x1
 2507 0385 1A01     		.2byte	0x11a
 2508 0387 BC030000 		.4byte	0x3bc
 2509 038b 14       		.uleb128 0x14
 2510 038c 62756600 		.ascii	"buf\000"
 2511 0390 01       		.byte	0x1
 2512 0391 1B01     		.2byte	0x11b
 2513 0393 BC030000 		.4byte	0x3bc
 2514 0397 15       		.uleb128 0x15
 2515 0398 5C040000 		.4byte	.LASF69
 2516 039c 01       		.byte	0x1
 2517 039d 1C01     		.2byte	0x11c
 2518 039f 7E020000 		.4byte	0x27e
 2519 03a3 15       		.uleb128 0x15
 2520 03a4 F9060000 		.4byte	.LASF70
 2521 03a8 01       		.byte	0x1
 2522 03a9 1D01     		.2byte	0x11d
 2523 03ab 05030000 		.4byte	0x305
 2524 03af 15       		.uleb128 0x15
 2525 03b0 D0040000 		.4byte	.LASF71
 2526 03b4 01       		.byte	0x1
 2527 03b5 1E01     		.2byte	0x11e
 2528 03b7 76030000 		.4byte	0x376
 2529 03bb 00       		.byte	0
 2530 03bc 16       		.uleb128 0x16
 2531 03bd A5000000 		.4byte	0xa5
 2532 03c1 CC030000 		.4byte	0x3cc
 2533 03c5 17       		.uleb128 0x17
 2534 03c6 29010000 		.4byte	0x129
 2535 03ca 1D       		.byte	0x1d
 2536 03cb 00       		.byte	0
 2537 03cc 10       		.uleb128 0x10
 2538 03cd 15       		.byte	0x15
 2539 03ce 01       		.byte	0x1
 2540 03cf 2201     		.2byte	0x122
 2541 03d1 7F040000 		.4byte	0x47f
 2542 03d5 11       		.uleb128 0x11
 2543 03d6 C8010000 		.4byte	.LASF57
 2544 03da 01       		.byte	0x1
 2545 03db 2301     		.2byte	0x123
 2546 03dd A5000000 		.4byte	0xa5
 2547 03e1 00       		.byte	0
 2548 03e2 11       		.uleb128 0x11
 2549 03e3 F7030000 		.4byte	.LASF72
 2550 03e7 01       		.byte	0x1
 2551 03e8 2401     		.2byte	0x124
 2552 03ea A5000000 		.4byte	0xa5
 2553 03ee 01       		.byte	0x1
 2554 03ef 11       		.uleb128 0x11
 2555 03f0 00040000 		.4byte	.LASF73
 2556 03f4 01       		.byte	0x1
 2557 03f5 2501     		.2byte	0x125
 2558 03f7 A5000000 		.4byte	0xa5
ARM GAS  C:\Users\PRICHA~1\AppData\Local\Temp\cctE1isk.s 			page 74


 2559 03fb 02       		.byte	0x2
 2560 03fc 11       		.uleb128 0x11
 2561 03fd 09040000 		.4byte	.LASF74
 2562 0401 01       		.byte	0x1
 2563 0402 2601     		.2byte	0x126
 2564 0404 A5000000 		.4byte	0xa5
 2565 0408 03       		.byte	0x3
 2566 0409 11       		.uleb128 0x11
 2567 040a E2050000 		.4byte	.LASF58
 2568 040e 01       		.byte	0x1
 2569 040f 2701     		.2byte	0x127
 2570 0411 A5000000 		.4byte	0xa5
 2571 0415 04       		.byte	0x4
 2572 0416 11       		.uleb128 0x11
 2573 0417 A7040000 		.4byte	.LASF59
 2574 041b 01       		.byte	0x1
 2575 041c 2801     		.2byte	0x128
 2576 041e A5000000 		.4byte	0xa5
 2577 0422 05       		.byte	0x5
 2578 0423 11       		.uleb128 0x11
 2579 0424 D4090000 		.4byte	.LASF75
 2580 0428 01       		.byte	0x1
 2581 0429 2901     		.2byte	0x129
 2582 042b A5000000 		.4byte	0xa5
 2583 042f 06       		.byte	0x6
 2584 0430 11       		.uleb128 0x11
 2585 0431 C40A0000 		.4byte	.LASF76
 2586 0435 01       		.byte	0x1
 2587 0436 2A01     		.2byte	0x12a
 2588 0438 A5000000 		.4byte	0xa5
 2589 043c 07       		.byte	0x7
 2590 043d 11       		.uleb128 0x11
 2591 043e E9060000 		.4byte	.LASF61
 2592 0442 01       		.byte	0x1
 2593 0443 2B01     		.2byte	0x12b
 2594 0445 A5000000 		.4byte	0xa5
 2595 0449 08       		.byte	0x8
 2596 044a 11       		.uleb128 0x11
 2597 044b D2050000 		.4byte	.LASF77
 2598 044f 01       		.byte	0x1
 2599 0450 2C01     		.2byte	0x12c
 2600 0452 B1000000 		.4byte	0xb1
 2601 0456 09       		.byte	0x9
 2602 0457 11       		.uleb128 0x11
 2603 0458 4D0A0000 		.4byte	.LASF78
 2604 045c 01       		.byte	0x1
 2605 045d 2D01     		.2byte	0x12d
 2606 045f D5000000 		.4byte	0xd5
 2607 0463 0B       		.byte	0xb
 2608 0464 11       		.uleb128 0x11
 2609 0465 D80A0000 		.4byte	.LASF79
 2610 0469 01       		.byte	0x1
 2611 046a 2E01     		.2byte	0x12e
 2612 046c E1000000 		.4byte	0xe1
 2613 0470 0D       		.byte	0xd
 2614 0471 12       		.uleb128 0x12
 2615 0472 70776D00 		.ascii	"pwm\000"
ARM GAS  C:\Users\PRICHA~1\AppData\Local\Temp\cctE1isk.s 			page 75


 2616 0476 01       		.byte	0x1
 2617 0477 2F01     		.2byte	0x12f
 2618 0479 25000000 		.4byte	0x25
 2619 047d 11       		.byte	0x11
 2620 047e 00       		.byte	0
 2621 047f 05       		.uleb128 0x5
 2622 0480 DE070000 		.4byte	.LASF80
 2623 0484 01       		.byte	0x1
 2624 0485 3001     		.2byte	0x130
 2625 0487 CC030000 		.4byte	0x3cc
 2626 048b 13       		.uleb128 0x13
 2627 048c 1E       		.byte	0x1e
 2628 048d 01       		.byte	0x1
 2629 048e 3301     		.2byte	0x133
 2630 0490 AD040000 		.4byte	0x4ad
 2631 0494 14       		.uleb128 0x14
 2632 0495 62756600 		.ascii	"buf\000"
 2633 0499 01       		.byte	0x1
 2634 049a 3401     		.2byte	0x134
 2635 049c BC030000 		.4byte	0x3bc
 2636 04a0 14       		.uleb128 0x14
 2637 04a1 6D736700 		.ascii	"msg\000"
 2638 04a5 01       		.byte	0x1
 2639 04a6 3501     		.2byte	0x135
 2640 04a8 7F040000 		.4byte	0x47f
 2641 04ac 00       		.byte	0
 2642 04ad 18       		.uleb128 0x18
 2643 04ae 01       		.byte	0x1
 2644 04af 5A000000 		.4byte	0x5a
 2645 04b3 01       		.byte	0x1
 2646 04b4 3901     		.2byte	0x139
 2647 04b6 C7040000 		.4byte	0x4c7
 2648 04ba 0D       		.uleb128 0xd
 2649 04bb 3C000000 		.4byte	.LASF81
 2650 04bf 00       		.byte	0
 2651 04c0 0D       		.uleb128 0xd
 2652 04c1 EE050000 		.4byte	.LASF82
 2653 04c5 01       		.byte	0x1
 2654 04c6 00       		.byte	0
 2655 04c7 05       		.uleb128 0x5
 2656 04c8 FA000000 		.4byte	.LASF83
 2657 04cc 01       		.byte	0x1
 2658 04cd 3C01     		.2byte	0x13c
 2659 04cf AD040000 		.4byte	0x4ad
 2660 04d3 19       		.uleb128 0x19
 2661 04d4 CA0A0000 		.4byte	.LASF84
 2662 04d8 01       		.byte	0x1
 2663 04d9 D004     		.2byte	0x4d0
 2664 04db 00000000 		.4byte	.LFB46
 2665 04df 18000000 		.4byte	.LFE46-.LFB46
 2666 04e3 01       		.uleb128 0x1
 2667 04e4 9C       		.byte	0x9c
 2668 04e5 1E050000 		.4byte	0x51e
 2669 04e9 1A       		.uleb128 0x1a
 2670 04ea 06000000 		.4byte	.LVL0
 2671 04ee 82120000 		.4byte	0x1282
 2672 04f2 1A       		.uleb128 0x1a
ARM GAS  C:\Users\PRICHA~1\AppData\Local\Temp\cctE1isk.s 			page 76


 2673 04f3 0A000000 		.4byte	.LVL1
 2674 04f7 8D120000 		.4byte	0x128d
 2675 04fb 1B       		.uleb128 0x1b
 2676 04fc 10000000 		.4byte	.LVL2
 2677 0500 98120000 		.4byte	0x1298
 2678 0504 0E050000 		.4byte	0x50e
 2679 0508 1C       		.uleb128 0x1c
 2680 0509 01       		.uleb128 0x1
 2681 050a 50       		.byte	0x50
 2682 050b 01       		.uleb128 0x1
 2683 050c 30       		.byte	0x30
 2684 050d 00       		.byte	0
 2685 050e 1D       		.uleb128 0x1d
 2686 050f 16000000 		.4byte	.LVL3
 2687 0513 A3120000 		.4byte	0x12a3
 2688 0517 1C       		.uleb128 0x1c
 2689 0518 01       		.uleb128 0x1
 2690 0519 50       		.byte	0x50
 2691 051a 01       		.uleb128 0x1
 2692 051b 30       		.byte	0x30
 2693 051c 00       		.byte	0
 2694 051d 00       		.byte	0
 2695 051e 19       		.uleb128 0x19
 2696 051f EB000000 		.4byte	.LASF85
 2697 0523 01       		.byte	0x1
 2698 0524 EA04     		.2byte	0x4ea
 2699 0526 00000000 		.4byte	.LFB47
 2700 052a 12000000 		.4byte	.LFE47-.LFB47
 2701 052e 01       		.uleb128 0x1
 2702 052f 9C       		.byte	0x9c
 2703 0530 56050000 		.4byte	0x556
 2704 0534 1A       		.uleb128 0x1a
 2705 0535 06000000 		.4byte	.LVL4
 2706 0539 AE120000 		.4byte	0x12ae
 2707 053d 1A       		.uleb128 0x1a
 2708 053e 0A000000 		.4byte	.LVL5
 2709 0542 B9120000 		.4byte	0x12b9
 2710 0546 1D       		.uleb128 0x1d
 2711 0547 10000000 		.4byte	.LVL6
 2712 054b 98120000 		.4byte	0x1298
 2713 054f 1C       		.uleb128 0x1c
 2714 0550 01       		.uleb128 0x1
 2715 0551 50       		.byte	0x50
 2716 0552 01       		.uleb128 0x1
 2717 0553 30       		.byte	0x30
 2718 0554 00       		.byte	0
 2719 0555 00       		.byte	0
 2720 0556 19       		.uleb128 0x19
 2721 0557 59060000 		.4byte	.LASF86
 2722 055b 01       		.byte	0x1
 2723 055c 0105     		.2byte	0x501
 2724 055e 00000000 		.4byte	.LFB48
 2725 0562 5C000000 		.4byte	.LFE48-.LFB48
 2726 0566 01       		.uleb128 0x1
 2727 0567 9C       		.byte	0x9c
 2728 0568 D2050000 		.4byte	0x5d2
 2729 056c 1E       		.uleb128 0x1e
ARM GAS  C:\Users\PRICHA~1\AppData\Local\Temp\cctE1isk.s 			page 77


 2730 056d 6900     		.ascii	"i\000"
 2731 056f 01       		.byte	0x1
 2732 0570 0305     		.2byte	0x503
 2733 0572 BD000000 		.4byte	0xbd
 2734 0576 00000000 		.4byte	.LLST0
 2735 057a 1A       		.uleb128 0x1a
 2736 057b 06000000 		.4byte	.LVL7
 2737 057f C4120000 		.4byte	0x12c4
 2738 0583 1A       		.uleb128 0x1a
 2739 0584 0A000000 		.4byte	.LVL8
 2740 0588 CF120000 		.4byte	0x12cf
 2741 058c 1A       		.uleb128 0x1a
 2742 058d 12000000 		.4byte	.LVL9
 2743 0591 DA120000 		.4byte	0x12da
 2744 0595 1B       		.uleb128 0x1b
 2745 0596 28000000 		.4byte	.LVL10
 2746 059a E6120000 		.4byte	0x12e6
 2747 059e B6050000 		.4byte	0x5b6
 2748 05a2 1C       		.uleb128 0x1c
 2749 05a3 01       		.uleb128 0x1
 2750 05a4 50       		.byte	0x50
 2751 05a5 05       		.uleb128 0x5
 2752 05a6 03       		.byte	0x3
 2753 05a7 00000000 		.4byte	txMessage
 2754 05ab 1C       		.uleb128 0x1c
 2755 05ac 01       		.uleb128 0x1
 2756 05ad 51       		.byte	0x51
 2757 05ae 01       		.uleb128 0x1
 2758 05af 30       		.byte	0x30
 2759 05b0 1C       		.uleb128 0x1c
 2760 05b1 01       		.uleb128 0x1
 2761 05b2 52       		.byte	0x52
 2762 05b3 01       		.uleb128 0x1
 2763 05b4 4E       		.byte	0x4e
 2764 05b5 00       		.byte	0
 2765 05b6 1A       		.uleb128 0x1a
 2766 05b7 30000000 		.4byte	.LVL12
 2767 05bb EF120000 		.4byte	0x12ef
 2768 05bf 1A       		.uleb128 0x1a
 2769 05c0 3E000000 		.4byte	.LVL14
 2770 05c4 FB120000 		.4byte	0x12fb
 2771 05c8 1A       		.uleb128 0x1a
 2772 05c9 42000000 		.4byte	.LVL15
 2773 05cd 07130000 		.4byte	0x1307
 2774 05d1 00       		.byte	0
 2775 05d2 19       		.uleb128 0x19
 2776 05d3 18020000 		.4byte	.LASF87
 2777 05d7 01       		.byte	0x1
 2778 05d8 5601     		.2byte	0x156
 2779 05da 00000000 		.4byte	.LFB32
 2780 05de 28000000 		.4byte	.LFE32-.LFB32
 2781 05e2 01       		.uleb128 0x1
 2782 05e3 9C       		.byte	0x9c
 2783 05e4 1E060000 		.4byte	0x61e
 2784 05e8 1B       		.uleb128 0x1b
 2785 05e9 0A000000 		.4byte	.LVL17
 2786 05ed 13130000 		.4byte	0x1313
ARM GAS  C:\Users\PRICHA~1\AppData\Local\Temp\cctE1isk.s 			page 78


 2787 05f1 FB050000 		.4byte	0x5fb
 2788 05f5 1C       		.uleb128 0x1c
 2789 05f6 01       		.uleb128 0x1
 2790 05f7 50       		.byte	0x50
 2791 05f8 01       		.uleb128 0x1
 2792 05f9 3B       		.byte	0x3b
 2793 05fa 00       		.byte	0
 2794 05fb 1B       		.uleb128 0x1b
 2795 05fc 12000000 		.4byte	.LVL18
 2796 0600 13130000 		.4byte	0x1313
 2797 0604 0E060000 		.4byte	0x60e
 2798 0608 1C       		.uleb128 0x1c
 2799 0609 01       		.uleb128 0x1
 2800 060a 50       		.byte	0x50
 2801 060b 01       		.uleb128 0x1
 2802 060c 3E       		.byte	0x3e
 2803 060d 00       		.byte	0
 2804 060e 1D       		.uleb128 0x1d
 2805 060f 1A000000 		.4byte	.LVL19
 2806 0613 13130000 		.4byte	0x1313
 2807 0617 1C       		.uleb128 0x1c
 2808 0618 01       		.uleb128 0x1
 2809 0619 50       		.byte	0x50
 2810 061a 01       		.uleb128 0x1
 2811 061b 3F       		.byte	0x3f
 2812 061c 00       		.byte	0
 2813 061d 00       		.byte	0
 2814 061e 19       		.uleb128 0x19
 2815 061f A3010000 		.4byte	.LASF88
 2816 0623 01       		.byte	0x1
 2817 0624 6E01     		.2byte	0x16e
 2818 0626 00000000 		.4byte	.LFB33
 2819 062a 1C000000 		.4byte	.LFE33-.LFB33
 2820 062e 01       		.uleb128 0x1
 2821 062f 9C       		.byte	0x9c
 2822 0630 45060000 		.4byte	0x645
 2823 0634 1F       		.uleb128 0x1f
 2824 0635 C40A0000 		.4byte	.LASF76
 2825 0639 01       		.byte	0x1
 2826 063a 6E01     		.2byte	0x16e
 2827 063c 10020000 		.4byte	0x210
 2828 0640 1F000000 		.4byte	.LLST1
 2829 0644 00       		.byte	0
 2830 0645 20       		.uleb128 0x20
 2831 0646 00000000 		.4byte	.LASF96
 2832 064a 01       		.byte	0x1
 2833 064b A301     		.2byte	0x1a3
 2834 064d 00000000 		.4byte	.LFB35
 2835 0651 D8000000 		.4byte	.LFE35-.LFB35
 2836 0655 01       		.uleb128 0x1
 2837 0656 9C       		.byte	0x9c
 2838 0657 04080000 		.4byte	0x804
 2839 065b 21       		.uleb128 0x21
 2840 065c 61726700 		.ascii	"arg\000"
 2841 0660 01       		.byte	0x1
 2842 0661 A301     		.2byte	0x1a3
 2843 0663 30010000 		.4byte	0x130
ARM GAS  C:\Users\PRICHA~1\AppData\Local\Temp\cctE1isk.s 			page 79


 2844 0667 40000000 		.4byte	.LLST2
 2845 066b 22       		.uleb128 0x22
 2846 066c 65727200 		.ascii	"err\000"
 2847 0670 01       		.byte	0x1
 2848 0671 A501     		.2byte	0x1a5
 2849 0673 11010000 		.4byte	0x111
 2850 0677 02       		.uleb128 0x2
 2851 0678 91       		.byte	0x91
 2852 0679 74       		.sleb128 -12
 2853 067a 23       		.uleb128 0x23
 2854 067b 59020000 		.4byte	.LASF89
 2855 067f 01       		.byte	0x1
 2856 0680 A601     		.2byte	0x1a6
 2857 0682 A5000000 		.4byte	0xa5
 2858 0686 61000000 		.4byte	.LLST3
 2859 068a 23       		.uleb128 0x23
 2860 068b E6090000 		.4byte	.LASF90
 2861 068f 01       		.byte	0x1
 2862 0690 A701     		.2byte	0x1a7
 2863 0692 A5000000 		.4byte	0xa5
 2864 0696 76000000 		.4byte	.LLST4
 2865 069a 24       		.uleb128 0x24
 2866 069b C3030000 		.4byte	.LASF91
 2867 069f 01       		.byte	0x1
 2868 06a0 A801     		.2byte	0x1a8
 2869 06a2 04080000 		.4byte	0x804
 2870 06a6 02       		.uleb128 0x2
 2871 06a7 91       		.byte	0x91
 2872 06a8 72       		.sleb128 -14
 2873 06a9 1B       		.uleb128 0x1b
 2874 06aa 0A000000 		.4byte	.LVL24
 2875 06ae 1E130000 		.4byte	0x131e
 2876 06b2 BC060000 		.4byte	0x6bc
 2877 06b6 1C       		.uleb128 0x1c
 2878 06b7 01       		.uleb128 0x1
 2879 06b8 50       		.byte	0x50
 2880 06b9 01       		.uleb128 0x1
 2881 06ba 30       		.byte	0x30
 2882 06bb 00       		.byte	0
 2883 06bc 1B       		.uleb128 0x1b
 2884 06bd 18000000 		.4byte	.LVL25
 2885 06c1 2A130000 		.4byte	0x132a
 2886 06c5 DA060000 		.4byte	0x6da
 2887 06c9 1C       		.uleb128 0x1c
 2888 06ca 01       		.uleb128 0x1
 2889 06cb 50       		.byte	0x50
 2890 06cc 02       		.uleb128 0x2
 2891 06cd 08       		.byte	0x8
 2892 06ce 40       		.byte	0x40
 2893 06cf 1C       		.uleb128 0x1c
 2894 06d0 01       		.uleb128 0x1
 2895 06d1 51       		.byte	0x51
 2896 06d2 01       		.uleb128 0x1
 2897 06d3 30       		.byte	0x30
 2898 06d4 1C       		.uleb128 0x1c
 2899 06d5 01       		.uleb128 0x1
 2900 06d6 52       		.byte	0x52
ARM GAS  C:\Users\PRICHA~1\AppData\Local\Temp\cctE1isk.s 			page 80


 2901 06d7 01       		.uleb128 0x1
 2902 06d8 3A       		.byte	0x3a
 2903 06d9 00       		.byte	0
 2904 06da 1B       		.uleb128 0x1b
 2905 06db 28000000 		.4byte	.LVL26
 2906 06df 36130000 		.4byte	0x1336
 2907 06e3 F2060000 		.4byte	0x6f2
 2908 06e7 1C       		.uleb128 0x1c
 2909 06e8 01       		.uleb128 0x1
 2910 06e9 50       		.byte	0x50
 2911 06ea 01       		.uleb128 0x1
 2912 06eb 35       		.byte	0x35
 2913 06ec 1C       		.uleb128 0x1c
 2914 06ed 01       		.uleb128 0x1
 2915 06ee 51       		.byte	0x51
 2916 06ef 01       		.uleb128 0x1
 2917 06f0 3A       		.byte	0x3a
 2918 06f1 00       		.byte	0
 2919 06f2 1B       		.uleb128 0x1b
 2920 06f3 30000000 		.4byte	.LVL27
 2921 06f7 36130000 		.4byte	0x1336
 2922 06fb 0B070000 		.4byte	0x70b
 2923 06ff 1C       		.uleb128 0x1c
 2924 0700 01       		.uleb128 0x1
 2925 0701 50       		.byte	0x50
 2926 0702 02       		.uleb128 0x2
 2927 0703 08       		.byte	0x8
 2928 0704 20       		.byte	0x20
 2929 0705 1C       		.uleb128 0x1c
 2930 0706 01       		.uleb128 0x1
 2931 0707 51       		.byte	0x51
 2932 0708 01       		.uleb128 0x1
 2933 0709 3A       		.byte	0x3a
 2934 070a 00       		.byte	0
 2935 070b 1B       		.uleb128 0x1b
 2936 070c 38000000 		.4byte	.LVL28
 2937 0710 36130000 		.4byte	0x1336
 2938 0714 23070000 		.4byte	0x723
 2939 0718 1C       		.uleb128 0x1c
 2940 0719 01       		.uleb128 0x1
 2941 071a 50       		.byte	0x50
 2942 071b 01       		.uleb128 0x1
 2943 071c 30       		.byte	0x30
 2944 071d 1C       		.uleb128 0x1c
 2945 071e 01       		.uleb128 0x1
 2946 071f 51       		.byte	0x51
 2947 0720 01       		.uleb128 0x1
 2948 0721 3A       		.byte	0x3a
 2949 0722 00       		.byte	0
 2950 0723 1B       		.uleb128 0x1b
 2951 0724 3E000000 		.4byte	.LVL29
 2952 0728 42130000 		.4byte	0x1342
 2953 072c 36070000 		.4byte	0x736
 2954 0730 1C       		.uleb128 0x1c
 2955 0731 01       		.uleb128 0x1
 2956 0732 50       		.byte	0x50
 2957 0733 01       		.uleb128 0x1
ARM GAS  C:\Users\PRICHA~1\AppData\Local\Temp\cctE1isk.s 			page 81


 2958 0734 3A       		.byte	0x3a
 2959 0735 00       		.byte	0
 2960 0736 1B       		.uleb128 0x1b
 2961 0737 4C000000 		.4byte	.LVL31
 2962 073b 1E060000 		.4byte	0x61e
 2963 073f 49070000 		.4byte	0x749
 2964 0743 1C       		.uleb128 0x1c
 2965 0744 01       		.uleb128 0x1
 2966 0745 50       		.byte	0x50
 2967 0746 01       		.uleb128 0x1
 2968 0747 38       		.byte	0x38
 2969 0748 00       		.byte	0
 2970 0749 1B       		.uleb128 0x1b
 2971 074a 56000000 		.4byte	.LVL32
 2972 074e 2A130000 		.4byte	0x132a
 2973 0752 67070000 		.4byte	0x767
 2974 0756 1C       		.uleb128 0x1c
 2975 0757 01       		.uleb128 0x1
 2976 0758 50       		.byte	0x50
 2977 0759 02       		.uleb128 0x2
 2978 075a 08       		.byte	0x8
 2979 075b 40       		.byte	0x40
 2980 075c 1C       		.uleb128 0x1c
 2981 075d 01       		.uleb128 0x1
 2982 075e 51       		.byte	0x51
 2983 075f 01       		.uleb128 0x1
 2984 0760 30       		.byte	0x30
 2985 0761 1C       		.uleb128 0x1c
 2986 0762 01       		.uleb128 0x1
 2987 0763 52       		.byte	0x52
 2988 0764 01       		.uleb128 0x1
 2989 0765 3A       		.byte	0x3a
 2990 0766 00       		.byte	0
 2991 0767 1B       		.uleb128 0x1b
 2992 0768 66000000 		.4byte	.LVL33
 2993 076c 36130000 		.4byte	0x1336
 2994 0770 7F070000 		.4byte	0x77f
 2995 0774 1C       		.uleb128 0x1c
 2996 0775 01       		.uleb128 0x1
 2997 0776 50       		.byte	0x50
 2998 0777 01       		.uleb128 0x1
 2999 0778 34       		.byte	0x34
 3000 0779 1C       		.uleb128 0x1c
 3001 077a 01       		.uleb128 0x1
 3002 077b 51       		.byte	0x51
 3003 077c 01       		.uleb128 0x1
 3004 077d 3A       		.byte	0x3a
 3005 077e 00       		.byte	0
 3006 077f 1B       		.uleb128 0x1b
 3007 0780 6C000000 		.4byte	.LVL34
 3008 0784 42130000 		.4byte	0x1342
 3009 0788 92070000 		.4byte	0x792
 3010 078c 1C       		.uleb128 0x1c
 3011 078d 01       		.uleb128 0x1
 3012 078e 50       		.byte	0x50
 3013 078f 01       		.uleb128 0x1
 3014 0790 3A       		.byte	0x3a
ARM GAS  C:\Users\PRICHA~1\AppData\Local\Temp\cctE1isk.s 			page 82


 3015 0791 00       		.byte	0
 3016 0792 1B       		.uleb128 0x1b
 3017 0793 78000000 		.4byte	.LVL35
 3018 0797 4E130000 		.4byte	0x134e
 3019 079b B9070000 		.4byte	0x7b9
 3020 079f 1C       		.uleb128 0x1c
 3021 07a0 01       		.uleb128 0x1
 3022 07a1 50       		.byte	0x50
 3023 07a2 02       		.uleb128 0x2
 3024 07a3 08       		.byte	0x8
 3025 07a4 40       		.byte	0x40
 3026 07a5 1C       		.uleb128 0x1c
 3027 07a6 01       		.uleb128 0x1
 3028 07a7 51       		.byte	0x51
 3029 07a8 05       		.uleb128 0x5
 3030 07a9 03       		.byte	0x3
 3031 07aa 00000000 		.4byte	CurrentI2Cinbuf
 3032 07ae 1C       		.uleb128 0x1c
 3033 07af 01       		.uleb128 0x1
 3034 07b0 52       		.byte	0x52
 3035 07b1 01       		.uleb128 0x1
 3036 07b2 35       		.byte	0x35
 3037 07b3 1C       		.uleb128 0x1c
 3038 07b4 01       		.uleb128 0x1
 3039 07b5 53       		.byte	0x53
 3040 07b6 01       		.uleb128 0x1
 3041 07b7 31       		.byte	0x31
 3042 07b8 00       		.byte	0
 3043 07b9 1B       		.uleb128 0x1b
 3044 07ba 9E000000 		.4byte	.LVL36
 3045 07be 1E060000 		.4byte	0x61e
 3046 07c2 CC070000 		.4byte	0x7cc
 3047 07c6 1C       		.uleb128 0x1c
 3048 07c7 01       		.uleb128 0x1
 3049 07c8 50       		.byte	0x50
 3050 07c9 01       		.uleb128 0x1
 3051 07ca 38       		.byte	0x38
 3052 07cb 00       		.byte	0
 3053 07cc 1B       		.uleb128 0x1b
 3054 07cd AC000000 		.4byte	.LVL37
 3055 07d1 1E060000 		.4byte	0x61e
 3056 07d5 DF070000 		.4byte	0x7df
 3057 07d9 1C       		.uleb128 0x1c
 3058 07da 01       		.uleb128 0x1
 3059 07db 50       		.byte	0x50
 3060 07dc 01       		.uleb128 0x1
 3061 07dd 38       		.byte	0x38
 3062 07de 00       		.byte	0
 3063 07df 1B       		.uleb128 0x1b
 3064 07e0 C0000000 		.4byte	.LVL38
 3065 07e4 5A130000 		.4byte	0x135a
 3066 07e8 F4070000 		.4byte	0x7f4
 3067 07ec 1C       		.uleb128 0x1c
 3068 07ed 01       		.uleb128 0x1
 3069 07ee 50       		.byte	0x50
 3070 07ef 03       		.uleb128 0x3
 3071 07f0 0A       		.byte	0xa
ARM GAS  C:\Users\PRICHA~1\AppData\Local\Temp\cctE1isk.s 			page 83


 3072 07f1 F401     		.2byte	0x1f4
 3073 07f3 00       		.byte	0
 3074 07f4 1D       		.uleb128 0x1d
 3075 07f5 C6000000 		.4byte	.LVL39
 3076 07f9 1E130000 		.4byte	0x131e
 3077 07fd 1C       		.uleb128 0x1c
 3078 07fe 01       		.uleb128 0x1
 3079 07ff 50       		.byte	0x50
 3080 0800 01       		.uleb128 0x1
 3081 0801 30       		.byte	0x30
 3082 0802 00       		.byte	0
 3083 0803 00       		.byte	0
 3084 0804 06       		.uleb128 0x6
 3085 0805 D5000000 		.4byte	0xd5
 3086 0809 19       		.uleb128 0x19
 3087 080a 27010000 		.4byte	.LASF92
 3088 080e 01       		.byte	0x1
 3089 080f 8901     		.2byte	0x189
 3090 0811 00000000 		.4byte	.LFB34
 3091 0815 1C000000 		.4byte	.LFE34-.LFB34
 3092 0819 01       		.uleb128 0x1
 3093 081a 9C       		.byte	0x9c
 3094 081b 2E080000 		.4byte	0x82e
 3095 081f 25       		.uleb128 0x25
 3096 0820 C40A0000 		.4byte	.LASF76
 3097 0824 01       		.byte	0x1
 3098 0825 8901     		.2byte	0x189
 3099 0827 10020000 		.4byte	0x210
 3100 082b 01       		.uleb128 0x1
 3101 082c 50       		.byte	0x50
 3102 082d 00       		.byte	0
 3103 082e 26       		.uleb128 0x26
 3104 082f 70040000 		.4byte	.LASF93
 3105 0833 01       		.byte	0x1
 3106 0834 B802     		.2byte	0x2b8
 3107 0836 00000000 		.4byte	.LFB37
 3108 083a 40000000 		.4byte	.LFE37-.LFB37
 3109 083e 01       		.uleb128 0x1
 3110 083f 9C       		.byte	0x9c
 3111 0840 6E080000 		.4byte	0x86e
 3112 0844 1F       		.uleb128 0x1f
 3113 0845 92090000 		.4byte	.LASF94
 3114 0849 01       		.byte	0x1
 3115 084a B802     		.2byte	0x2b8
 3116 084c 25000000 		.4byte	0x25
 3117 0850 8A000000 		.4byte	.LLST5
 3118 0854 23       		.uleb128 0x23
 3119 0855 7D030000 		.4byte	.LASF95
 3120 0859 01       		.byte	0x1
 3121 085a BA02     		.2byte	0x2ba
 3122 085c 25000000 		.4byte	0x25
 3123 0860 B8000000 		.4byte	.LLST6
 3124 0864 1A       		.uleb128 0x1a
 3125 0865 36000000 		.4byte	.LVL48
 3126 0869 66130000 		.4byte	0x1366
 3127 086d 00       		.byte	0
 3128 086e 27       		.uleb128 0x27
ARM GAS  C:\Users\PRICHA~1\AppData\Local\Temp\cctE1isk.s 			page 84


 3129 086f F3070000 		.4byte	.LASF97
 3130 0873 01       		.byte	0x1
 3131 0874 CF02     		.2byte	0x2cf
 3132 0876 E1000000 		.4byte	0xe1
 3133 087a 00000000 		.4byte	.LFB38
 3134 087e 24000000 		.4byte	.LFE38-.LFB38
 3135 0882 01       		.uleb128 0x1
 3136 0883 9C       		.byte	0x9c
 3137 0884 B0080000 		.4byte	0x8b0
 3138 0888 23       		.uleb128 0x23
 3139 0889 D2070000 		.4byte	.LASF98
 3140 088d 01       		.byte	0x1
 3141 088e D102     		.2byte	0x2d1
 3142 0890 BD000000 		.4byte	0xbd
 3143 0894 E1000000 		.4byte	.LLST7
 3144 0898 24       		.uleb128 0x24
 3145 0899 FA010000 		.4byte	.LASF99
 3146 089d 01       		.byte	0x1
 3147 089e D202     		.2byte	0x2d2
 3148 08a0 E1000000 		.4byte	0xe1
 3149 08a4 01       		.uleb128 0x1
 3150 08a5 50       		.byte	0x50
 3151 08a6 1A       		.uleb128 0x1a
 3152 08a7 06000000 		.4byte	.LVL51
 3153 08ab 72130000 		.4byte	0x1372
 3154 08af 00       		.byte	0
 3155 08b0 28       		.uleb128 0x28
 3156 08b1 7C080000 		.4byte	.LASF100
 3157 08b5 01       		.byte	0x1
 3158 08b6 EF01     		.2byte	0x1ef
 3159 08b8 00000000 		.4byte	.LFB36
 3160 08bc C0020000 		.4byte	.LFE36-.LFB36
 3161 08c0 01       		.uleb128 0x1
 3162 08c1 9C       		.byte	0x9c
 3163 08c2 F1090000 		.4byte	0x9f1
 3164 08c6 21       		.uleb128 0x21
 3165 08c7 61726700 		.ascii	"arg\000"
 3166 08cb 01       		.byte	0x1
 3167 08cc EF01     		.2byte	0x1ef
 3168 08ce 30010000 		.4byte	0x130
 3169 08d2 F4000000 		.4byte	.LLST8
 3170 08d6 23       		.uleb128 0x23
 3171 08d7 A7040000 		.4byte	.LASF59
 3172 08db 01       		.byte	0x1
 3173 08dc F101     		.2byte	0x1f1
 3174 08de 46020000 		.4byte	0x246
 3175 08e2 15010000 		.4byte	.LLST9
 3176 08e6 23       		.uleb128 0x23
 3177 08e7 E2050000 		.4byte	.LASF58
 3178 08eb 01       		.byte	0x1
 3179 08ec F201     		.2byte	0x1f2
 3180 08ee A5000000 		.4byte	0xa5
 3181 08f2 33010000 		.4byte	.LLST10
 3182 08f6 1E       		.uleb128 0x1e
 3183 08f7 6900     		.ascii	"i\000"
 3184 08f9 01       		.byte	0x1
 3185 08fa F301     		.2byte	0x1f3
ARM GAS  C:\Users\PRICHA~1\AppData\Local\Temp\cctE1isk.s 			page 85


 3186 08fc A5000000 		.4byte	0xa5
 3187 0900 51010000 		.4byte	.LLST11
 3188 0904 23       		.uleb128 0x23
 3189 0905 C8010000 		.4byte	.LASF57
 3190 0909 01       		.byte	0x1
 3191 090a F401     		.2byte	0x1f4
 3192 090c A5000000 		.4byte	0xa5
 3193 0910 A8010000 		.4byte	.LLST12
 3194 0914 23       		.uleb128 0x23
 3195 0915 DB000000 		.4byte	.LASF101
 3196 0919 01       		.byte	0x1
 3197 091a F501     		.2byte	0x1f5
 3198 091c A5000000 		.4byte	0xa5
 3199 0920 0A020000 		.4byte	.LLST13
 3200 0924 1B       		.uleb128 0x1b
 3201 0925 08000000 		.4byte	.LVL55
 3202 0929 1E130000 		.4byte	0x131e
 3203 092d 37090000 		.4byte	0x937
 3204 0931 1C       		.uleb128 0x1c
 3205 0932 01       		.uleb128 0x1
 3206 0933 50       		.byte	0x50
 3207 0934 01       		.uleb128 0x1
 3208 0935 30       		.byte	0x30
 3209 0936 00       		.byte	0
 3210 0937 1B       		.uleb128 0x1b
 3211 0938 2A000000 		.4byte	.LVL56
 3212 093c 7D130000 		.4byte	0x137d
 3213 0940 4A090000 		.4byte	0x94a
 3214 0944 1C       		.uleb128 0x1c
 3215 0945 01       		.uleb128 0x1
 3216 0946 51       		.byte	0x51
 3217 0947 01       		.uleb128 0x1
 3218 0948 34       		.byte	0x34
 3219 0949 00       		.byte	0
 3220 094a 1B       		.uleb128 0x1b
 3221 094b 36010000 		.4byte	.LVL81
 3222 094f 09080000 		.4byte	0x809
 3223 0953 5D090000 		.4byte	0x95d
 3224 0957 1C       		.uleb128 0x1c
 3225 0958 01       		.uleb128 0x1
 3226 0959 50       		.byte	0x50
 3227 095a 01       		.uleb128 0x1
 3228 095b 30       		.byte	0x30
 3229 095c 00       		.byte	0
 3230 095d 1A       		.uleb128 0x1a
 3231 095e 66010000 		.4byte	.LVL85
 3232 0962 6E080000 		.4byte	0x86e
 3233 0966 1B       		.uleb128 0x1b
 3234 0967 8C010000 		.4byte	.LVL86
 3235 096b A3120000 		.4byte	0x12a3
 3236 096f 79090000 		.4byte	0x979
 3237 0973 1C       		.uleb128 0x1c
 3238 0974 01       		.uleb128 0x1
 3239 0975 50       		.byte	0x50
 3240 0976 01       		.uleb128 0x1
 3241 0977 30       		.byte	0x30
 3242 0978 00       		.byte	0
ARM GAS  C:\Users\PRICHA~1\AppData\Local\Temp\cctE1isk.s 			page 86


 3243 0979 1A       		.uleb128 0x1a
 3244 097a 9A010000 		.4byte	.LVL88
 3245 097e 6E080000 		.4byte	0x86e
 3246 0982 1B       		.uleb128 0x1b
 3247 0983 20020000 		.4byte	.LVL96
 3248 0987 89130000 		.4byte	0x1389
 3249 098b 9E090000 		.4byte	0x99e
 3250 098f 1C       		.uleb128 0x1c
 3251 0990 01       		.uleb128 0x1
 3252 0991 50       		.byte	0x50
 3253 0992 05       		.uleb128 0x5
 3254 0993 03       		.byte	0x3
 3255 0994 00000000 		.4byte	txMessage
 3256 0998 1C       		.uleb128 0x1c
 3257 0999 01       		.uleb128 0x1
 3258 099a 51       		.byte	0x51
 3259 099b 01       		.uleb128 0x1
 3260 099c 4E       		.byte	0x4e
 3261 099d 00       		.byte	0
 3262 099e 1B       		.uleb128 0x1b
 3263 099f 34020000 		.4byte	.LVL97
 3264 09a3 09080000 		.4byte	0x809
 3265 09a7 B1090000 		.4byte	0x9b1
 3266 09ab 1C       		.uleb128 0x1c
 3267 09ac 01       		.uleb128 0x1
 3268 09ad 50       		.byte	0x50
 3269 09ae 01       		.uleb128 0x1
 3270 09af 30       		.byte	0x30
 3271 09b0 00       		.byte	0
 3272 09b1 1B       		.uleb128 0x1b
 3273 09b2 42020000 		.4byte	.LVL98
 3274 09b6 95130000 		.4byte	0x1395
 3275 09ba CE090000 		.4byte	0x9ce
 3276 09be 1C       		.uleb128 0x1c
 3277 09bf 01       		.uleb128 0x1
 3278 09c0 51       		.byte	0x51
 3279 09c1 01       		.uleb128 0x1
 3280 09c2 30       		.byte	0x30
 3281 09c3 1C       		.uleb128 0x1c
 3282 09c4 01       		.uleb128 0x1
 3283 09c5 52       		.byte	0x52
 3284 09c6 01       		.uleb128 0x1
 3285 09c7 30       		.byte	0x30
 3286 09c8 1C       		.uleb128 0x1c
 3287 09c9 01       		.uleb128 0x1
 3288 09ca 53       		.byte	0x53
 3289 09cb 01       		.uleb128 0x1
 3290 09cc 30       		.byte	0x30
 3291 09cd 00       		.byte	0
 3292 09ce 1B       		.uleb128 0x1b
 3293 09cf 48020000 		.4byte	.LVL99
 3294 09d3 5A130000 		.4byte	0x135a
 3295 09d7 E1090000 		.4byte	0x9e1
 3296 09db 1C       		.uleb128 0x1c
 3297 09dc 01       		.uleb128 0x1
 3298 09dd 50       		.byte	0x50
 3299 09de 01       		.uleb128 0x1
ARM GAS  C:\Users\PRICHA~1\AppData\Local\Temp\cctE1isk.s 			page 87


 3300 09df 31       		.byte	0x31
 3301 09e0 00       		.byte	0
 3302 09e1 1D       		.uleb128 0x1d
 3303 09e2 4E020000 		.4byte	.LVL100
 3304 09e6 1E130000 		.4byte	0x131e
 3305 09ea 1C       		.uleb128 0x1c
 3306 09eb 01       		.uleb128 0x1
 3307 09ec 50       		.byte	0x50
 3308 09ed 01       		.uleb128 0x1
 3309 09ee 30       		.byte	0x30
 3310 09ef 00       		.byte	0
 3311 09f0 00       		.byte	0
 3312 09f1 19       		.uleb128 0x19
 3313 09f2 2A0A0000 		.4byte	.LASF102
 3314 09f6 01       		.byte	0x1
 3315 09f7 F302     		.2byte	0x2f3
 3316 09f9 00000000 		.4byte	.LFB39
 3317 09fd 24000000 		.4byte	.LFE39-.LFB39
 3318 0a01 01       		.uleb128 0x1
 3319 0a02 9C       		.byte	0x9c
 3320 0a03 110A0000 		.4byte	0xa11
 3321 0a07 1A       		.uleb128 0x1a
 3322 0a08 06000000 		.4byte	.LVL101
 3323 0a0c 6E080000 		.4byte	0x86e
 3324 0a10 00       		.byte	0
 3325 0a11 26       		.uleb128 0x26
 3326 0a12 9D060000 		.4byte	.LASF103
 3327 0a16 01       		.byte	0x1
 3328 0a17 0803     		.2byte	0x308
 3329 0a19 00000000 		.4byte	.LFB40
 3330 0a1d 44000000 		.4byte	.LFE40-.LFB40
 3331 0a21 01       		.uleb128 0x1
 3332 0a22 9C       		.byte	0x9c
 3333 0a23 820A0000 		.4byte	0xa82
 3334 0a27 1F       		.uleb128 0x1f
 3335 0a28 DB060000 		.4byte	.LASF104
 3336 0a2c 01       		.byte	0x1
 3337 0a2d 0803     		.2byte	0x308
 3338 0a2f BD000000 		.4byte	0xbd
 3339 0a33 28020000 		.4byte	.LLST14
 3340 0a37 1F       		.uleb128 0x1f
 3341 0a38 BE000000 		.4byte	.LASF105
 3342 0a3c 01       		.byte	0x1
 3343 0a3d 0803     		.2byte	0x308
 3344 0a3f 25000000 		.4byte	0x25
 3345 0a43 49020000 		.4byte	.LLST15
 3346 0a47 1F       		.uleb128 0x1f
 3347 0a48 B8000000 		.4byte	.LASF106
 3348 0a4c 01       		.byte	0x1
 3349 0a4d 0803     		.2byte	0x308
 3350 0a4f 25000000 		.4byte	0x25
 3351 0a53 77020000 		.4byte	.LLST16
 3352 0a57 1F       		.uleb128 0x1f
 3353 0a58 B2000000 		.4byte	.LASF107
 3354 0a5c 01       		.byte	0x1
 3355 0a5d 0803     		.2byte	0x308
 3356 0a5f 25000000 		.4byte	0x25
ARM GAS  C:\Users\PRICHA~1\AppData\Local\Temp\cctE1isk.s 			page 88


 3357 0a63 A5020000 		.4byte	.LLST17
 3358 0a67 29       		.uleb128 0x29
 3359 0a68 0C000000 		.4byte	.LBB2
 3360 0a6c 26000000 		.4byte	.LBE2-.LBB2
 3361 0a70 23       		.uleb128 0x23
 3362 0a71 65070000 		.4byte	.LASF108
 3363 0a75 01       		.byte	0x1
 3364 0a76 0C03     		.2byte	0x30c
 3365 0a78 25000000 		.4byte	0x25
 3366 0a7c D3020000 		.4byte	.LLST18
 3367 0a80 00       		.byte	0
 3368 0a81 00       		.byte	0
 3369 0a82 2A       		.uleb128 0x2a
 3370 0a83 CF060000 		.4byte	.LASF109
 3371 0a87 01       		.byte	0x1
 3372 0a88 1E03     		.2byte	0x31e
 3373 0a8a 25000000 		.4byte	0x25
 3374 0a8e 00000000 		.4byte	.LFB41
 3375 0a92 38010000 		.4byte	.LFE41-.LFB41
 3376 0a96 01       		.uleb128 0x1
 3377 0a97 9C       		.byte	0x9c
 3378 0a98 FF0A0000 		.4byte	0xaff
 3379 0a9c 21       		.uleb128 0x21
 3380 0a9d 6E6F7700 		.ascii	"now\000"
 3381 0aa1 01       		.byte	0x1
 3382 0aa2 1E03     		.2byte	0x31e
 3383 0aa4 BD000000 		.4byte	0xbd
 3384 0aa8 F1020000 		.4byte	.LLST19
 3385 0aac 1F       		.uleb128 0x1f
 3386 0aad EA070000 		.4byte	.LASF66
 3387 0ab1 01       		.byte	0x1
 3388 0ab2 1E03     		.2byte	0x31e
 3389 0ab4 BD000000 		.4byte	0xbd
 3390 0ab8 33030000 		.4byte	.LLST20
 3391 0abc 23       		.uleb128 0x23
 3392 0abd 0C010000 		.4byte	.LASF110
 3393 0ac1 01       		.byte	0x1
 3394 0ac2 2003     		.2byte	0x320
 3395 0ac4 E1000000 		.4byte	0xe1
 3396 0ac8 78030000 		.4byte	.LLST21
 3397 0acc 23       		.uleb128 0x23
 3398 0acd 18070000 		.4byte	.LASF111
 3399 0ad1 01       		.byte	0x1
 3400 0ad2 2003     		.2byte	0x320
 3401 0ad4 E1000000 		.4byte	0xe1
 3402 0ad8 8B030000 		.4byte	.LLST22
 3403 0adc 23       		.uleb128 0x23
 3404 0add 67050000 		.4byte	.LASF112
 3405 0ae1 01       		.byte	0x1
 3406 0ae2 2103     		.2byte	0x321
 3407 0ae4 BD000000 		.4byte	0xbd
 3408 0ae8 9E030000 		.4byte	.LLST23
 3409 0aec 1A       		.uleb128 0x1a
 3410 0aed 12000000 		.4byte	.LVL113
 3411 0af1 6E080000 		.4byte	0x86e
 3412 0af5 1A       		.uleb128 0x1a
 3413 0af6 34000000 		.4byte	.LVL115
ARM GAS  C:\Users\PRICHA~1\AppData\Local\Temp\cctE1isk.s 			page 89


 3414 0afa 110A0000 		.4byte	0xa11
 3415 0afe 00       		.byte	0
 3416 0aff 19       		.uleb128 0x19
 3417 0b00 64040000 		.4byte	.LASF113
 3418 0b04 01       		.byte	0x1
 3419 0b05 5C03     		.2byte	0x35c
 3420 0b07 00000000 		.4byte	.LFB42
 3421 0b0b 24000000 		.4byte	.LFE42-.LFB42
 3422 0b0f 01       		.uleb128 0x1
 3423 0b10 9C       		.byte	0x9c
 3424 0b11 3F0B0000 		.4byte	0xb3f
 3425 0b15 1F       		.uleb128 0x1f
 3426 0b16 51070000 		.4byte	.LASF114
 3427 0b1a 01       		.byte	0x1
 3428 0b1b 5C03     		.2byte	0x35c
 3429 0b1d BD000000 		.4byte	0xbd
 3430 0b21 B1030000 		.4byte	.LLST24
 3431 0b25 23       		.uleb128 0x23
 3432 0b26 60000000 		.4byte	.LASF115
 3433 0b2a 01       		.byte	0x1
 3434 0b2b 5E03     		.2byte	0x35e
 3435 0b2d 3F0B0000 		.4byte	0xb3f
 3436 0b31 D2030000 		.4byte	.LLST25
 3437 0b35 1A       		.uleb128 0x1a
 3438 0b36 1A000000 		.4byte	.LVL137
 3439 0b3a F1090000 		.4byte	0x9f1
 3440 0b3e 00       		.byte	0
 3441 0b3f 02       		.uleb128 0x2
 3442 0b40 01       		.byte	0x1
 3443 0b41 02       		.byte	0x2
 3444 0b42 61030000 		.4byte	.LASF116
 3445 0b46 26       		.uleb128 0x26
 3446 0b47 49030000 		.4byte	.LASF117
 3447 0b4b 01       		.byte	0x1
 3448 0b4c 7103     		.2byte	0x371
 3449 0b4e 00000000 		.4byte	.LFB43
 3450 0b52 1C000000 		.4byte	.LFE43-.LFB43
 3451 0b56 01       		.uleb128 0x1
 3452 0b57 9C       		.byte	0x9c
 3453 0b58 860B0000 		.4byte	0xb86
 3454 0b5c 1F       		.uleb128 0x1f
 3455 0b5d 14090000 		.4byte	.LASF118
 3456 0b61 01       		.byte	0x1
 3457 0b62 7103     		.2byte	0x371
 3458 0b64 25000000 		.4byte	0x25
 3459 0b68 F4030000 		.4byte	.LLST26
 3460 0b6c 23       		.uleb128 0x23
 3461 0b6d 92090000 		.4byte	.LASF94
 3462 0b71 01       		.byte	0x1
 3463 0b72 7503     		.2byte	0x375
 3464 0b74 25000000 		.4byte	0x25
 3465 0b78 17040000 		.4byte	.LLST27
 3466 0b7c 1A       		.uleb128 0x1a
 3467 0b7d 14000000 		.4byte	.LVL142
 3468 0b81 2E080000 		.4byte	0x82e
 3469 0b85 00       		.byte	0
 3470 0b86 28       		.uleb128 0x28
ARM GAS  C:\Users\PRICHA~1\AppData\Local\Temp\cctE1isk.s 			page 90


 3471 0b87 A8090000 		.4byte	.LASF119
 3472 0b8b 01       		.byte	0x1
 3473 0b8c 8703     		.2byte	0x387
 3474 0b8e 00000000 		.4byte	.LFB44
 3475 0b92 E0010000 		.4byte	.LFE44-.LFB44
 3476 0b96 01       		.uleb128 0x1
 3477 0b97 9C       		.byte	0x9c
 3478 0b98 820D0000 		.4byte	0xd82
 3479 0b9c 21       		.uleb128 0x21
 3480 0b9d 61726700 		.ascii	"arg\000"
 3481 0ba1 01       		.byte	0x1
 3482 0ba2 8703     		.2byte	0x387
 3483 0ba4 30010000 		.4byte	0x130
 3484 0ba8 2A040000 		.4byte	.LLST28
 3485 0bac 2B       		.uleb128 0x2b
 3486 0bad 9E050000 		.4byte	.LASF120
 3487 0bb1 01       		.byte	0x1
 3488 0bb2 8A03     		.2byte	0x38a
 3489 0bb4 BD000000 		.4byte	0xbd
 3490 0bb8 05       		.byte	0x5
 3491 0bb9 1E       		.uleb128 0x1e
 3492 0bba 6E6F7700 		.ascii	"now\000"
 3493 0bbe 01       		.byte	0x1
 3494 0bbf 8B03     		.2byte	0x38b
 3495 0bc1 BD000000 		.4byte	0xbd
 3496 0bc5 4B040000 		.4byte	.LLST29
 3497 0bc9 23       		.uleb128 0x23
 3498 0bca 14090000 		.4byte	.LASF118
 3499 0bce 01       		.byte	0x1
 3500 0bcf 8C03     		.2byte	0x38c
 3501 0bd1 25000000 		.4byte	0x25
 3502 0bd5 8B040000 		.4byte	.LLST30
 3503 0bd9 23       		.uleb128 0x23
 3504 0bda 12000000 		.4byte	.LASF121
 3505 0bde 01       		.byte	0x1
 3506 0bdf 8D03     		.2byte	0x38d
 3507 0be1 E1000000 		.4byte	0xe1
 3508 0be5 A9040000 		.4byte	.LLST31
 3509 0be9 23       		.uleb128 0x23
 3510 0bea 210B0000 		.4byte	.LASF122
 3511 0bee 01       		.byte	0x1
 3512 0bef 8D03     		.2byte	0x38d
 3513 0bf1 E1000000 		.4byte	0xe1
 3514 0bf5 BC040000 		.4byte	.LLST32
 3515 0bf9 23       		.uleb128 0x23
 3516 0bfa EE080000 		.4byte	.LASF123
 3517 0bfe 01       		.byte	0x1
 3518 0bff 8E03     		.2byte	0x38e
 3519 0c01 BD000000 		.4byte	0xbd
 3520 0c05 CF040000 		.4byte	.LLST33
 3521 0c09 1B       		.uleb128 0x1b
 3522 0c0a 08000000 		.4byte	.LVL146
 3523 0c0e 1E130000 		.4byte	0x131e
 3524 0c12 1C0C0000 		.4byte	0xc1c
 3525 0c16 1C       		.uleb128 0x1c
 3526 0c17 01       		.uleb128 0x1
 3527 0c18 50       		.byte	0x50
ARM GAS  C:\Users\PRICHA~1\AppData\Local\Temp\cctE1isk.s 			page 91


 3528 0c19 01       		.uleb128 0x1
 3529 0c1a 30       		.byte	0x30
 3530 0c1b 00       		.byte	0
 3531 0c1c 1A       		.uleb128 0x1a
 3532 0c1d 1E000000 		.4byte	.LVL147
 3533 0c21 F1090000 		.4byte	0x9f1
 3534 0c25 1B       		.uleb128 0x1b
 3535 0c26 2A000000 		.4byte	.LVL148
 3536 0c2a 110A0000 		.4byte	0xa11
 3537 0c2e 380C0000 		.4byte	0xc38
 3538 0c32 1C       		.uleb128 0x1c
 3539 0c33 01       		.uleb128 0x1
 3540 0c34 50       		.byte	0x50
 3541 0c35 01       		.uleb128 0x1
 3542 0c36 35       		.byte	0x35
 3543 0c37 00       		.byte	0
 3544 0c38 1B       		.uleb128 0x1b
 3545 0c39 30000000 		.4byte	.LVL149
 3546 0c3d FF0A0000 		.4byte	0xaff
 3547 0c41 4C0C0000 		.4byte	0xc4c
 3548 0c45 1C       		.uleb128 0x1c
 3549 0c46 01       		.uleb128 0x1
 3550 0c47 50       		.byte	0x50
 3551 0c48 02       		.uleb128 0x2
 3552 0c49 74       		.byte	0x74
 3553 0c4a 00       		.sleb128 0
 3554 0c4b 00       		.byte	0
 3555 0c4c 1B       		.uleb128 0x1b
 3556 0c4d 5C000000 		.4byte	.LVL152
 3557 0c51 A1130000 		.4byte	0x13a1
 3558 0c55 5F0C0000 		.4byte	0xc5f
 3559 0c59 1C       		.uleb128 0x1c
 3560 0c5a 01       		.uleb128 0x1
 3561 0c5b 50       		.byte	0x50
 3562 0c5c 01       		.uleb128 0x1
 3563 0c5d 31       		.byte	0x31
 3564 0c5e 00       		.byte	0
 3565 0c5f 1B       		.uleb128 0x1b
 3566 0c60 64000000 		.4byte	.LVL153
 3567 0c64 AC130000 		.4byte	0x13ac
 3568 0c68 740C0000 		.4byte	0xc74
 3569 0c6c 1C       		.uleb128 0x1c
 3570 0c6d 01       		.uleb128 0x1
 3571 0c6e 50       		.byte	0x50
 3572 0c6f 03       		.uleb128 0x3
 3573 0c70 0A       		.byte	0xa
 3574 0c71 0008     		.2byte	0x800
 3575 0c73 00       		.byte	0
 3576 0c74 1A       		.uleb128 0x1a
 3577 0c75 68000000 		.4byte	.LVL154
 3578 0c79 DA120000 		.4byte	0x12da
 3579 0c7d 1A       		.uleb128 0x1a
 3580 0c7e 82000000 		.4byte	.LVL157
 3581 0c82 2E080000 		.4byte	0x82e
 3582 0c86 1B       		.uleb128 0x1b
 3583 0c87 9C000000 		.4byte	.LVL160
 3584 0c8b B7130000 		.4byte	0x13b7
ARM GAS  C:\Users\PRICHA~1\AppData\Local\Temp\cctE1isk.s 			page 92


 3585 0c8f 990C0000 		.4byte	0xc99
 3586 0c93 1C       		.uleb128 0x1c
 3587 0c94 01       		.uleb128 0x1
 3588 0c95 50       		.byte	0x50
 3589 0c96 01       		.uleb128 0x1
 3590 0c97 36       		.byte	0x36
 3591 0c98 00       		.byte	0
 3592 0c99 1B       		.uleb128 0x1b
 3593 0c9a A2000000 		.4byte	.LVL161
 3594 0c9e C2130000 		.4byte	0x13c2
 3595 0ca2 AC0C0000 		.4byte	0xcac
 3596 0ca6 1C       		.uleb128 0x1c
 3597 0ca7 01       		.uleb128 0x1
 3598 0ca8 50       		.byte	0x50
 3599 0ca9 01       		.uleb128 0x1
 3600 0caa 36       		.byte	0x36
 3601 0cab 00       		.byte	0
 3602 0cac 1A       		.uleb128 0x1a
 3603 0cad D0000000 		.4byte	.LVL162
 3604 0cb1 6E080000 		.4byte	0x86e
 3605 0cb5 1B       		.uleb128 0x1b
 3606 0cb6 DA000000 		.4byte	.LVL163
 3607 0cba A3120000 		.4byte	0x12a3
 3608 0cbe C80C0000 		.4byte	0xcc8
 3609 0cc2 1C       		.uleb128 0x1c
 3610 0cc3 01       		.uleb128 0x1
 3611 0cc4 50       		.byte	0x50
 3612 0cc5 01       		.uleb128 0x1
 3613 0cc6 30       		.byte	0x30
 3614 0cc7 00       		.byte	0
 3615 0cc8 1A       		.uleb128 0x1a
 3616 0cc9 EA000000 		.4byte	.LVL165
 3617 0ccd 2E080000 		.4byte	0x82e
 3618 0cd1 1A       		.uleb128 0x1a
 3619 0cd2 F4000000 		.4byte	.LVL166
 3620 0cd6 6E080000 		.4byte	0x86e
 3621 0cda 1A       		.uleb128 0x1a
 3622 0cdb 04010000 		.4byte	.LVL169
 3623 0cdf CD130000 		.4byte	0x13cd
 3624 0ce3 1B       		.uleb128 0x1b
 3625 0ce4 14010000 		.4byte	.LVL172
 3626 0ce8 1E060000 		.4byte	0x61e
 3627 0cec F60C0000 		.4byte	0xcf6
 3628 0cf0 1C       		.uleb128 0x1c
 3629 0cf1 01       		.uleb128 0x1
 3630 0cf2 50       		.byte	0x50
 3631 0cf3 01       		.uleb128 0x1
 3632 0cf4 34       		.byte	0x34
 3633 0cf5 00       		.byte	0
 3634 0cf6 1B       		.uleb128 0x1b
 3635 0cf7 22010000 		.4byte	.LVL173
 3636 0cfb 1E060000 		.4byte	0x61e
 3637 0cff 090D0000 		.4byte	0xd09
 3638 0d03 1C       		.uleb128 0x1c
 3639 0d04 01       		.uleb128 0x1
 3640 0d05 50       		.byte	0x50
 3641 0d06 01       		.uleb128 0x1
ARM GAS  C:\Users\PRICHA~1\AppData\Local\Temp\cctE1isk.s 			page 93


 3642 0d07 32       		.byte	0x32
 3643 0d08 00       		.byte	0
 3644 0d09 1B       		.uleb128 0x1b
 3645 0d0a 38010000 		.4byte	.LVL174
 3646 0d0e FF0A0000 		.4byte	0xaff
 3647 0d12 1C0D0000 		.4byte	0xd1c
 3648 0d16 1C       		.uleb128 0x1c
 3649 0d17 01       		.uleb128 0x1
 3650 0d18 50       		.byte	0x50
 3651 0d19 01       		.uleb128 0x1
 3652 0d1a 31       		.byte	0x31
 3653 0d1b 00       		.byte	0
 3654 0d1c 1B       		.uleb128 0x1b
 3655 0d1d 4C010000 		.4byte	.LVL175
 3656 0d21 FF0A0000 		.4byte	0xaff
 3657 0d25 2F0D0000 		.4byte	0xd2f
 3658 0d29 1C       		.uleb128 0x1c
 3659 0d2a 01       		.uleb128 0x1
 3660 0d2b 50       		.byte	0x50
 3661 0d2c 01       		.uleb128 0x1
 3662 0d2d 30       		.byte	0x30
 3663 0d2e 00       		.byte	0
 3664 0d2f 1B       		.uleb128 0x1b
 3665 0d30 5E010000 		.4byte	.LVL176
 3666 0d34 820A0000 		.4byte	0xa82
 3667 0d38 430D0000 		.4byte	0xd43
 3668 0d3c 1C       		.uleb128 0x1c
 3669 0d3d 01       		.uleb128 0x1
 3670 0d3e 50       		.byte	0x50
 3671 0d3f 02       		.uleb128 0x2
 3672 0d40 74       		.byte	0x74
 3673 0d41 00       		.sleb128 0
 3674 0d42 00       		.byte	0
 3675 0d43 1A       		.uleb128 0x1a
 3676 0d44 6C010000 		.4byte	.LVL177
 3677 0d48 460B0000 		.4byte	0xb46
 3678 0d4c 1B       		.uleb128 0x1b
 3679 0d4d 7A010000 		.4byte	.LVL180
 3680 0d51 A1130000 		.4byte	0x13a1
 3681 0d55 5F0D0000 		.4byte	0xd5f
 3682 0d59 1C       		.uleb128 0x1c
 3683 0d5a 01       		.uleb128 0x1
 3684 0d5b 50       		.byte	0x50
 3685 0d5c 01       		.uleb128 0x1
 3686 0d5d 30       		.byte	0x30
 3687 0d5e 00       		.byte	0
 3688 0d5f 1B       		.uleb128 0x1b
 3689 0d60 80010000 		.4byte	.LVL181
 3690 0d64 5A130000 		.4byte	0x135a
 3691 0d68 720D0000 		.4byte	0xd72
 3692 0d6c 1C       		.uleb128 0x1c
 3693 0d6d 01       		.uleb128 0x1
 3694 0d6e 50       		.byte	0x50
 3695 0d6f 01       		.uleb128 0x1
 3696 0d70 35       		.byte	0x35
 3697 0d71 00       		.byte	0
 3698 0d72 1D       		.uleb128 0x1d
ARM GAS  C:\Users\PRICHA~1\AppData\Local\Temp\cctE1isk.s 			page 94


 3699 0d73 86010000 		.4byte	.LVL182
 3700 0d77 1E130000 		.4byte	0x131e
 3701 0d7b 1C       		.uleb128 0x1c
 3702 0d7c 01       		.uleb128 0x1
 3703 0d7d 50       		.byte	0x50
 3704 0d7e 01       		.uleb128 0x1
 3705 0d7f 30       		.byte	0x30
 3706 0d80 00       		.byte	0
 3707 0d81 00       		.byte	0
 3708 0d82 27       		.uleb128 0x27
 3709 0d83 390A0000 		.4byte	.LASF124
 3710 0d87 01       		.byte	0x1
 3711 0d88 3404     		.2byte	0x434
 3712 0d8a 2C000000 		.4byte	0x2c
 3713 0d8e 00000000 		.4byte	.LFB45
 3714 0d92 40010000 		.4byte	.LFE45-.LFB45
 3715 0d96 01       		.uleb128 0x1
 3716 0d97 9C       		.byte	0x9c
 3717 0d98 D80F0000 		.4byte	0xfd8
 3718 0d9c 1E       		.uleb128 0x1e
 3719 0d9d 7300     		.ascii	"s\000"
 3720 0d9f 01       		.byte	0x1
 3721 0da0 3604     		.2byte	0x436
 3722 0da2 A5000000 		.4byte	0xa5
 3723 0da6 ED040000 		.4byte	.LLST34
 3724 0daa 1A       		.uleb128 0x1a
 3725 0dab 08000000 		.4byte	.LVL183
 3726 0daf D2050000 		.4byte	0x5d2
 3727 0db3 1B       		.uleb128 0x1b
 3728 0db4 0E000000 		.4byte	.LVL184
 3729 0db8 B7130000 		.4byte	0x13b7
 3730 0dbc C60D0000 		.4byte	0xdc6
 3731 0dc0 1C       		.uleb128 0x1c
 3732 0dc1 01       		.uleb128 0x1
 3733 0dc2 50       		.byte	0x50
 3734 0dc3 01       		.uleb128 0x1
 3735 0dc4 31       		.byte	0x31
 3736 0dc5 00       		.byte	0
 3737 0dc6 1B       		.uleb128 0x1b
 3738 0dc7 14000000 		.4byte	.LVL185
 3739 0dcb C2130000 		.4byte	0x13c2
 3740 0dcf D90D0000 		.4byte	0xdd9
 3741 0dd3 1C       		.uleb128 0x1c
 3742 0dd4 01       		.uleb128 0x1
 3743 0dd5 50       		.byte	0x50
 3744 0dd6 01       		.uleb128 0x1
 3745 0dd7 31       		.byte	0x31
 3746 0dd8 00       		.byte	0
 3747 0dd9 1B       		.uleb128 0x1b
 3748 0dda 28000000 		.4byte	.LVL186
 3749 0dde D8130000 		.4byte	0x13d8
 3750 0de2 120E0000 		.4byte	0xe12
 3751 0de6 1C       		.uleb128 0x1c
 3752 0de7 01       		.uleb128 0x1
 3753 0de8 50       		.byte	0x50
 3754 0de9 05       		.uleb128 0x5
 3755 0dea 03       		.byte	0x3
ARM GAS  C:\Users\PRICHA~1\AppData\Local\Temp\cctE1isk.s 			page 95


 3756 0deb 00000000 		.4byte	PID_Task
 3757 0def 1C       		.uleb128 0x1c
 3758 0df0 01       		.uleb128 0x1
 3759 0df1 51       		.byte	0x51
 3760 0df2 05       		.uleb128 0x5
 3761 0df3 03       		.byte	0x3
 3762 0df4 00000000 		.4byte	.LC81
 3763 0df8 1C       		.uleb128 0x1c
 3764 0df9 01       		.uleb128 0x1
 3765 0dfa 52       		.byte	0x52
 3766 0dfb 02       		.uleb128 0x2
 3767 0dfc 08       		.byte	0x8
 3768 0dfd 40       		.byte	0x40
 3769 0dfe 1C       		.uleb128 0x1c
 3770 0dff 01       		.uleb128 0x1
 3771 0e00 53       		.byte	0x53
 3772 0e01 02       		.uleb128 0x2
 3773 0e02 74       		.byte	0x74
 3774 0e03 00       		.sleb128 0
 3775 0e04 1C       		.uleb128 0x1c
 3776 0e05 02       		.uleb128 0x2
 3777 0e06 7D       		.byte	0x7d
 3778 0e07 00       		.sleb128 0
 3779 0e08 01       		.uleb128 0x1
 3780 0e09 33       		.byte	0x33
 3781 0e0a 1C       		.uleb128 0x1c
 3782 0e0b 02       		.uleb128 0x2
 3783 0e0c 7D       		.byte	0x7d
 3784 0e0d 04       		.sleb128 4
 3785 0e0e 02       		.uleb128 0x2
 3786 0e0f 74       		.byte	0x74
 3787 0e10 00       		.sleb128 0
 3788 0e11 00       		.byte	0
 3789 0e12 1B       		.uleb128 0x1b
 3790 0e13 3A000000 		.4byte	.LVL187
 3791 0e17 D8130000 		.4byte	0x13d8
 3792 0e1b 4B0E0000 		.4byte	0xe4b
 3793 0e1f 1C       		.uleb128 0x1c
 3794 0e20 01       		.uleb128 0x1
 3795 0e21 50       		.byte	0x50
 3796 0e22 05       		.uleb128 0x5
 3797 0e23 03       		.byte	0x3
 3798 0e24 00000000 		.4byte	Comm_Task
 3799 0e28 1C       		.uleb128 0x1c
 3800 0e29 01       		.uleb128 0x1
 3801 0e2a 51       		.byte	0x51
 3802 0e2b 05       		.uleb128 0x5
 3803 0e2c 03       		.byte	0x3
 3804 0e2d 04000000 		.4byte	.LC84
 3805 0e31 1C       		.uleb128 0x1c
 3806 0e32 01       		.uleb128 0x1
 3807 0e33 52       		.byte	0x52
 3808 0e34 02       		.uleb128 0x2
 3809 0e35 08       		.byte	0x8
 3810 0e36 64       		.byte	0x64
 3811 0e37 1C       		.uleb128 0x1c
 3812 0e38 01       		.uleb128 0x1
ARM GAS  C:\Users\PRICHA~1\AppData\Local\Temp\cctE1isk.s 			page 96


 3813 0e39 53       		.byte	0x53
 3814 0e3a 02       		.uleb128 0x2
 3815 0e3b 74       		.byte	0x74
 3816 0e3c 00       		.sleb128 0
 3817 0e3d 1C       		.uleb128 0x1c
 3818 0e3e 02       		.uleb128 0x2
 3819 0e3f 7D       		.byte	0x7d
 3820 0e40 00       		.sleb128 0
 3821 0e41 01       		.uleb128 0x1
 3822 0e42 32       		.byte	0x32
 3823 0e43 1C       		.uleb128 0x1c
 3824 0e44 02       		.uleb128 0x2
 3825 0e45 7D       		.byte	0x7d
 3826 0e46 04       		.sleb128 4
 3827 0e47 02       		.uleb128 0x2
 3828 0e48 74       		.byte	0x74
 3829 0e49 00       		.sleb128 0
 3830 0e4a 00       		.byte	0
 3831 0e4b 1B       		.uleb128 0x1b
 3832 0e4c 4C000000 		.4byte	.LVL188
 3833 0e50 D8130000 		.4byte	0x13d8
 3834 0e54 840E0000 		.4byte	0xe84
 3835 0e58 1C       		.uleb128 0x1c
 3836 0e59 01       		.uleb128 0x1
 3837 0e5a 50       		.byte	0x50
 3838 0e5b 05       		.uleb128 0x5
 3839 0e5c 03       		.byte	0x3
 3840 0e5d 00000000 		.4byte	Current_Read_Task
 3841 0e61 1C       		.uleb128 0x1c
 3842 0e62 01       		.uleb128 0x1
 3843 0e63 51       		.byte	0x51
 3844 0e64 05       		.uleb128 0x5
 3845 0e65 03       		.byte	0x3
 3846 0e66 14000000 		.4byte	.LC87
 3847 0e6a 1C       		.uleb128 0x1c
 3848 0e6b 01       		.uleb128 0x1
 3849 0e6c 52       		.byte	0x52
 3850 0e6d 02       		.uleb128 0x2
 3851 0e6e 08       		.byte	0x8
 3852 0e6f 40       		.byte	0x40
 3853 0e70 1C       		.uleb128 0x1c
 3854 0e71 01       		.uleb128 0x1
 3855 0e72 53       		.byte	0x53
 3856 0e73 02       		.uleb128 0x2
 3857 0e74 74       		.byte	0x74
 3858 0e75 00       		.sleb128 0
 3859 0e76 1C       		.uleb128 0x1c
 3860 0e77 02       		.uleb128 0x2
 3861 0e78 7D       		.byte	0x7d
 3862 0e79 00       		.sleb128 0
 3863 0e7a 01       		.uleb128 0x1
 3864 0e7b 31       		.byte	0x31
 3865 0e7c 1C       		.uleb128 0x1c
 3866 0e7d 02       		.uleb128 0x2
 3867 0e7e 7D       		.byte	0x7d
 3868 0e7f 04       		.sleb128 4
 3869 0e80 02       		.uleb128 0x2
ARM GAS  C:\Users\PRICHA~1\AppData\Local\Temp\cctE1isk.s 			page 97


 3870 0e81 74       		.byte	0x74
 3871 0e82 00       		.sleb128 0
 3872 0e83 00       		.byte	0
 3873 0e84 1B       		.uleb128 0x1b
 3874 0e85 52000000 		.4byte	.LVL189
 3875 0e89 E4130000 		.4byte	0x13e4
 3876 0e8d 970E0000 		.4byte	0xe97
 3877 0e91 1C       		.uleb128 0x1c
 3878 0e92 01       		.uleb128 0x1
 3879 0e93 50       		.byte	0x50
 3880 0e94 01       		.uleb128 0x1
 3881 0e95 31       		.byte	0x31
 3882 0e96 00       		.byte	0
 3883 0e97 1B       		.uleb128 0x1b
 3884 0e98 68000000 		.4byte	.LVL193
 3885 0e9c F0130000 		.4byte	0x13f0
 3886 0ea0 AB0E0000 		.4byte	0xeab
 3887 0ea4 1C       		.uleb128 0x1c
 3888 0ea5 01       		.uleb128 0x1
 3889 0ea6 50       		.byte	0x50
 3890 0ea7 02       		.uleb128 0x2
 3891 0ea8 74       		.byte	0x74
 3892 0ea9 00       		.sleb128 0
 3893 0eaa 00       		.byte	0
 3894 0eab 1B       		.uleb128 0x1b
 3895 0eac 70000000 		.4byte	.LVL194
 3896 0eb0 FB130000 		.4byte	0x13fb
 3897 0eb4 C00E0000 		.4byte	0xec0
 3898 0eb8 1C       		.uleb128 0x1c
 3899 0eb9 01       		.uleb128 0x1
 3900 0eba 50       		.byte	0x50
 3901 0ebb 03       		.uleb128 0x3
 3902 0ebc 0A       		.byte	0xa
 3903 0ebd E803     		.2byte	0x3e8
 3904 0ebf 00       		.byte	0
 3905 0ec0 1B       		.uleb128 0x1b
 3906 0ec1 78000000 		.4byte	.LVL196
 3907 0ec5 06140000 		.4byte	0x1406
 3908 0ec9 D70E0000 		.4byte	0xed7
 3909 0ecd 1C       		.uleb128 0x1c
 3910 0ece 01       		.uleb128 0x1
 3911 0ecf 50       		.byte	0x50
 3912 0ed0 05       		.uleb128 0x5
 3913 0ed1 03       		.byte	0x3
 3914 0ed2 00000000 		.4byte	HomeIsrHandler
 3915 0ed6 00       		.byte	0
 3916 0ed7 1B       		.uleb128 0x1b
 3917 0ed8 7E000000 		.4byte	.LVL197
 3918 0edc 11140000 		.4byte	0x1411
 3919 0ee0 EE0E0000 		.4byte	0xeee
 3920 0ee4 1C       		.uleb128 0x1c
 3921 0ee5 01       		.uleb128 0x1
 3922 0ee6 50       		.byte	0x50
 3923 0ee7 05       		.uleb128 0x5
 3924 0ee8 03       		.byte	0x3
 3925 0ee9 00000000 		.4byte	RSTIsrHandler
 3926 0eed 00       		.byte	0
ARM GAS  C:\Users\PRICHA~1\AppData\Local\Temp\cctE1isk.s 			page 98


 3927 0eee 1B       		.uleb128 0x1b
 3928 0eef 84000000 		.4byte	.LVL198
 3929 0ef3 1C140000 		.4byte	0x141c
 3930 0ef7 050F0000 		.4byte	0xf05
 3931 0efb 1C       		.uleb128 0x1c
 3932 0efc 01       		.uleb128 0x1
 3933 0efd 50       		.byte	0x50
 3934 0efe 05       		.uleb128 0x5
 3935 0eff 03       		.byte	0x3
 3936 0f00 00000000 		.4byte	SPI_SS_IsrHandler
 3937 0f04 00       		.byte	0
 3938 0f05 1B       		.uleb128 0x1b
 3939 0f06 8A000000 		.4byte	.LVL199
 3940 0f0a 27140000 		.4byte	0x1427
 3941 0f0e 180F0000 		.4byte	0xf18
 3942 0f12 1C       		.uleb128 0x1c
 3943 0f13 01       		.uleb128 0x1
 3944 0f14 50       		.byte	0x50
 3945 0f15 01       		.uleb128 0x1
 3946 0f16 33       		.byte	0x33
 3947 0f17 00       		.byte	0
 3948 0f18 1B       		.uleb128 0x1b
 3949 0f19 90000000 		.4byte	.LVL200
 3950 0f1d 32140000 		.4byte	0x1432
 3951 0f21 2B0F0000 		.4byte	0xf2b
 3952 0f25 1C       		.uleb128 0x1c
 3953 0f26 01       		.uleb128 0x1
 3954 0f27 50       		.byte	0x50
 3955 0f28 01       		.uleb128 0x1
 3956 0f29 32       		.byte	0x32
 3957 0f2a 00       		.byte	0
 3958 0f2b 1B       		.uleb128 0x1b
 3959 0f2c 96000000 		.4byte	.LVL201
 3960 0f30 3D140000 		.4byte	0x143d
 3961 0f34 3E0F0000 		.4byte	0xf3e
 3962 0f38 1C       		.uleb128 0x1c
 3963 0f39 01       		.uleb128 0x1
 3964 0f3a 50       		.byte	0x50
 3965 0f3b 01       		.uleb128 0x1
 3966 0f3c 33       		.byte	0x33
 3967 0f3d 00       		.byte	0
 3968 0f3e 1A       		.uleb128 0x1a
 3969 0f3f 9C000000 		.4byte	.LVL202
 3970 0f43 48140000 		.4byte	0x1448
 3971 0f47 1B       		.uleb128 0x1b
 3972 0f48 A2000000 		.4byte	.LVL203
 3973 0f4c FB130000 		.4byte	0x13fb
 3974 0f50 5B0F0000 		.4byte	0xf5b
 3975 0f54 1C       		.uleb128 0x1c
 3976 0f55 01       		.uleb128 0x1
 3977 0f56 50       		.byte	0x50
 3978 0f57 02       		.uleb128 0x2
 3979 0f58 08       		.byte	0x8
 3980 0f59 64       		.byte	0x64
 3981 0f5a 00       		.byte	0
 3982 0f5b 1A       		.uleb128 0x1a
 3983 0f5c A6000000 		.4byte	.LVL204
ARM GAS  C:\Users\PRICHA~1\AppData\Local\Temp\cctE1isk.s 			page 99


 3984 0f60 53140000 		.4byte	0x1453
 3985 0f64 1A       		.uleb128 0x1a
 3986 0f65 AA000000 		.4byte	.LVL205
 3987 0f69 5E140000 		.4byte	0x145e
 3988 0f6d 1B       		.uleb128 0x1b
 3989 0f6e B2000000 		.4byte	.LVL206
 3990 0f72 6A140000 		.4byte	0x146a
 3991 0f76 820F0000 		.4byte	0xf82
 3992 0f7a 1C       		.uleb128 0x1c
 3993 0f7b 01       		.uleb128 0x1
 3994 0f7c 50       		.byte	0x50
 3995 0f7d 03       		.uleb128 0x3
 3996 0f7e 0A       		.byte	0xa
 3997 0f7f 4006     		.2byte	0x640
 3998 0f81 00       		.byte	0
 3999 0f82 1A       		.uleb128 0x1a
 4000 0f83 B8000000 		.4byte	.LVL207
 4001 0f87 2E080000 		.4byte	0x82e
 4002 0f8b 1A       		.uleb128 0x1a
 4003 0f8c C2000000 		.4byte	.LVL208
 4004 0f90 76140000 		.4byte	0x1476
 4005 0f94 1B       		.uleb128 0x1b
 4006 0f95 CC000000 		.4byte	.LVL209
 4007 0f99 98120000 		.4byte	0x1298
 4008 0f9d A80F0000 		.4byte	0xfa8
 4009 0fa1 1C       		.uleb128 0x1c
 4010 0fa2 01       		.uleb128 0x1
 4011 0fa3 50       		.byte	0x50
 4012 0fa4 02       		.uleb128 0x2
 4013 0fa5 75       		.byte	0x75
 4014 0fa6 00       		.sleb128 0
 4015 0fa7 00       		.byte	0
 4016 0fa8 1A       		.uleb128 0x1a
 4017 0fa9 D4000000 		.4byte	.LVL210
 4018 0fad 81140000 		.4byte	0x1481
 4019 0fb1 1B       		.uleb128 0x1b
 4020 0fb2 DA000000 		.4byte	.LVL211
 4021 0fb6 A3120000 		.4byte	0x12a3
 4022 0fba C50F0000 		.4byte	0xfc5
 4023 0fbe 1C       		.uleb128 0x1c
 4024 0fbf 01       		.uleb128 0x1
 4025 0fc0 50       		.byte	0x50
 4026 0fc1 02       		.uleb128 0x2
 4027 0fc2 74       		.byte	0x74
 4028 0fc3 00       		.sleb128 0
 4029 0fc4 00       		.byte	0
 4030 0fc5 1A       		.uleb128 0x1a
 4031 0fc6 DE000000 		.4byte	.LVL212
 4032 0fca DA120000 		.4byte	0x12da
 4033 0fce 1A       		.uleb128 0x1a
 4034 0fcf F4000000 		.4byte	.LVL213
 4035 0fd3 8C140000 		.4byte	0x148c
 4036 0fd7 00       		.byte	0
 4037 0fd8 2C       		.uleb128 0x2c
 4038 0fd9 76030000 		.4byte	.LASF125
 4039 0fdd 01       		.byte	0x1
 4040 0fde 52       		.byte	0x52
ARM GAS  C:\Users\PRICHA~1\AppData\Local\Temp\cctE1isk.s 			page 100


 4041 0fdf 3F0B0000 		.4byte	0xb3f
 4042 0fe3 05       		.uleb128 0x5
 4043 0fe4 03       		.byte	0x3
 4044 0fe5 00000000 		.4byte	inAuto
 4045 0fe9 2D       		.uleb128 0x2d
 4046 0fea 4A6F6700 		.ascii	"Jog\000"
 4047 0fee 01       		.byte	0x1
 4048 0fef 54       		.byte	0x54
 4049 0ff0 FA0F0000 		.4byte	0xffa
 4050 0ff4 05       		.uleb128 0x5
 4051 0ff5 03       		.byte	0x3
 4052 0ff6 00000000 		.4byte	Jog
 4053 0ffa 06       		.uleb128 0x6
 4054 0ffb C9000000 		.4byte	0xc9
 4055 0fff 2C       		.uleb128 0x2c
 4056 1000 48010000 		.4byte	.LASF126
 4057 1004 01       		.byte	0x1
 4058 1005 54       		.byte	0x54
 4059 1006 FA0F0000 		.4byte	0xffa
 4060 100a 05       		.uleb128 0x5
 4061 100b 03       		.byte	0x3
 4062 100c 00000000 		.4byte	LastJog
 4063 1010 2C       		.uleb128 0x2c
 4064 1011 45070000 		.4byte	.LASF127
 4065 1015 01       		.byte	0x1
 4066 1016 55       		.byte	0x55
 4067 1017 3F0B0000 		.4byte	0xb3f
 4068 101b 05       		.uleb128 0x5
 4069 101c 03       		.byte	0x3
 4070 101d 00000000 		.4byte	PID_Enabled
 4071 1021 2C       		.uleb128 0x2c
 4072 1022 35070000 		.4byte	.LASF128
 4073 1026 01       		.byte	0x1
 4074 1027 55       		.byte	0x55
 4075 1028 3F0B0000 		.4byte	0xb3f
 4076 102c 05       		.uleb128 0x5
 4077 102d 03       		.byte	0x3
 4078 102e 00000000 		.4byte	PID_Was_Enabled
 4079 1032 2C       		.uleb128 0x2c
 4080 1033 27080000 		.4byte	.LASF129
 4081 1037 01       		.byte	0x1
 4082 1038 56       		.byte	0x56
 4083 1039 BD000000 		.4byte	0xbd
 4084 103d 05       		.uleb128 0x5
 4085 103e 03       		.byte	0x3
 4086 103f 00000000 		.4byte	PID_Setpoint
 4087 1043 2C       		.uleb128 0x2c
 4088 1044 26020000 		.4byte	.LASF130
 4089 1048 01       		.byte	0x1
 4090 1049 57       		.byte	0x57
 4091 104a BD000000 		.4byte	0xbd
 4092 104e 05       		.uleb128 0x5
 4093 104f 03       		.byte	0x3
 4094 1050 00000000 		.4byte	lastTime
 4095 1054 2C       		.uleb128 0x2c
 4096 1055 F2060000 		.4byte	.LASF131
 4097 1059 01       		.byte	0x1
ARM GAS  C:\Users\PRICHA~1\AppData\Local\Temp\cctE1isk.s 			page 101


 4098 105a 58       		.byte	0x58
 4099 105b 25000000 		.4byte	0x25
 4100 105f 05       		.uleb128 0x5
 4101 1060 03       		.byte	0x3
 4102 1061 00000000 		.4byte	Output
 4103 1065 2C       		.uleb128 0x2c
 4104 1066 53020000 		.4byte	.LASF132
 4105 106a 01       		.byte	0x1
 4106 106b 59       		.byte	0x59
 4107 106c 25000000 		.4byte	0x25
 4108 1070 05       		.uleb128 0x5
 4109 1071 03       		.byte	0x3
 4110 1072 00000000 		.4byte	ITerm
 4111 1076 2C       		.uleb128 0x2c
 4112 1077 42040000 		.4byte	.LASF133
 4113 107b 01       		.byte	0x1
 4114 107c 5A       		.byte	0x5a
 4115 107d 87100000 		.4byte	0x1087
 4116 1081 05       		.uleb128 0x5
 4117 1082 03       		.byte	0x3
 4118 1083 00000000 		.4byte	Position
 4119 1087 06       		.uleb128 0x6
 4120 1088 E1000000 		.4byte	0xe1
 4121 108c 2C       		.uleb128 0x2c
 4122 108d 17060000 		.4byte	.LASF134
 4123 1091 01       		.byte	0x1
 4124 1092 5A       		.byte	0x5a
 4125 1093 87100000 		.4byte	0x1087
 4126 1097 05       		.uleb128 0x5
 4127 1098 03       		.byte	0x3
 4128 1099 00000000 		.4byte	LastPosition
 4129 109d 2C       		.uleb128 0x2c
 4130 109e CE090000 		.4byte	.LASF135
 4131 10a2 01       		.byte	0x1
 4132 10a3 5B       		.byte	0x5b
 4133 10a4 25000000 		.4byte	0x25
 4134 10a8 05       		.uleb128 0x5
 4135 10a9 03       		.byte	0x3
 4136 10aa 00000000 		.4byte	refKp
 4137 10ae 2C       		.uleb128 0x2c
 4138 10af A2090000 		.4byte	.LASF136
 4139 10b3 01       		.byte	0x1
 4140 10b4 5B       		.byte	0x5b
 4141 10b5 25000000 		.4byte	0x25
 4142 10b9 05       		.uleb128 0x5
 4143 10ba 03       		.byte	0x3
 4144 10bb 00000000 		.4byte	refKi
 4145 10bf 2C       		.uleb128 0x2c
 4146 10c0 9C090000 		.4byte	.LASF137
 4147 10c4 01       		.byte	0x1
 4148 10c5 5B       		.byte	0x5b
 4149 10c6 25000000 		.4byte	0x25
 4150 10ca 05       		.uleb128 0x5
 4151 10cb 03       		.byte	0x3
 4152 10cc 00000000 		.4byte	refKd
 4153 10d0 2D       		.uleb128 0x2d
 4154 10d1 6B7000   		.ascii	"kp\000"
ARM GAS  C:\Users\PRICHA~1\AppData\Local\Temp\cctE1isk.s 			page 102


 4155 10d4 01       		.byte	0x1
 4156 10d5 5C       		.byte	0x5c
 4157 10d6 25000000 		.4byte	0x25
 4158 10da 05       		.uleb128 0x5
 4159 10db 03       		.byte	0x3
 4160 10dc 00000000 		.4byte	kp
 4161 10e0 2D       		.uleb128 0x2d
 4162 10e1 6B6900   		.ascii	"ki\000"
 4163 10e4 01       		.byte	0x1
 4164 10e5 5C       		.byte	0x5c
 4165 10e6 25000000 		.4byte	0x25
 4166 10ea 05       		.uleb128 0x5
 4167 10eb 03       		.byte	0x3
 4168 10ec 00000000 		.4byte	ki
 4169 10f0 2D       		.uleb128 0x2d
 4170 10f1 6B6400   		.ascii	"kd\000"
 4171 10f4 01       		.byte	0x1
 4172 10f5 5C       		.byte	0x5c
 4173 10f6 25000000 		.4byte	0x25
 4174 10fa 05       		.uleb128 0x5
 4175 10fb 03       		.byte	0x3
 4176 10fc 00000000 		.4byte	kd
 4177 1100 2C       		.uleb128 0x2c
 4178 1101 09060000 		.4byte	.LASF138
 4179 1105 01       		.byte	0x1
 4180 1106 5D       		.byte	0x5d
 4181 1107 BD000000 		.4byte	0xbd
 4182 110b 05       		.uleb128 0x5
 4183 110c 03       		.byte	0x3
 4184 110d 00000000 		.4byte	refSampleTime
 4185 1111 2C       		.uleb128 0x2c
 4186 1112 3C030000 		.4byte	.LASF139
 4187 1116 01       		.byte	0x1
 4188 1117 5E       		.byte	0x5e
 4189 1118 25000000 		.4byte	0x25
 4190 111c 05       		.uleb128 0x5
 4191 111d 03       		.byte	0x3
 4192 111e 00000000 		.4byte	outMax_Total
 4193 1122 2C       		.uleb128 0x2c
 4194 1123 FF070000 		.4byte	.LASF140
 4195 1127 01       		.byte	0x1
 4196 1128 5E       		.byte	0x5e
 4197 1129 25000000 		.4byte	0x25
 4198 112d 05       		.uleb128 0x5
 4199 112e 03       		.byte	0x3
 4200 112f 00000000 		.4byte	outMax_ITerm
 4201 1133 2C       		.uleb128 0x2c
 4202 1134 33000000 		.4byte	.LASF141
 4203 1138 01       		.byte	0x1
 4204 1139 5F       		.byte	0x5f
 4205 113a 25000000 		.4byte	0x25
 4206 113e 05       		.uleb128 0x5
 4207 113f 03       		.byte	0x3
 4208 1140 00000000 		.4byte	pwmLimit
 4209 1144 2C       		.uleb128 0x2c
 4210 1145 20080000 		.4byte	.LASF142
 4211 1149 01       		.byte	0x1
ARM GAS  C:\Users\PRICHA~1\AppData\Local\Temp\cctE1isk.s 			page 103


 4212 114a 5F       		.byte	0x5f
 4213 114b 25000000 		.4byte	0x25
 4214 114f 05       		.uleb128 0x5
 4215 1150 03       		.byte	0x3
 4216 1151 00000000 		.4byte	pwmMax
 4217 1155 2C       		.uleb128 0x2c
 4218 1156 2F020000 		.4byte	.LASF143
 4219 115a 01       		.byte	0x1
 4220 115b 5F       		.byte	0x5f
 4221 115c 25000000 		.4byte	0x25
 4222 1160 05       		.uleb128 0x5
 4223 1161 03       		.byte	0x3
 4224 1162 00000000 		.4byte	pwmMin
 4225 1166 2C       		.uleb128 0x2c
 4226 1167 96020000 		.4byte	.LASF144
 4227 116b 01       		.byte	0x1
 4228 116c CB       		.byte	0xcb
 4229 116d 77110000 		.4byte	0x1177
 4230 1171 05       		.uleb128 0x5
 4231 1172 03       		.byte	0x3
 4232 1173 00000000 		.4byte	ConfigState
 4233 1177 06       		.uleb128 0x6
 4234 1178 C2010000 		.4byte	0x1c2
 4235 117c 2C       		.uleb128 0x2c
 4236 117d 5D090000 		.4byte	.LASF145
 4237 1181 01       		.byte	0x1
 4238 1182 CC       		.byte	0xcc
 4239 1183 FB000000 		.4byte	0xfb
 4240 1187 05       		.uleb128 0x5
 4241 1188 03       		.byte	0x3
 4242 1189 00000000 		.4byte	FaultState
 4243 118d 2C       		.uleb128 0x2c
 4244 118e 83090000 		.4byte	.LASF146
 4245 1192 01       		.byte	0x1
 4246 1193 CD       		.byte	0xcd
 4247 1194 FB000000 		.4byte	0xfb
 4248 1198 05       		.uleb128 0x5
 4249 1199 03       		.byte	0x3
 4250 119a 00000000 		.4byte	ConfigSequence
 4251 119e 2C       		.uleb128 0x2c
 4252 119f 93080000 		.4byte	.LASF147
 4253 11a3 01       		.byte	0x1
 4254 11a4 CE       		.byte	0xce
 4255 11a5 00010000 		.4byte	0x100
 4256 11a9 05       		.uleb128 0x5
 4257 11aa 03       		.byte	0x3
 4258 11ab 00000000 		.4byte	ChecksumErrors
 4259 11af 2C       		.uleb128 0x2c
 4260 11b0 8C000000 		.4byte	.LASF148
 4261 11b4 01       		.byte	0x1
 4262 11b5 CF       		.byte	0xcf
 4263 11b6 04080000 		.4byte	0x804
 4264 11ba 05       		.uleb128 0x5
 4265 11bb 03       		.byte	0x3
 4266 11bc 00000000 		.4byte	Current
 4267 11c0 2D       		.uleb128 0x2d
 4268 11c1 50574D00 		.ascii	"PWM\000"
ARM GAS  C:\Users\PRICHA~1\AppData\Local\Temp\cctE1isk.s 			page 104


 4269 11c5 01       		.byte	0x1
 4270 11c6 D0       		.byte	0xd0
 4271 11c7 D1110000 		.4byte	0x11d1
 4272 11cb 05       		.uleb128 0x5
 4273 11cc 03       		.byte	0x3
 4274 11cd 00000000 		.4byte	PWM
 4275 11d1 06       		.uleb128 0x6
 4276 11d2 25000000 		.4byte	0x25
 4277 11d6 16       		.uleb128 0x16
 4278 11d7 A5000000 		.4byte	0xa5
 4279 11db E6110000 		.4byte	0x11e6
 4280 11df 17       		.uleb128 0x17
 4281 11e0 29010000 		.4byte	0x129
 4282 11e4 13       		.byte	0x13
 4283 11e5 00       		.byte	0
 4284 11e6 2C       		.uleb128 0x2c
 4285 11e7 F9050000 		.4byte	.LASF149
 4286 11eb 01       		.byte	0x1
 4287 11ec D1       		.byte	0xd1
 4288 11ed D6110000 		.4byte	0x11d6
 4289 11f1 05       		.uleb128 0x5
 4290 11f2 03       		.byte	0x3
 4291 11f3 00000000 		.4byte	CurrentI2Cinbuf
 4292 11f7 2C       		.uleb128 0x2c
 4293 11f8 0C080000 		.4byte	.LASF150
 4294 11fc 01       		.byte	0x1
 4295 11fd D4       		.byte	0xd4
 4296 11fe 98010000 		.4byte	0x198
 4297 1202 05       		.uleb128 0x5
 4298 1203 03       		.byte	0x3
 4299 1204 00000000 		.4byte	uxHighWaterMark_PID
 4300 1208 2C       		.uleb128 0x2c
 4301 1209 6B060000 		.4byte	.LASF151
 4302 120d 01       		.byte	0x1
 4303 120e D5       		.byte	0xd5
 4304 120f 98010000 		.4byte	0x198
 4305 1213 05       		.uleb128 0x5
 4306 1214 03       		.byte	0x3
 4307 1215 00000000 		.4byte	uxHighWaterMark_Current
 4308 1219 2C       		.uleb128 0x2c
 4309 121a 780A0000 		.4byte	.LASF152
 4310 121e 01       		.byte	0x1
 4311 121f D6       		.byte	0xd6
 4312 1220 98010000 		.4byte	0x198
 4313 1224 05       		.uleb128 0x5
 4314 1225 03       		.byte	0x3
 4315 1226 00000000 		.4byte	uxHighWaterMark_Comm
 4316 122a 2C       		.uleb128 0x2c
 4317 122b 46000000 		.4byte	.LASF153
 4318 122f 01       		.byte	0x1
 4319 1230 D9       		.byte	0xd9
 4320 1231 8D010000 		.4byte	0x18d
 4321 1235 05       		.uleb128 0x5
 4322 1236 03       		.byte	0x3
 4323 1237 00000000 		.4byte	Lock
 4324 123b 2C       		.uleb128 0x2c
 4325 123c 45060000 		.4byte	.LASF154
ARM GAS  C:\Users\PRICHA~1\AppData\Local\Temp\cctE1isk.s 			page 105


 4326 1240 01       		.byte	0x1
 4327 1241 EB       		.byte	0xeb
 4328 1242 BD000000 		.4byte	0xbd
 4329 1246 05       		.uleb128 0x5
 4330 1247 03       		.byte	0x3
 4331 1248 00000000 		.4byte	LastMessageTimeTick
 4332 124c 2E       		.uleb128 0x2e
 4333 124d 22000000 		.4byte	.LASF155
 4334 1251 01       		.byte	0x1
 4335 1252 1F01     		.2byte	0x11f
 4336 1254 82030000 		.4byte	0x382
 4337 1258 05       		.uleb128 0x5
 4338 1259 03       		.byte	0x3
 4339 125a 00000000 		.4byte	rxMessage
 4340 125e 2E       		.uleb128 0x2e
 4341 125f 24060000 		.4byte	.LASF156
 4342 1263 01       		.byte	0x1
 4343 1264 3601     		.2byte	0x136
 4344 1266 8B040000 		.4byte	0x48b
 4345 126a 05       		.uleb128 0x5
 4346 126b 03       		.byte	0x3
 4347 126c 00000000 		.4byte	txMessage
 4348 1270 2E       		.uleb128 0x2e
 4349 1271 AD070000 		.4byte	.LASF157
 4350 1275 01       		.byte	0x1
 4351 1276 3E01     		.2byte	0x13e
 4352 1278 C7040000 		.4byte	0x4c7
 4353 127c 05       		.uleb128 0x5
 4354 127d 03       		.byte	0x3
 4355 127e 00000000 		.4byte	txMessageState
 4356 1282 2F       		.uleb128 0x2f
 4357 1283 F9040000 		.4byte	.LASF158
 4358 1287 F9040000 		.4byte	.LASF158
 4359 128b 08       		.byte	0x8
 4360 128c 28       		.byte	0x28
 4361 128d 2F       		.uleb128 0x2f
 4362 128e B1090000 		.4byte	.LASF159
 4363 1292 B1090000 		.4byte	.LASF159
 4364 1296 09       		.byte	0x9
 4365 1297 39       		.byte	0x39
 4366 1298 2F       		.uleb128 0x2f
 4367 1299 2E060000 		.4byte	.LASF160
 4368 129d 2E060000 		.4byte	.LASF160
 4369 12a1 0A       		.byte	0xa
 4370 12a2 5A       		.byte	0x5a
 4371 12a3 2F       		.uleb128 0x2f
 4372 12a4 36020000 		.4byte	.LASF161
 4373 12a8 36020000 		.4byte	.LASF161
 4374 12ac 0B       		.byte	0xb
 4375 12ad 5A       		.byte	0x5a
 4376 12ae 2F       		.uleb128 0x2f
 4377 12af AE0A0000 		.4byte	.LASF162
 4378 12b3 AE0A0000 		.4byte	.LASF162
 4379 12b7 0C       		.byte	0xc
 4380 12b8 28       		.byte	0x28
 4381 12b9 2F       		.uleb128 0x2f
 4382 12ba C4000000 		.4byte	.LASF163
ARM GAS  C:\Users\PRICHA~1\AppData\Local\Temp\cctE1isk.s 			page 106


 4383 12be C4000000 		.4byte	.LASF163
 4384 12c2 0D       		.byte	0xd
 4385 12c3 39       		.byte	0x39
 4386 12c4 2F       		.uleb128 0x2f
 4387 12c5 AD030000 		.4byte	.LASF164
 4388 12c9 AD030000 		.4byte	.LASF164
 4389 12cd 0E       		.byte	0xe
 4390 12ce 39       		.byte	0x39
 4391 12cf 2F       		.uleb128 0x2f
 4392 12d0 EE010000 		.4byte	.LASF165
 4393 12d4 EE010000 		.4byte	.LASF165
 4394 12d8 0E       		.byte	0xe
 4395 12d9 32       		.byte	0x32
 4396 12da 30       		.uleb128 0x30
 4397 12db 55050000 		.4byte	.LASF166
 4398 12df 55050000 		.4byte	.LASF166
 4399 12e3 0F       		.byte	0xf
 4400 12e4 3E05     		.2byte	0x53e
 4401 12e6 31       		.uleb128 0x31
 4402 12e7 BE050000 		.4byte	.LASF208
 4403 12eb BE050000 		.4byte	.LASF208
 4404 12ef 30       		.uleb128 0x30
 4405 12f0 47080000 		.4byte	.LASF167
 4406 12f4 47080000 		.4byte	.LASF167
 4407 12f8 10       		.byte	0x10
 4408 12f9 3D03     		.2byte	0x33d
 4409 12fb 30       		.uleb128 0x30
 4410 12fc 78040000 		.4byte	.LASF168
 4411 1300 78040000 		.4byte	.LASF168
 4412 1304 10       		.byte	0x10
 4413 1305 3F03     		.2byte	0x33f
 4414 1307 30       		.uleb128 0x30
 4415 1308 58010000 		.4byte	.LASF169
 4416 130c 58010000 		.4byte	.LASF169
 4417 1310 10       		.byte	0x10
 4418 1311 4703     		.2byte	0x347
 4419 1313 2F       		.uleb128 0x2f
 4420 1314 75070000 		.4byte	.LASF170
 4421 1318 75070000 		.4byte	.LASF170
 4422 131c 11       		.byte	0x11
 4423 131d BA       		.byte	0xba
 4424 131e 30       		.uleb128 0x30
 4425 131f 68020000 		.4byte	.LASF171
 4426 1323 68020000 		.4byte	.LASF171
 4427 1327 0F       		.byte	0xf
 4428 1328 8E05     		.2byte	0x58e
 4429 132a 30       		.uleb128 0x30
 4430 132b 5F080000 		.4byte	.LASF172
 4431 132f 5F080000 		.4byte	.LASF172
 4432 1333 12       		.byte	0x12
 4433 1334 1B01     		.2byte	0x11b
 4434 1336 30       		.uleb128 0x30
 4435 1337 68000000 		.4byte	.LASF173
 4436 133b 68000000 		.4byte	.LASF173
 4437 133f 12       		.byte	0x12
 4438 1340 1E01     		.2byte	0x11e
 4439 1342 30       		.uleb128 0x30
ARM GAS  C:\Users\PRICHA~1\AppData\Local\Temp\cctE1isk.s 			page 107


 4440 1343 16050000 		.4byte	.LASF174
 4441 1347 16050000 		.4byte	.LASF174
 4442 134b 12       		.byte	0x12
 4443 134c 1D01     		.2byte	0x11d
 4444 134e 30       		.uleb128 0x30
 4445 134f 12010000 		.4byte	.LASF175
 4446 1353 12010000 		.4byte	.LASF175
 4447 1357 12       		.byte	0x12
 4448 1358 1401     		.2byte	0x114
 4449 135a 30       		.uleb128 0x30
 4450 135b 56030000 		.4byte	.LASF176
 4451 135f 56030000 		.4byte	.LASF176
 4452 1363 0F       		.byte	0xf
 4453 1364 ED02     		.2byte	0x2ed
 4454 1366 30       		.uleb128 0x30
 4455 1367 DF040000 		.4byte	.LASF177
 4456 136b DF040000 		.4byte	.LASF177
 4457 136f 13       		.byte	0x13
 4458 1370 5501     		.2byte	0x155
 4459 1372 2F       		.uleb128 0x2f
 4460 1373 CF030000 		.4byte	.LASF178
 4461 1377 CF030000 		.4byte	.LASF178
 4462 137b 0A       		.byte	0xa
 4463 137c 5D       		.byte	0x5d
 4464 137d 30       		.uleb128 0x30
 4465 137e 83030000 		.4byte	.LASF179
 4466 1382 83030000 		.4byte	.LASF179
 4467 1386 06       		.byte	0x6
 4468 1387 8805     		.2byte	0x588
 4469 1389 30       		.uleb128 0x30
 4470 138a 97030000 		.4byte	.LASF180
 4471 138e 97030000 		.4byte	.LASF180
 4472 1392 10       		.byte	0x10
 4473 1393 4503     		.2byte	0x345
 4474 1395 30       		.uleb128 0x30
 4475 1396 E5030000 		.4byte	.LASF181
 4476 139a E5030000 		.4byte	.LASF181
 4477 139e 06       		.byte	0x6
 4478 139f 8802     		.2byte	0x288
 4479 13a1 2F       		.uleb128 0x2f
 4480 13a2 EE090000 		.4byte	.LASF182
 4481 13a6 EE090000 		.4byte	.LASF182
 4482 13aa 14       		.byte	0x14
 4483 13ab 33       		.byte	0x33
 4484 13ac 2F       		.uleb128 0x2f
 4485 13ad A8050000 		.4byte	.LASF183
 4486 13b1 A8050000 		.4byte	.LASF183
 4487 13b5 15       		.byte	0x15
 4488 13b6 77       		.byte	0x77
 4489 13b7 2F       		.uleb128 0x2f
 4490 13b8 BC070000 		.4byte	.LASF184
 4491 13bc BC070000 		.4byte	.LASF184
 4492 13c0 16       		.byte	0x16
 4493 13c1 36       		.byte	0x36
 4494 13c2 2F       		.uleb128 0x2f
 4495 13c3 D7010000 		.4byte	.LASF185
 4496 13c7 D7010000 		.4byte	.LASF185
ARM GAS  C:\Users\PRICHA~1\AppData\Local\Temp\cctE1isk.s 			page 108


 4497 13cb 17       		.byte	0x17
 4498 13cc 36       		.byte	0x36
 4499 13cd 2F       		.uleb128 0x2f
 4500 13ce D2080000 		.4byte	.LASF186
 4501 13d2 D2080000 		.4byte	.LASF186
 4502 13d6 0B       		.byte	0xb
 4503 13d7 5D       		.byte	0x5d
 4504 13d8 30       		.uleb128 0x30
 4505 13d9 BC040000 		.4byte	.LASF187
 4506 13dd BC040000 		.4byte	.LASF187
 4507 13e1 0F       		.byte	0xf
 4508 13e2 4101     		.2byte	0x141
 4509 13e4 30       		.uleb128 0x30
 4510 13e5 2C050000 		.4byte	.LASF188
 4511 13e9 2C050000 		.4byte	.LASF188
 4512 13ed 06       		.byte	0x6
 4513 13ee 8405     		.2byte	0x584
 4514 13f0 2F       		.uleb128 0x2f
 4515 13f1 E1000000 		.4byte	.LASF189
 4516 13f5 E1000000 		.4byte	.LASF189
 4517 13f9 18       		.byte	0x18
 4518 13fa 33       		.byte	0x33
 4519 13fb 2F       		.uleb128 0x2f
 4520 13fc 93040000 		.4byte	.LASF190
 4521 1400 93040000 		.4byte	.LASF190
 4522 1404 11       		.byte	0x11
 4523 1405 D9       		.byte	0xd9
 4524 1406 2F       		.uleb128 0x2f
 4525 1407 FA090000 		.4byte	.LASF191
 4526 140b FA090000 		.4byte	.LASF191
 4527 140f 0C       		.byte	0xc
 4528 1410 18       		.byte	0x18
 4529 1411 2F       		.uleb128 0x2f
 4530 1412 960A0000 		.4byte	.LASF192
 4531 1416 960A0000 		.4byte	.LASF192
 4532 141a 08       		.byte	0x8
 4533 141b 18       		.byte	0x18
 4534 141c 2F       		.uleb128 0x2f
 4535 141d B5010000 		.4byte	.LASF193
 4536 1421 B5010000 		.4byte	.LASF193
 4537 1425 19       		.byte	0x19
 4538 1426 18       		.byte	0x18
 4539 1427 2F       		.uleb128 0x2f
 4540 1428 BD080000 		.4byte	.LASF194
 4541 142c BD080000 		.4byte	.LASF194
 4542 1430 0C       		.byte	0xc
 4543 1431 20       		.byte	0x20
 4544 1432 2F       		.uleb128 0x2f
 4545 1433 26040000 		.4byte	.LASF195
 4546 1437 26040000 		.4byte	.LASF195
 4547 143b 08       		.byte	0x8
 4548 143c 20       		.byte	0x20
 4549 143d 2F       		.uleb128 0x2f
 4550 143e 3E050000 		.4byte	.LASF196
 4551 1442 3E050000 		.4byte	.LASF196
 4552 1446 19       		.byte	0x19
 4553 1447 20       		.byte	0x20
ARM GAS  C:\Users\PRICHA~1\AppData\Local\Temp\cctE1isk.s 			page 109


 4554 1448 2F       		.uleb128 0x2f
 4555 1449 3E010000 		.4byte	.LASF197
 4556 144d 3E010000 		.4byte	.LASF197
 4557 1451 1A       		.byte	0x1a
 4558 1452 72       		.byte	0x72
 4559 1453 2F       		.uleb128 0x2f
 4560 1454 1C090000 		.4byte	.LASF198
 4561 1458 1C090000 		.4byte	.LASF198
 4562 145c 1B       		.byte	0x1b
 4563 145d 72       		.byte	0x72
 4564 145e 30       		.uleb128 0x30
 4565 145f 94000000 		.4byte	.LASF199
 4566 1463 94000000 		.4byte	.LASF199
 4567 1467 13       		.byte	0x13
 4568 1468 3201     		.2byte	0x132
 4569 146a 30       		.uleb128 0x30
 4570 146b 84020000 		.4byte	.LASF200
 4571 146f 84020000 		.4byte	.LASF200
 4572 1473 13       		.byte	0x13
 4573 1474 5001     		.2byte	0x150
 4574 1476 2F       		.uleb128 0x2f
 4575 1477 36090000 		.4byte	.LASF201
 4576 147b 36090000 		.4byte	.LASF201
 4577 147f 0A       		.byte	0xa
 4578 1480 4F       		.byte	0x4f
 4579 1481 2F       		.uleb128 0x2f
 4580 1482 620A0000 		.4byte	.LASF202
 4581 1486 620A0000 		.4byte	.LASF202
 4582 148a 0B       		.byte	0xb
 4583 148b 4F       		.byte	0x4f
 4584 148c 30       		.uleb128 0x30
 4585 148d 00090000 		.4byte	.LASF203
 4586 1491 00090000 		.4byte	.LASF203
 4587 1495 0F       		.byte	0xf
 4588 1496 8E04     		.2byte	0x48e
 4589 1498 00       		.byte	0
 4590              		.section	.debug_abbrev,"",%progbits
 4591              	.Ldebug_abbrev0:
 4592 0000 01       		.uleb128 0x1
 4593 0001 11       		.uleb128 0x11
 4594 0002 01       		.byte	0x1
 4595 0003 25       		.uleb128 0x25
 4596 0004 0E       		.uleb128 0xe
 4597 0005 13       		.uleb128 0x13
 4598 0006 0B       		.uleb128 0xb
 4599 0007 03       		.uleb128 0x3
 4600 0008 0E       		.uleb128 0xe
 4601 0009 1B       		.uleb128 0x1b
 4602 000a 0E       		.uleb128 0xe
 4603 000b 55       		.uleb128 0x55
 4604 000c 17       		.uleb128 0x17
 4605 000d 11       		.uleb128 0x11
 4606 000e 01       		.uleb128 0x1
 4607 000f 10       		.uleb128 0x10
 4608 0010 17       		.uleb128 0x17
 4609 0011 00       		.byte	0
 4610 0012 00       		.byte	0
ARM GAS  C:\Users\PRICHA~1\AppData\Local\Temp\cctE1isk.s 			page 110


 4611 0013 02       		.uleb128 0x2
 4612 0014 24       		.uleb128 0x24
 4613 0015 00       		.byte	0
 4614 0016 0B       		.uleb128 0xb
 4615 0017 0B       		.uleb128 0xb
 4616 0018 3E       		.uleb128 0x3e
 4617 0019 0B       		.uleb128 0xb
 4618 001a 03       		.uleb128 0x3
 4619 001b 0E       		.uleb128 0xe
 4620 001c 00       		.byte	0
 4621 001d 00       		.byte	0
 4622 001e 03       		.uleb128 0x3
 4623 001f 24       		.uleb128 0x24
 4624 0020 00       		.byte	0
 4625 0021 0B       		.uleb128 0xb
 4626 0022 0B       		.uleb128 0xb
 4627 0023 3E       		.uleb128 0x3e
 4628 0024 0B       		.uleb128 0xb
 4629 0025 03       		.uleb128 0x3
 4630 0026 08       		.uleb128 0x8
 4631 0027 00       		.byte	0
 4632 0028 00       		.byte	0
 4633 0029 04       		.uleb128 0x4
 4634 002a 16       		.uleb128 0x16
 4635 002b 00       		.byte	0
 4636 002c 03       		.uleb128 0x3
 4637 002d 0E       		.uleb128 0xe
 4638 002e 3A       		.uleb128 0x3a
 4639 002f 0B       		.uleb128 0xb
 4640 0030 3B       		.uleb128 0x3b
 4641 0031 0B       		.uleb128 0xb
 4642 0032 49       		.uleb128 0x49
 4643 0033 13       		.uleb128 0x13
 4644 0034 00       		.byte	0
 4645 0035 00       		.byte	0
 4646 0036 05       		.uleb128 0x5
 4647 0037 16       		.uleb128 0x16
 4648 0038 00       		.byte	0
 4649 0039 03       		.uleb128 0x3
 4650 003a 0E       		.uleb128 0xe
 4651 003b 3A       		.uleb128 0x3a
 4652 003c 0B       		.uleb128 0xb
 4653 003d 3B       		.uleb128 0x3b
 4654 003e 05       		.uleb128 0x5
 4655 003f 49       		.uleb128 0x49
 4656 0040 13       		.uleb128 0x13
 4657 0041 00       		.byte	0
 4658 0042 00       		.byte	0
 4659 0043 06       		.uleb128 0x6
 4660 0044 35       		.uleb128 0x35
 4661 0045 00       		.byte	0
 4662 0046 49       		.uleb128 0x49
 4663 0047 13       		.uleb128 0x13
 4664 0048 00       		.byte	0
 4665 0049 00       		.byte	0
 4666 004a 07       		.uleb128 0x7
 4667 004b 0F       		.uleb128 0xf
ARM GAS  C:\Users\PRICHA~1\AppData\Local\Temp\cctE1isk.s 			page 111


 4668 004c 00       		.byte	0
 4669 004d 0B       		.uleb128 0xb
 4670 004e 0B       		.uleb128 0xb
 4671 004f 49       		.uleb128 0x49
 4672 0050 13       		.uleb128 0x13
 4673 0051 00       		.byte	0
 4674 0052 00       		.byte	0
 4675 0053 08       		.uleb128 0x8
 4676 0054 15       		.uleb128 0x15
 4677 0055 00       		.byte	0
 4678 0056 27       		.uleb128 0x27
 4679 0057 19       		.uleb128 0x19
 4680 0058 00       		.byte	0
 4681 0059 00       		.byte	0
 4682 005a 09       		.uleb128 0x9
 4683 005b 0F       		.uleb128 0xf
 4684 005c 00       		.byte	0
 4685 005d 0B       		.uleb128 0xb
 4686 005e 0B       		.uleb128 0xb
 4687 005f 00       		.byte	0
 4688 0060 00       		.byte	0
 4689 0061 0A       		.uleb128 0xa
 4690 0062 04       		.uleb128 0x4
 4691 0063 01       		.byte	0x1
 4692 0064 03       		.uleb128 0x3
 4693 0065 0E       		.uleb128 0xe
 4694 0066 0B       		.uleb128 0xb
 4695 0067 0B       		.uleb128 0xb
 4696 0068 49       		.uleb128 0x49
 4697 0069 13       		.uleb128 0x13
 4698 006a 3A       		.uleb128 0x3a
 4699 006b 0B       		.uleb128 0xb
 4700 006c 3B       		.uleb128 0x3b
 4701 006d 0B       		.uleb128 0xb
 4702 006e 01       		.uleb128 0x1
 4703 006f 13       		.uleb128 0x13
 4704 0070 00       		.byte	0
 4705 0071 00       		.byte	0
 4706 0072 0B       		.uleb128 0xb
 4707 0073 28       		.uleb128 0x28
 4708 0074 00       		.byte	0
 4709 0075 03       		.uleb128 0x3
 4710 0076 0E       		.uleb128 0xe
 4711 0077 1C       		.uleb128 0x1c
 4712 0078 0D       		.uleb128 0xd
 4713 0079 00       		.byte	0
 4714 007a 00       		.byte	0
 4715 007b 0C       		.uleb128 0xc
 4716 007c 04       		.uleb128 0x4
 4717 007d 01       		.byte	0x1
 4718 007e 0B       		.uleb128 0xb
 4719 007f 0B       		.uleb128 0xb
 4720 0080 49       		.uleb128 0x49
 4721 0081 13       		.uleb128 0x13
 4722 0082 3A       		.uleb128 0x3a
 4723 0083 0B       		.uleb128 0xb
 4724 0084 3B       		.uleb128 0x3b
ARM GAS  C:\Users\PRICHA~1\AppData\Local\Temp\cctE1isk.s 			page 112


 4725 0085 0B       		.uleb128 0xb
 4726 0086 01       		.uleb128 0x1
 4727 0087 13       		.uleb128 0x13
 4728 0088 00       		.byte	0
 4729 0089 00       		.byte	0
 4730 008a 0D       		.uleb128 0xd
 4731 008b 28       		.uleb128 0x28
 4732 008c 00       		.byte	0
 4733 008d 03       		.uleb128 0x3
 4734 008e 0E       		.uleb128 0xe
 4735 008f 1C       		.uleb128 0x1c
 4736 0090 0B       		.uleb128 0xb
 4737 0091 00       		.byte	0
 4738 0092 00       		.byte	0
 4739 0093 0E       		.uleb128 0xe
 4740 0094 13       		.uleb128 0x13
 4741 0095 01       		.byte	0x1
 4742 0096 0B       		.uleb128 0xb
 4743 0097 0B       		.uleb128 0xb
 4744 0098 3A       		.uleb128 0x3a
 4745 0099 0B       		.uleb128 0xb
 4746 009a 3B       		.uleb128 0x3b
 4747 009b 0B       		.uleb128 0xb
 4748 009c 01       		.uleb128 0x1
 4749 009d 13       		.uleb128 0x13
 4750 009e 00       		.byte	0
 4751 009f 00       		.byte	0
 4752 00a0 0F       		.uleb128 0xf
 4753 00a1 0D       		.uleb128 0xd
 4754 00a2 00       		.byte	0
 4755 00a3 03       		.uleb128 0x3
 4756 00a4 0E       		.uleb128 0xe
 4757 00a5 3A       		.uleb128 0x3a
 4758 00a6 0B       		.uleb128 0xb
 4759 00a7 3B       		.uleb128 0x3b
 4760 00a8 0B       		.uleb128 0xb
 4761 00a9 49       		.uleb128 0x49
 4762 00aa 13       		.uleb128 0x13
 4763 00ab 38       		.uleb128 0x38
 4764 00ac 0B       		.uleb128 0xb
 4765 00ad 00       		.byte	0
 4766 00ae 00       		.byte	0
 4767 00af 10       		.uleb128 0x10
 4768 00b0 13       		.uleb128 0x13
 4769 00b1 01       		.byte	0x1
 4770 00b2 0B       		.uleb128 0xb
 4771 00b3 0B       		.uleb128 0xb
 4772 00b4 3A       		.uleb128 0x3a
 4773 00b5 0B       		.uleb128 0xb
 4774 00b6 3B       		.uleb128 0x3b
 4775 00b7 05       		.uleb128 0x5
 4776 00b8 01       		.uleb128 0x1
 4777 00b9 13       		.uleb128 0x13
 4778 00ba 00       		.byte	0
 4779 00bb 00       		.byte	0
 4780 00bc 11       		.uleb128 0x11
 4781 00bd 0D       		.uleb128 0xd
ARM GAS  C:\Users\PRICHA~1\AppData\Local\Temp\cctE1isk.s 			page 113


 4782 00be 00       		.byte	0
 4783 00bf 03       		.uleb128 0x3
 4784 00c0 0E       		.uleb128 0xe
 4785 00c1 3A       		.uleb128 0x3a
 4786 00c2 0B       		.uleb128 0xb
 4787 00c3 3B       		.uleb128 0x3b
 4788 00c4 05       		.uleb128 0x5
 4789 00c5 49       		.uleb128 0x49
 4790 00c6 13       		.uleb128 0x13
 4791 00c7 38       		.uleb128 0x38
 4792 00c8 0B       		.uleb128 0xb
 4793 00c9 00       		.byte	0
 4794 00ca 00       		.byte	0
 4795 00cb 12       		.uleb128 0x12
 4796 00cc 0D       		.uleb128 0xd
 4797 00cd 00       		.byte	0
 4798 00ce 03       		.uleb128 0x3
 4799 00cf 08       		.uleb128 0x8
 4800 00d0 3A       		.uleb128 0x3a
 4801 00d1 0B       		.uleb128 0xb
 4802 00d2 3B       		.uleb128 0x3b
 4803 00d3 05       		.uleb128 0x5
 4804 00d4 49       		.uleb128 0x49
 4805 00d5 13       		.uleb128 0x13
 4806 00d6 38       		.uleb128 0x38
 4807 00d7 0B       		.uleb128 0xb
 4808 00d8 00       		.byte	0
 4809 00d9 00       		.byte	0
 4810 00da 13       		.uleb128 0x13
 4811 00db 17       		.uleb128 0x17
 4812 00dc 01       		.byte	0x1
 4813 00dd 0B       		.uleb128 0xb
 4814 00de 0B       		.uleb128 0xb
 4815 00df 3A       		.uleb128 0x3a
 4816 00e0 0B       		.uleb128 0xb
 4817 00e1 3B       		.uleb128 0x3b
 4818 00e2 05       		.uleb128 0x5
 4819 00e3 01       		.uleb128 0x1
 4820 00e4 13       		.uleb128 0x13
 4821 00e5 00       		.byte	0
 4822 00e6 00       		.byte	0
 4823 00e7 14       		.uleb128 0x14
 4824 00e8 0D       		.uleb128 0xd
 4825 00e9 00       		.byte	0
 4826 00ea 03       		.uleb128 0x3
 4827 00eb 08       		.uleb128 0x8
 4828 00ec 3A       		.uleb128 0x3a
 4829 00ed 0B       		.uleb128 0xb
 4830 00ee 3B       		.uleb128 0x3b
 4831 00ef 05       		.uleb128 0x5
 4832 00f0 49       		.uleb128 0x49
 4833 00f1 13       		.uleb128 0x13
 4834 00f2 00       		.byte	0
 4835 00f3 00       		.byte	0
 4836 00f4 15       		.uleb128 0x15
 4837 00f5 0D       		.uleb128 0xd
 4838 00f6 00       		.byte	0
ARM GAS  C:\Users\PRICHA~1\AppData\Local\Temp\cctE1isk.s 			page 114


 4839 00f7 03       		.uleb128 0x3
 4840 00f8 0E       		.uleb128 0xe
 4841 00f9 3A       		.uleb128 0x3a
 4842 00fa 0B       		.uleb128 0xb
 4843 00fb 3B       		.uleb128 0x3b
 4844 00fc 05       		.uleb128 0x5
 4845 00fd 49       		.uleb128 0x49
 4846 00fe 13       		.uleb128 0x13
 4847 00ff 00       		.byte	0
 4848 0100 00       		.byte	0
 4849 0101 16       		.uleb128 0x16
 4850 0102 01       		.uleb128 0x1
 4851 0103 01       		.byte	0x1
 4852 0104 49       		.uleb128 0x49
 4853 0105 13       		.uleb128 0x13
 4854 0106 01       		.uleb128 0x1
 4855 0107 13       		.uleb128 0x13
 4856 0108 00       		.byte	0
 4857 0109 00       		.byte	0
 4858 010a 17       		.uleb128 0x17
 4859 010b 21       		.uleb128 0x21
 4860 010c 00       		.byte	0
 4861 010d 49       		.uleb128 0x49
 4862 010e 13       		.uleb128 0x13
 4863 010f 2F       		.uleb128 0x2f
 4864 0110 0B       		.uleb128 0xb
 4865 0111 00       		.byte	0
 4866 0112 00       		.byte	0
 4867 0113 18       		.uleb128 0x18
 4868 0114 04       		.uleb128 0x4
 4869 0115 01       		.byte	0x1
 4870 0116 0B       		.uleb128 0xb
 4871 0117 0B       		.uleb128 0xb
 4872 0118 49       		.uleb128 0x49
 4873 0119 13       		.uleb128 0x13
 4874 011a 3A       		.uleb128 0x3a
 4875 011b 0B       		.uleb128 0xb
 4876 011c 3B       		.uleb128 0x3b
 4877 011d 05       		.uleb128 0x5
 4878 011e 01       		.uleb128 0x1
 4879 011f 13       		.uleb128 0x13
 4880 0120 00       		.byte	0
 4881 0121 00       		.byte	0
 4882 0122 19       		.uleb128 0x19
 4883 0123 2E       		.uleb128 0x2e
 4884 0124 01       		.byte	0x1
 4885 0125 3F       		.uleb128 0x3f
 4886 0126 19       		.uleb128 0x19
 4887 0127 03       		.uleb128 0x3
 4888 0128 0E       		.uleb128 0xe
 4889 0129 3A       		.uleb128 0x3a
 4890 012a 0B       		.uleb128 0xb
 4891 012b 3B       		.uleb128 0x3b
 4892 012c 05       		.uleb128 0x5
 4893 012d 27       		.uleb128 0x27
 4894 012e 19       		.uleb128 0x19
 4895 012f 11       		.uleb128 0x11
ARM GAS  C:\Users\PRICHA~1\AppData\Local\Temp\cctE1isk.s 			page 115


 4896 0130 01       		.uleb128 0x1
 4897 0131 12       		.uleb128 0x12
 4898 0132 06       		.uleb128 0x6
 4899 0133 40       		.uleb128 0x40
 4900 0134 18       		.uleb128 0x18
 4901 0135 9742     		.uleb128 0x2117
 4902 0137 19       		.uleb128 0x19
 4903 0138 01       		.uleb128 0x1
 4904 0139 13       		.uleb128 0x13
 4905 013a 00       		.byte	0
 4906 013b 00       		.byte	0
 4907 013c 1A       		.uleb128 0x1a
 4908 013d 898201   		.uleb128 0x4109
 4909 0140 00       		.byte	0
 4910 0141 11       		.uleb128 0x11
 4911 0142 01       		.uleb128 0x1
 4912 0143 31       		.uleb128 0x31
 4913 0144 13       		.uleb128 0x13
 4914 0145 00       		.byte	0
 4915 0146 00       		.byte	0
 4916 0147 1B       		.uleb128 0x1b
 4917 0148 898201   		.uleb128 0x4109
 4918 014b 01       		.byte	0x1
 4919 014c 11       		.uleb128 0x11
 4920 014d 01       		.uleb128 0x1
 4921 014e 31       		.uleb128 0x31
 4922 014f 13       		.uleb128 0x13
 4923 0150 01       		.uleb128 0x1
 4924 0151 13       		.uleb128 0x13
 4925 0152 00       		.byte	0
 4926 0153 00       		.byte	0
 4927 0154 1C       		.uleb128 0x1c
 4928 0155 8A8201   		.uleb128 0x410a
 4929 0158 00       		.byte	0
 4930 0159 02       		.uleb128 0x2
 4931 015a 18       		.uleb128 0x18
 4932 015b 9142     		.uleb128 0x2111
 4933 015d 18       		.uleb128 0x18
 4934 015e 00       		.byte	0
 4935 015f 00       		.byte	0
 4936 0160 1D       		.uleb128 0x1d
 4937 0161 898201   		.uleb128 0x4109
 4938 0164 01       		.byte	0x1
 4939 0165 11       		.uleb128 0x11
 4940 0166 01       		.uleb128 0x1
 4941 0167 31       		.uleb128 0x31
 4942 0168 13       		.uleb128 0x13
 4943 0169 00       		.byte	0
 4944 016a 00       		.byte	0
 4945 016b 1E       		.uleb128 0x1e
 4946 016c 34       		.uleb128 0x34
 4947 016d 00       		.byte	0
 4948 016e 03       		.uleb128 0x3
 4949 016f 08       		.uleb128 0x8
 4950 0170 3A       		.uleb128 0x3a
 4951 0171 0B       		.uleb128 0xb
 4952 0172 3B       		.uleb128 0x3b
ARM GAS  C:\Users\PRICHA~1\AppData\Local\Temp\cctE1isk.s 			page 116


 4953 0173 05       		.uleb128 0x5
 4954 0174 49       		.uleb128 0x49
 4955 0175 13       		.uleb128 0x13
 4956 0176 02       		.uleb128 0x2
 4957 0177 17       		.uleb128 0x17
 4958 0178 00       		.byte	0
 4959 0179 00       		.byte	0
 4960 017a 1F       		.uleb128 0x1f
 4961 017b 05       		.uleb128 0x5
 4962 017c 00       		.byte	0
 4963 017d 03       		.uleb128 0x3
 4964 017e 0E       		.uleb128 0xe
 4965 017f 3A       		.uleb128 0x3a
 4966 0180 0B       		.uleb128 0xb
 4967 0181 3B       		.uleb128 0x3b
 4968 0182 05       		.uleb128 0x5
 4969 0183 49       		.uleb128 0x49
 4970 0184 13       		.uleb128 0x13
 4971 0185 02       		.uleb128 0x2
 4972 0186 17       		.uleb128 0x17
 4973 0187 00       		.byte	0
 4974 0188 00       		.byte	0
 4975 0189 20       		.uleb128 0x20
 4976 018a 2E       		.uleb128 0x2e
 4977 018b 01       		.byte	0x1
 4978 018c 3F       		.uleb128 0x3f
 4979 018d 19       		.uleb128 0x19
 4980 018e 03       		.uleb128 0x3
 4981 018f 0E       		.uleb128 0xe
 4982 0190 3A       		.uleb128 0x3a
 4983 0191 0B       		.uleb128 0xb
 4984 0192 3B       		.uleb128 0x3b
 4985 0193 05       		.uleb128 0x5
 4986 0194 27       		.uleb128 0x27
 4987 0195 19       		.uleb128 0x19
 4988 0196 8701     		.uleb128 0x87
 4989 0198 19       		.uleb128 0x19
 4990 0199 11       		.uleb128 0x11
 4991 019a 01       		.uleb128 0x1
 4992 019b 12       		.uleb128 0x12
 4993 019c 06       		.uleb128 0x6
 4994 019d 40       		.uleb128 0x40
 4995 019e 18       		.uleb128 0x18
 4996 019f 9742     		.uleb128 0x2117
 4997 01a1 19       		.uleb128 0x19
 4998 01a2 01       		.uleb128 0x1
 4999 01a3 13       		.uleb128 0x13
 5000 01a4 00       		.byte	0
 5001 01a5 00       		.byte	0
 5002 01a6 21       		.uleb128 0x21
 5003 01a7 05       		.uleb128 0x5
 5004 01a8 00       		.byte	0
 5005 01a9 03       		.uleb128 0x3
 5006 01aa 08       		.uleb128 0x8
 5007 01ab 3A       		.uleb128 0x3a
 5008 01ac 0B       		.uleb128 0xb
 5009 01ad 3B       		.uleb128 0x3b
ARM GAS  C:\Users\PRICHA~1\AppData\Local\Temp\cctE1isk.s 			page 117


 5010 01ae 05       		.uleb128 0x5
 5011 01af 49       		.uleb128 0x49
 5012 01b0 13       		.uleb128 0x13
 5013 01b1 02       		.uleb128 0x2
 5014 01b2 17       		.uleb128 0x17
 5015 01b3 00       		.byte	0
 5016 01b4 00       		.byte	0
 5017 01b5 22       		.uleb128 0x22
 5018 01b6 34       		.uleb128 0x34
 5019 01b7 00       		.byte	0
 5020 01b8 03       		.uleb128 0x3
 5021 01b9 08       		.uleb128 0x8
 5022 01ba 3A       		.uleb128 0x3a
 5023 01bb 0B       		.uleb128 0xb
 5024 01bc 3B       		.uleb128 0x3b
 5025 01bd 05       		.uleb128 0x5
 5026 01be 49       		.uleb128 0x49
 5027 01bf 13       		.uleb128 0x13
 5028 01c0 02       		.uleb128 0x2
 5029 01c1 18       		.uleb128 0x18
 5030 01c2 00       		.byte	0
 5031 01c3 00       		.byte	0
 5032 01c4 23       		.uleb128 0x23
 5033 01c5 34       		.uleb128 0x34
 5034 01c6 00       		.byte	0
 5035 01c7 03       		.uleb128 0x3
 5036 01c8 0E       		.uleb128 0xe
 5037 01c9 3A       		.uleb128 0x3a
 5038 01ca 0B       		.uleb128 0xb
 5039 01cb 3B       		.uleb128 0x3b
 5040 01cc 05       		.uleb128 0x5
 5041 01cd 49       		.uleb128 0x49
 5042 01ce 13       		.uleb128 0x13
 5043 01cf 02       		.uleb128 0x2
 5044 01d0 17       		.uleb128 0x17
 5045 01d1 00       		.byte	0
 5046 01d2 00       		.byte	0
 5047 01d3 24       		.uleb128 0x24
 5048 01d4 34       		.uleb128 0x34
 5049 01d5 00       		.byte	0
 5050 01d6 03       		.uleb128 0x3
 5051 01d7 0E       		.uleb128 0xe
 5052 01d8 3A       		.uleb128 0x3a
 5053 01d9 0B       		.uleb128 0xb
 5054 01da 3B       		.uleb128 0x3b
 5055 01db 05       		.uleb128 0x5
 5056 01dc 49       		.uleb128 0x49
 5057 01dd 13       		.uleb128 0x13
 5058 01de 02       		.uleb128 0x2
 5059 01df 18       		.uleb128 0x18
 5060 01e0 00       		.byte	0
 5061 01e1 00       		.byte	0
 5062 01e2 25       		.uleb128 0x25
 5063 01e3 05       		.uleb128 0x5
 5064 01e4 00       		.byte	0
 5065 01e5 03       		.uleb128 0x3
 5066 01e6 0E       		.uleb128 0xe
ARM GAS  C:\Users\PRICHA~1\AppData\Local\Temp\cctE1isk.s 			page 118


 5067 01e7 3A       		.uleb128 0x3a
 5068 01e8 0B       		.uleb128 0xb
 5069 01e9 3B       		.uleb128 0x3b
 5070 01ea 05       		.uleb128 0x5
 5071 01eb 49       		.uleb128 0x49
 5072 01ec 13       		.uleb128 0x13
 5073 01ed 02       		.uleb128 0x2
 5074 01ee 18       		.uleb128 0x18
 5075 01ef 00       		.byte	0
 5076 01f0 00       		.byte	0
 5077 01f1 26       		.uleb128 0x26
 5078 01f2 2E       		.uleb128 0x2e
 5079 01f3 01       		.byte	0x1
 5080 01f4 3F       		.uleb128 0x3f
 5081 01f5 19       		.uleb128 0x19
 5082 01f6 03       		.uleb128 0x3
 5083 01f7 0E       		.uleb128 0xe
 5084 01f8 3A       		.uleb128 0x3a
 5085 01f9 0B       		.uleb128 0xb
 5086 01fa 3B       		.uleb128 0x3b
 5087 01fb 05       		.uleb128 0x5
 5088 01fc 27       		.uleb128 0x27
 5089 01fd 19       		.uleb128 0x19
 5090 01fe 11       		.uleb128 0x11
 5091 01ff 01       		.uleb128 0x1
 5092 0200 12       		.uleb128 0x12
 5093 0201 06       		.uleb128 0x6
 5094 0202 40       		.uleb128 0x40
 5095 0203 18       		.uleb128 0x18
 5096 0204 9642     		.uleb128 0x2116
 5097 0206 19       		.uleb128 0x19
 5098 0207 01       		.uleb128 0x1
 5099 0208 13       		.uleb128 0x13
 5100 0209 00       		.byte	0
 5101 020a 00       		.byte	0
 5102 020b 27       		.uleb128 0x27
 5103 020c 2E       		.uleb128 0x2e
 5104 020d 01       		.byte	0x1
 5105 020e 3F       		.uleb128 0x3f
 5106 020f 19       		.uleb128 0x19
 5107 0210 03       		.uleb128 0x3
 5108 0211 0E       		.uleb128 0xe
 5109 0212 3A       		.uleb128 0x3a
 5110 0213 0B       		.uleb128 0xb
 5111 0214 3B       		.uleb128 0x3b
 5112 0215 05       		.uleb128 0x5
 5113 0216 27       		.uleb128 0x27
 5114 0217 19       		.uleb128 0x19
 5115 0218 49       		.uleb128 0x49
 5116 0219 13       		.uleb128 0x13
 5117 021a 11       		.uleb128 0x11
 5118 021b 01       		.uleb128 0x1
 5119 021c 12       		.uleb128 0x12
 5120 021d 06       		.uleb128 0x6
 5121 021e 40       		.uleb128 0x40
 5122 021f 18       		.uleb128 0x18
 5123 0220 9742     		.uleb128 0x2117
ARM GAS  C:\Users\PRICHA~1\AppData\Local\Temp\cctE1isk.s 			page 119


 5124 0222 19       		.uleb128 0x19
 5125 0223 01       		.uleb128 0x1
 5126 0224 13       		.uleb128 0x13
 5127 0225 00       		.byte	0
 5128 0226 00       		.byte	0
 5129 0227 28       		.uleb128 0x28
 5130 0228 2E       		.uleb128 0x2e
 5131 0229 01       		.byte	0x1
 5132 022a 3F       		.uleb128 0x3f
 5133 022b 19       		.uleb128 0x19
 5134 022c 03       		.uleb128 0x3
 5135 022d 0E       		.uleb128 0xe
 5136 022e 3A       		.uleb128 0x3a
 5137 022f 0B       		.uleb128 0xb
 5138 0230 3B       		.uleb128 0x3b
 5139 0231 05       		.uleb128 0x5
 5140 0232 27       		.uleb128 0x27
 5141 0233 19       		.uleb128 0x19
 5142 0234 8701     		.uleb128 0x87
 5143 0236 19       		.uleb128 0x19
 5144 0237 11       		.uleb128 0x11
 5145 0238 01       		.uleb128 0x1
 5146 0239 12       		.uleb128 0x12
 5147 023a 06       		.uleb128 0x6
 5148 023b 40       		.uleb128 0x40
 5149 023c 18       		.uleb128 0x18
 5150 023d 9642     		.uleb128 0x2116
 5151 023f 19       		.uleb128 0x19
 5152 0240 01       		.uleb128 0x1
 5153 0241 13       		.uleb128 0x13
 5154 0242 00       		.byte	0
 5155 0243 00       		.byte	0
 5156 0244 29       		.uleb128 0x29
 5157 0245 0B       		.uleb128 0xb
 5158 0246 01       		.byte	0x1
 5159 0247 11       		.uleb128 0x11
 5160 0248 01       		.uleb128 0x1
 5161 0249 12       		.uleb128 0x12
 5162 024a 06       		.uleb128 0x6
 5163 024b 00       		.byte	0
 5164 024c 00       		.byte	0
 5165 024d 2A       		.uleb128 0x2a
 5166 024e 2E       		.uleb128 0x2e
 5167 024f 01       		.byte	0x1
 5168 0250 3F       		.uleb128 0x3f
 5169 0251 19       		.uleb128 0x19
 5170 0252 03       		.uleb128 0x3
 5171 0253 0E       		.uleb128 0xe
 5172 0254 3A       		.uleb128 0x3a
 5173 0255 0B       		.uleb128 0xb
 5174 0256 3B       		.uleb128 0x3b
 5175 0257 05       		.uleb128 0x5
 5176 0258 27       		.uleb128 0x27
 5177 0259 19       		.uleb128 0x19
 5178 025a 49       		.uleb128 0x49
 5179 025b 13       		.uleb128 0x13
 5180 025c 11       		.uleb128 0x11
ARM GAS  C:\Users\PRICHA~1\AppData\Local\Temp\cctE1isk.s 			page 120


 5181 025d 01       		.uleb128 0x1
 5182 025e 12       		.uleb128 0x12
 5183 025f 06       		.uleb128 0x6
 5184 0260 40       		.uleb128 0x40
 5185 0261 18       		.uleb128 0x18
 5186 0262 9642     		.uleb128 0x2116
 5187 0264 19       		.uleb128 0x19
 5188 0265 01       		.uleb128 0x1
 5189 0266 13       		.uleb128 0x13
 5190 0267 00       		.byte	0
 5191 0268 00       		.byte	0
 5192 0269 2B       		.uleb128 0x2b
 5193 026a 34       		.uleb128 0x34
 5194 026b 00       		.byte	0
 5195 026c 03       		.uleb128 0x3
 5196 026d 0E       		.uleb128 0xe
 5197 026e 3A       		.uleb128 0x3a
 5198 026f 0B       		.uleb128 0xb
 5199 0270 3B       		.uleb128 0x3b
 5200 0271 05       		.uleb128 0x5
 5201 0272 49       		.uleb128 0x49
 5202 0273 13       		.uleb128 0x13
 5203 0274 1C       		.uleb128 0x1c
 5204 0275 0B       		.uleb128 0xb
 5205 0276 00       		.byte	0
 5206 0277 00       		.byte	0
 5207 0278 2C       		.uleb128 0x2c
 5208 0279 34       		.uleb128 0x34
 5209 027a 00       		.byte	0
 5210 027b 03       		.uleb128 0x3
 5211 027c 0E       		.uleb128 0xe
 5212 027d 3A       		.uleb128 0x3a
 5213 027e 0B       		.uleb128 0xb
 5214 027f 3B       		.uleb128 0x3b
 5215 0280 0B       		.uleb128 0xb
 5216 0281 49       		.uleb128 0x49
 5217 0282 13       		.uleb128 0x13
 5218 0283 3F       		.uleb128 0x3f
 5219 0284 19       		.uleb128 0x19
 5220 0285 02       		.uleb128 0x2
 5221 0286 18       		.uleb128 0x18
 5222 0287 00       		.byte	0
 5223 0288 00       		.byte	0
 5224 0289 2D       		.uleb128 0x2d
 5225 028a 34       		.uleb128 0x34
 5226 028b 00       		.byte	0
 5227 028c 03       		.uleb128 0x3
 5228 028d 08       		.uleb128 0x8
 5229 028e 3A       		.uleb128 0x3a
 5230 028f 0B       		.uleb128 0xb
 5231 0290 3B       		.uleb128 0x3b
 5232 0291 0B       		.uleb128 0xb
 5233 0292 49       		.uleb128 0x49
 5234 0293 13       		.uleb128 0x13
 5235 0294 3F       		.uleb128 0x3f
 5236 0295 19       		.uleb128 0x19
 5237 0296 02       		.uleb128 0x2
ARM GAS  C:\Users\PRICHA~1\AppData\Local\Temp\cctE1isk.s 			page 121


 5238 0297 18       		.uleb128 0x18
 5239 0298 00       		.byte	0
 5240 0299 00       		.byte	0
 5241 029a 2E       		.uleb128 0x2e
 5242 029b 34       		.uleb128 0x34
 5243 029c 00       		.byte	0
 5244 029d 03       		.uleb128 0x3
 5245 029e 0E       		.uleb128 0xe
 5246 029f 3A       		.uleb128 0x3a
 5247 02a0 0B       		.uleb128 0xb
 5248 02a1 3B       		.uleb128 0x3b
 5249 02a2 05       		.uleb128 0x5
 5250 02a3 49       		.uleb128 0x49
 5251 02a4 13       		.uleb128 0x13
 5252 02a5 3F       		.uleb128 0x3f
 5253 02a6 19       		.uleb128 0x19
 5254 02a7 02       		.uleb128 0x2
 5255 02a8 18       		.uleb128 0x18
 5256 02a9 00       		.byte	0
 5257 02aa 00       		.byte	0
 5258 02ab 2F       		.uleb128 0x2f
 5259 02ac 2E       		.uleb128 0x2e
 5260 02ad 00       		.byte	0
 5261 02ae 3F       		.uleb128 0x3f
 5262 02af 19       		.uleb128 0x19
 5263 02b0 3C       		.uleb128 0x3c
 5264 02b1 19       		.uleb128 0x19
 5265 02b2 6E       		.uleb128 0x6e
 5266 02b3 0E       		.uleb128 0xe
 5267 02b4 03       		.uleb128 0x3
 5268 02b5 0E       		.uleb128 0xe
 5269 02b6 3A       		.uleb128 0x3a
 5270 02b7 0B       		.uleb128 0xb
 5271 02b8 3B       		.uleb128 0x3b
 5272 02b9 0B       		.uleb128 0xb
 5273 02ba 00       		.byte	0
 5274 02bb 00       		.byte	0
 5275 02bc 30       		.uleb128 0x30
 5276 02bd 2E       		.uleb128 0x2e
 5277 02be 00       		.byte	0
 5278 02bf 3F       		.uleb128 0x3f
 5279 02c0 19       		.uleb128 0x19
 5280 02c1 3C       		.uleb128 0x3c
 5281 02c2 19       		.uleb128 0x19
 5282 02c3 6E       		.uleb128 0x6e
 5283 02c4 0E       		.uleb128 0xe
 5284 02c5 03       		.uleb128 0x3
 5285 02c6 0E       		.uleb128 0xe
 5286 02c7 3A       		.uleb128 0x3a
 5287 02c8 0B       		.uleb128 0xb
 5288 02c9 3B       		.uleb128 0x3b
 5289 02ca 05       		.uleb128 0x5
 5290 02cb 00       		.byte	0
 5291 02cc 00       		.byte	0
 5292 02cd 31       		.uleb128 0x31
 5293 02ce 2E       		.uleb128 0x2e
 5294 02cf 00       		.byte	0
ARM GAS  C:\Users\PRICHA~1\AppData\Local\Temp\cctE1isk.s 			page 122


 5295 02d0 3F       		.uleb128 0x3f
 5296 02d1 19       		.uleb128 0x19
 5297 02d2 3C       		.uleb128 0x3c
 5298 02d3 19       		.uleb128 0x19
 5299 02d4 6E       		.uleb128 0x6e
 5300 02d5 0E       		.uleb128 0xe
 5301 02d6 03       		.uleb128 0x3
 5302 02d7 0E       		.uleb128 0xe
 5303 02d8 00       		.byte	0
 5304 02d9 00       		.byte	0
 5305 02da 00       		.byte	0
 5306              		.section	.debug_loc,"",%progbits
 5307              	.Ldebug_loc0:
 5308              	.LLST0:
 5309 0000 28000000 		.4byte	.LVL10
 5310 0004 2C000000 		.4byte	.LVL11
 5311 0008 0200     		.2byte	0x2
 5312 000a 30       		.byte	0x30
 5313 000b 9F       		.byte	0x9f
 5314 000c 2C000000 		.4byte	.LVL11
 5315 0010 48000000 		.4byte	.LVL16
 5316 0014 0100     		.2byte	0x1
 5317 0016 54       		.byte	0x54
 5318 0017 00000000 		.4byte	0
 5319 001b 00000000 		.4byte	0
 5320              	.LLST1:
 5321 001f 00000000 		.4byte	.LVL20
 5322 0023 12000000 		.4byte	.LVL21
 5323 0027 0100     		.2byte	0x1
 5324 0029 50       		.byte	0x50
 5325 002a 12000000 		.4byte	.LVL21
 5326 002e 1C000000 		.4byte	.LFE33
 5327 0032 0400     		.2byte	0x4
 5328 0034 F3       		.byte	0xf3
 5329 0035 01       		.uleb128 0x1
 5330 0036 50       		.byte	0x50
 5331 0037 9F       		.byte	0x9f
 5332 0038 00000000 		.4byte	0
 5333 003c 00000000 		.4byte	0
 5334              	.LLST2:
 5335 0040 00000000 		.4byte	.LVL22
 5336 0044 06000000 		.4byte	.LVL23
 5337 0048 0100     		.2byte	0x1
 5338 004a 50       		.byte	0x50
 5339 004b 06000000 		.4byte	.LVL23
 5340 004f D8000000 		.4byte	.LFE35
 5341 0053 0400     		.2byte	0x4
 5342 0055 F3       		.byte	0xf3
 5343 0056 01       		.uleb128 0x1
 5344 0057 50       		.byte	0x50
 5345 0058 9F       		.byte	0x9f
 5346 0059 00000000 		.4byte	0
 5347 005d 00000000 		.4byte	0
 5348              	.LLST3:
 5349 0061 28000000 		.4byte	.LVL26
 5350 0065 40000000 		.4byte	.LVL30
 5351 0069 0300     		.2byte	0x3
ARM GAS  C:\Users\PRICHA~1\AppData\Local\Temp\cctE1isk.s 			page 123


 5352 006b 08       		.byte	0x8
 5353 006c 20       		.byte	0x20
 5354 006d 9F       		.byte	0x9f
 5355 006e 00000000 		.4byte	0
 5356 0072 00000000 		.4byte	0
 5357              	.LLST4:
 5358 0076 30000000 		.4byte	.LVL27
 5359 007a 40000000 		.4byte	.LVL30
 5360 007e 0200     		.2byte	0x2
 5361 0080 30       		.byte	0x30
 5362 0081 9F       		.byte	0x9f
 5363 0082 00000000 		.4byte	0
 5364 0086 00000000 		.4byte	0
 5365              	.LLST5:
 5366 008a 00000000 		.4byte	.LVL41
 5367 008e 0D000000 		.4byte	.LVL43-1
 5368 0092 0100     		.2byte	0x1
 5369 0094 50       		.byte	0x50
 5370 0095 0D000000 		.4byte	.LVL43-1
 5371 0099 36000000 		.4byte	.LVL50
 5372 009d 0100     		.2byte	0x1
 5373 009f 55       		.byte	0x55
 5374 00a0 36000000 		.4byte	.LVL50
 5375 00a4 40000000 		.4byte	.LFE37
 5376 00a8 0600     		.2byte	0x6
 5377 00aa F3       		.byte	0xf3
 5378 00ab 03       		.uleb128 0x3
 5379 00ac F5       		.byte	0xf5
 5380 00ad 00       		.uleb128 0
 5381 00ae 25       		.uleb128 0x25
 5382 00af 9F       		.byte	0x9f
 5383 00b0 00000000 		.4byte	0
 5384 00b4 00000000 		.4byte	0
 5385              	.LLST6:
 5386 00b8 04000000 		.4byte	.LVL42
 5387 00bc 0D000000 		.4byte	.LVL43-1
 5388 00c0 0100     		.2byte	0x1
 5389 00c2 50       		.byte	0x50
 5390 00c3 0D000000 		.4byte	.LVL43-1
 5391 00c7 24000000 		.4byte	.LVL45
 5392 00cb 0100     		.2byte	0x1
 5393 00cd 55       		.byte	0x55
 5394 00ce 24000000 		.4byte	.LVL45
 5395 00d2 36000000 		.4byte	.LVL49
 5396 00d6 0100     		.2byte	0x1
 5397 00d8 54       		.byte	0x54
 5398 00d9 00000000 		.4byte	0
 5399 00dd 00000000 		.4byte	0
 5400              	.LLST7:
 5401 00e1 06000000 		.4byte	.LVL51
 5402 00e5 14000000 		.4byte	.LVL52
 5403 00e9 0100     		.2byte	0x1
 5404 00eb 50       		.byte	0x50
 5405 00ec 00000000 		.4byte	0
 5406 00f0 00000000 		.4byte	0
 5407              	.LLST8:
 5408 00f4 00000000 		.4byte	.LVL53
ARM GAS  C:\Users\PRICHA~1\AppData\Local\Temp\cctE1isk.s 			page 124


 5409 00f8 04000000 		.4byte	.LVL54
 5410 00fc 0100     		.2byte	0x1
 5411 00fe 50       		.byte	0x50
 5412 00ff 04000000 		.4byte	.LVL54
 5413 0103 C0020000 		.4byte	.LFE36
 5414 0107 0400     		.2byte	0x4
 5415 0109 F3       		.byte	0xf3
 5416 010a 01       		.uleb128 0x1
 5417 010b 50       		.byte	0x50
 5418 010c 9F       		.byte	0x9f
 5419 010d 00000000 		.4byte	0
 5420 0111 00000000 		.4byte	0
 5421              	.LLST9:
 5422 0115 36000000 		.4byte	.LVL58
 5423 0119 E2000000 		.4byte	.LVL73
 5424 011d 0100     		.2byte	0x1
 5425 011f 54       		.byte	0x54
 5426 0120 38010000 		.4byte	.LVL82
 5427 0124 96010000 		.4byte	.LVL87
 5428 0128 0100     		.2byte	0x1
 5429 012a 54       		.byte	0x54
 5430 012b 00000000 		.4byte	0
 5431 012f 00000000 		.4byte	0
 5432              	.LLST10:
 5433 0133 34000000 		.4byte	.LVL57
 5434 0137 D6000000 		.4byte	.LVL70
 5435 013b 0100     		.2byte	0x1
 5436 013d 50       		.byte	0x50
 5437 013e 38010000 		.4byte	.LVL82
 5438 0142 3A010000 		.4byte	.LVL83
 5439 0146 0100     		.2byte	0x1
 5440 0148 50       		.byte	0x50
 5441 0149 00000000 		.4byte	0
 5442 014d 00000000 		.4byte	0
 5443              	.LLST11:
 5444 0151 3C000000 		.4byte	.LVL59
 5445 0155 42000000 		.4byte	.LVL60
 5446 0159 0200     		.2byte	0x2
 5447 015b 30       		.byte	0x30
 5448 015c 9F       		.byte	0x9f
 5449 015d 42000000 		.4byte	.LVL60
 5450 0161 4C000000 		.4byte	.LVL63
 5451 0165 0100     		.2byte	0x1
 5452 0167 53       		.byte	0x53
 5453 0168 4E000000 		.4byte	.LVL64
 5454 016c 58000000 		.4byte	.LVL65
 5455 0170 0100     		.2byte	0x1
 5456 0172 53       		.byte	0x53
 5457 0173 6A000000 		.4byte	.LVL67
 5458 0177 6C000000 		.4byte	.LVL68
 5459 017b 0100     		.2byte	0x1
 5460 017d 53       		.byte	0x53
 5461 017e FE010000 		.4byte	.LVL89
 5462 0182 04020000 		.4byte	.LVL90
 5463 0186 0200     		.2byte	0x2
 5464 0188 30       		.byte	0x30
 5465 0189 9F       		.byte	0x9f
ARM GAS  C:\Users\PRICHA~1\AppData\Local\Temp\cctE1isk.s 			page 125


 5466 018a 04020000 		.4byte	.LVL90
 5467 018e 0E020000 		.4byte	.LVL93
 5468 0192 0100     		.2byte	0x1
 5469 0194 53       		.byte	0x53
 5470 0195 10020000 		.4byte	.LVL94
 5471 0199 1F020000 		.4byte	.LVL96-1
 5472 019d 0100     		.2byte	0x1
 5473 019f 53       		.byte	0x53
 5474 01a0 00000000 		.4byte	0
 5475 01a4 00000000 		.4byte	0
 5476              	.LLST12:
 5477 01a8 3C000000 		.4byte	.LVL59
 5478 01ac 42000000 		.4byte	.LVL60
 5479 01b0 0200     		.2byte	0x2
 5480 01b2 30       		.byte	0x30
 5481 01b3 9F       		.byte	0x9f
 5482 01b4 42000000 		.4byte	.LVL60
 5483 01b8 48000000 		.4byte	.LVL61
 5484 01bc 0100     		.2byte	0x1
 5485 01be 52       		.byte	0x52
 5486 01bf 4A000000 		.4byte	.LVL62
 5487 01c3 5C000000 		.4byte	.LVL66
 5488 01c7 0100     		.2byte	0x1
 5489 01c9 52       		.byte	0x52
 5490 01ca 6A000000 		.4byte	.LVL67
 5491 01ce 82000000 		.4byte	.LVL69
 5492 01d2 0100     		.2byte	0x1
 5493 01d4 52       		.byte	0x52
 5494 01d5 38010000 		.4byte	.LVL82
 5495 01d9 40010000 		.4byte	.LVL84
 5496 01dd 0100     		.2byte	0x1
 5497 01df 52       		.byte	0x52
 5498 01e0 FE010000 		.4byte	.LVL89
 5499 01e4 04020000 		.4byte	.LVL90
 5500 01e8 0200     		.2byte	0x2
 5501 01ea 30       		.byte	0x30
 5502 01eb 9F       		.byte	0x9f
 5503 01ec 04020000 		.4byte	.LVL90
 5504 01f0 0A020000 		.4byte	.LVL91
 5505 01f4 0100     		.2byte	0x1
 5506 01f6 52       		.byte	0x52
 5507 01f7 0C020000 		.4byte	.LVL92
 5508 01fb 18020000 		.4byte	.LVL95
 5509 01ff 0100     		.2byte	0x1
 5510 0201 52       		.byte	0x52
 5511 0202 00000000 		.4byte	0
 5512 0206 00000000 		.4byte	0
 5513              	.LLST13:
 5514 020a D6000000 		.4byte	.LVL70
 5515 020e DF000000 		.4byte	.LVL72-1
 5516 0212 0100     		.2byte	0x1
 5517 0214 50       		.byte	0x50
 5518 0215 EA000000 		.4byte	.LVL74
 5519 0219 F3000000 		.4byte	.LVL76-1
 5520 021d 0100     		.2byte	0x1
 5521 021f 50       		.byte	0x50
 5522 0220 00000000 		.4byte	0
ARM GAS  C:\Users\PRICHA~1\AppData\Local\Temp\cctE1isk.s 			page 126


 5523 0224 00000000 		.4byte	0
 5524              	.LLST14:
 5525 0228 00000000 		.4byte	.LVL102
 5526 022c 0F000000 		.4byte	.LVL103-1
 5527 0230 0100     		.2byte	0x1
 5528 0232 50       		.byte	0x50
 5529 0233 0F000000 		.4byte	.LVL103-1
 5530 0237 44000000 		.4byte	.LFE40
 5531 023b 0400     		.2byte	0x4
 5532 023d F3       		.byte	0xf3
 5533 023e 01       		.uleb128 0x1
 5534 023f 50       		.byte	0x50
 5535 0240 9F       		.byte	0x9f
 5536 0241 00000000 		.4byte	0
 5537 0245 00000000 		.4byte	0
 5538              	.LLST15:
 5539 0249 00000000 		.4byte	.LVL102
 5540 024d 0F000000 		.4byte	.LVL103-1
 5541 0251 0100     		.2byte	0x1
 5542 0253 51       		.byte	0x51
 5543 0254 0F000000 		.4byte	.LVL103-1
 5544 0258 32000000 		.4byte	.LVL111
 5545 025c 0100     		.2byte	0x1
 5546 025e 56       		.byte	0x56
 5547 025f 32000000 		.4byte	.LVL111
 5548 0263 44000000 		.4byte	.LFE40
 5549 0267 0600     		.2byte	0x6
 5550 0269 F3       		.byte	0xf3
 5551 026a 03       		.uleb128 0x3
 5552 026b F5       		.byte	0xf5
 5553 026c 01       		.uleb128 0x1
 5554 026d 25       		.uleb128 0x25
 5555 026e 9F       		.byte	0x9f
 5556 026f 00000000 		.4byte	0
 5557 0273 00000000 		.4byte	0
 5558              	.LLST16:
 5559 0277 00000000 		.4byte	.LVL102
 5560 027b 0F000000 		.4byte	.LVL103-1
 5561 027f 0100     		.2byte	0x1
 5562 0281 52       		.byte	0x52
 5563 0282 0F000000 		.4byte	.LVL103-1
 5564 0286 32000000 		.4byte	.LVL110
 5565 028a 0100     		.2byte	0x1
 5566 028c 55       		.byte	0x55
 5567 028d 32000000 		.4byte	.LVL110
 5568 0291 44000000 		.4byte	.LFE40
 5569 0295 0600     		.2byte	0x6
 5570 0297 F3       		.byte	0xf3
 5571 0298 03       		.uleb128 0x3
 5572 0299 F5       		.byte	0xf5
 5573 029a 02       		.uleb128 0x2
 5574 029b 25       		.uleb128 0x25
 5575 029c 9F       		.byte	0x9f
 5576 029d 00000000 		.4byte	0
 5577 02a1 00000000 		.4byte	0
 5578              	.LLST17:
 5579 02a5 00000000 		.4byte	.LVL102
ARM GAS  C:\Users\PRICHA~1\AppData\Local\Temp\cctE1isk.s 			page 127


 5580 02a9 0F000000 		.4byte	.LVL103-1
 5581 02ad 0100     		.2byte	0x1
 5582 02af 53       		.byte	0x53
 5583 02b0 0F000000 		.4byte	.LVL103-1
 5584 02b4 32000000 		.4byte	.LVL109
 5585 02b8 0100     		.2byte	0x1
 5586 02ba 54       		.byte	0x54
 5587 02bb 32000000 		.4byte	.LVL109
 5588 02bf 44000000 		.4byte	.LFE40
 5589 02c3 0600     		.2byte	0x6
 5590 02c5 F3       		.byte	0xf3
 5591 02c6 03       		.uleb128 0x3
 5592 02c7 F5       		.byte	0xf5
 5593 02c8 03       		.uleb128 0x3
 5594 02c9 25       		.uleb128 0x25
 5595 02ca 9F       		.byte	0x9f
 5596 02cb 00000000 		.4byte	0
 5597 02cf 00000000 		.4byte	0
 5598              	.LLST18:
 5599 02d3 18000000 		.4byte	.LVL105
 5600 02d7 21000000 		.4byte	.LVL106-1
 5601 02db 0100     		.2byte	0x1
 5602 02dd 50       		.byte	0x50
 5603 02de 21000000 		.4byte	.LVL106-1
 5604 02e2 32000000 		.4byte	.LVL108
 5605 02e6 0100     		.2byte	0x1
 5606 02e8 57       		.byte	0x57
 5607 02e9 00000000 		.4byte	0
 5608 02ed 00000000 		.4byte	0
 5609              	.LLST19:
 5610 02f1 00000000 		.4byte	.LVL112
 5611 02f5 11000000 		.4byte	.LVL113-1
 5612 02f9 0100     		.2byte	0x1
 5613 02fb 50       		.byte	0x50
 5614 02fc 11000000 		.4byte	.LVL113-1
 5615 0300 F8000000 		.4byte	.LVL132
 5616 0304 0100     		.2byte	0x1
 5617 0306 54       		.byte	0x54
 5618 0307 F8000000 		.4byte	.LVL132
 5619 030b FA000000 		.4byte	.LVL133
 5620 030f 0100     		.2byte	0x1
 5621 0311 50       		.byte	0x50
 5622 0312 FA000000 		.4byte	.LVL133
 5623 0316 FA000000 		.4byte	.LVL134
 5624 031a 0100     		.2byte	0x1
 5625 031c 54       		.byte	0x54
 5626 031d FA000000 		.4byte	.LVL134
 5627 0321 38010000 		.4byte	.LFE41
 5628 0325 0400     		.2byte	0x4
 5629 0327 F3       		.byte	0xf3
 5630 0328 01       		.uleb128 0x1
 5631 0329 50       		.byte	0x50
 5632 032a 9F       		.byte	0x9f
 5633 032b 00000000 		.4byte	0
 5634 032f 00000000 		.4byte	0
 5635              	.LLST20:
 5636 0333 00000000 		.4byte	.LVL112
ARM GAS  C:\Users\PRICHA~1\AppData\Local\Temp\cctE1isk.s 			page 128


 5637 0337 11000000 		.4byte	.LVL113-1
 5638 033b 0100     		.2byte	0x1
 5639 033d 51       		.byte	0x51
 5640 033e 11000000 		.4byte	.LVL113-1
 5641 0342 4A000000 		.4byte	.LVL119
 5642 0346 0100     		.2byte	0x1
 5643 0348 55       		.byte	0x55
 5644 0349 4A000000 		.4byte	.LVL119
 5645 034d F8000000 		.4byte	.LVL132
 5646 0351 0400     		.2byte	0x4
 5647 0353 F3       		.byte	0xf3
 5648 0354 01       		.uleb128 0x1
 5649 0355 51       		.byte	0x51
 5650 0356 9F       		.byte	0x9f
 5651 0357 F8000000 		.4byte	.LVL132
 5652 035b FA000000 		.4byte	.LVL133
 5653 035f 0100     		.2byte	0x1
 5654 0361 51       		.byte	0x51
 5655 0362 FA000000 		.4byte	.LVL133
 5656 0366 38010000 		.4byte	.LFE41
 5657 036a 0400     		.2byte	0x4
 5658 036c F3       		.byte	0xf3
 5659 036d 01       		.uleb128 0x1
 5660 036e 51       		.byte	0x51
 5661 036f 9F       		.byte	0x9f
 5662 0370 00000000 		.4byte	0
 5663 0374 00000000 		.4byte	0
 5664              	.LLST21:
 5665 0378 3A000000 		.4byte	.LVL116
 5666 037c 3D000000 		.4byte	.LVL117-1
 5667 0380 0100     		.2byte	0x1
 5668 0382 50       		.byte	0x50
 5669 0383 00000000 		.4byte	0
 5670 0387 00000000 		.4byte	0
 5671              	.LLST22:
 5672 038b 8A000000 		.4byte	.LVL123
 5673 038f BE000000 		.4byte	.LVL129
 5674 0393 0100     		.2byte	0x1
 5675 0395 55       		.byte	0x55
 5676 0396 00000000 		.4byte	0
 5677 039a 00000000 		.4byte	0
 5678              	.LLST23:
 5679 039e 1C000000 		.4byte	.LVL114
 5680 03a2 33000000 		.4byte	.LVL115-1
 5681 03a6 0100     		.2byte	0x1
 5682 03a8 50       		.byte	0x50
 5683 03a9 00000000 		.4byte	0
 5684 03ad 00000000 		.4byte	0
 5685              	.LLST24:
 5686 03b1 00000000 		.4byte	.LVL135
 5687 03b5 19000000 		.4byte	.LVL137-1
 5688 03b9 0100     		.2byte	0x1
 5689 03bb 50       		.byte	0x50
 5690 03bc 19000000 		.4byte	.LVL137-1
 5691 03c0 24000000 		.4byte	.LFE42
 5692 03c4 0400     		.2byte	0x4
 5693 03c6 F3       		.byte	0xf3
ARM GAS  C:\Users\PRICHA~1\AppData\Local\Temp\cctE1isk.s 			page 129


 5694 03c7 01       		.uleb128 0x1
 5695 03c8 50       		.byte	0x50
 5696 03c9 9F       		.byte	0x9f
 5697 03ca 00000000 		.4byte	0
 5698 03ce 00000000 		.4byte	0
 5699              	.LLST25:
 5700 03d2 0A000000 		.4byte	.LVL136
 5701 03d6 1E000000 		.4byte	.LVL138
 5702 03da 0100     		.2byte	0x1
 5703 03dc 54       		.byte	0x54
 5704 03dd 1E000000 		.4byte	.LVL138
 5705 03e1 24000000 		.4byte	.LFE42
 5706 03e5 0500     		.2byte	0x5
 5707 03e7 03       		.byte	0x3
 5708 03e8 00000000 		.4byte	inAuto
 5709 03ec 00000000 		.4byte	0
 5710 03f0 00000000 		.4byte	0
 5711              	.LLST26:
 5712 03f4 00000000 		.4byte	.LVL139
 5713 03f8 07000000 		.4byte	.LVL140-1
 5714 03fc 0100     		.2byte	0x1
 5715 03fe 50       		.byte	0x50
 5716 03ff 07000000 		.4byte	.LVL140-1
 5717 0403 1C000000 		.4byte	.LFE43
 5718 0407 0600     		.2byte	0x6
 5719 0409 F3       		.byte	0xf3
 5720 040a 03       		.uleb128 0x3
 5721 040b F5       		.byte	0xf5
 5722 040c 00       		.uleb128 0
 5723 040d 25       		.uleb128 0x25
 5724 040e 9F       		.byte	0x9f
 5725 040f 00000000 		.4byte	0
 5726 0413 00000000 		.4byte	0
 5727              	.LLST27:
 5728 0417 10000000 		.4byte	.LVL141
 5729 041b 13000000 		.4byte	.LVL142-1
 5730 041f 0100     		.2byte	0x1
 5731 0421 50       		.byte	0x50
 5732 0422 00000000 		.4byte	0
 5733 0426 00000000 		.4byte	0
 5734              	.LLST28:
 5735 042a 00000000 		.4byte	.LVL143
 5736 042e 04000000 		.4byte	.LVL145
 5737 0432 0100     		.2byte	0x1
 5738 0434 50       		.byte	0x50
 5739 0435 04000000 		.4byte	.LVL145
 5740 0439 E0010000 		.4byte	.LFE44
 5741 043d 0400     		.2byte	0x4
 5742 043f F3       		.byte	0xf3
 5743 0440 01       		.uleb128 0x1
 5744 0441 50       		.byte	0x50
 5745 0442 9F       		.byte	0x9f
 5746 0443 00000000 		.4byte	0
 5747 0447 00000000 		.4byte	0
 5748              	.LLST29:
 5749 044b 48000000 		.4byte	.LVL150
 5750 044f 56000000 		.4byte	.LVL151
ARM GAS  C:\Users\PRICHA~1\AppData\Local\Temp\cctE1isk.s 			page 130


 5751 0453 0200     		.2byte	0x2
 5752 0455 30       		.byte	0x30
 5753 0456 9F       		.byte	0x9f
 5754 0457 6A000000 		.4byte	.LVL155
 5755 045b 7E000000 		.4byte	.LVL156
 5756 045f 0100     		.2byte	0x1
 5757 0461 50       		.byte	0x50
 5758 0462 7E000000 		.4byte	.LVL156
 5759 0466 8E000000 		.4byte	.LVL158
 5760 046a 0100     		.2byte	0x1
 5761 046c 54       		.byte	0x54
 5762 046d 8E000000 		.4byte	.LVL158
 5763 0471 98000000 		.4byte	.LVL159
 5764 0475 0100     		.2byte	0x1
 5765 0477 50       		.byte	0x50
 5766 0478 98000000 		.4byte	.LVL159
 5767 047c E0010000 		.4byte	.LFE44
 5768 0480 0100     		.2byte	0x1
 5769 0482 54       		.byte	0x54
 5770 0483 00000000 		.4byte	0
 5771 0487 00000000 		.4byte	0
 5772              	.LLST30:
 5773 048b 5E010000 		.4byte	.LVL176
 5774 048f 6B010000 		.4byte	.LVL177-1
 5775 0493 0100     		.2byte	0x1
 5776 0495 50       		.byte	0x50
 5777 0496 6E010000 		.4byte	.LVL178
 5778 049a 74010000 		.4byte	.LVL179
 5779 049e 0100     		.2byte	0x1
 5780 04a0 50       		.byte	0x50
 5781 04a1 00000000 		.4byte	0
 5782 04a5 00000000 		.4byte	0
 5783              	.LLST31:
 5784 04a9 F4000000 		.4byte	.LVL166
 5785 04ad FA000000 		.4byte	.LVL167
 5786 04b1 0100     		.2byte	0x1
 5787 04b3 50       		.byte	0x50
 5788 04b4 00000000 		.4byte	0
 5789 04b8 00000000 		.4byte	0
 5790              	.LLST32:
 5791 04bc 00010000 		.4byte	.LVL168
 5792 04c0 22010000 		.4byte	.LVL173
 5793 04c4 0100     		.2byte	0x1
 5794 04c6 55       		.byte	0x55
 5795 04c7 00000000 		.4byte	0
 5796 04cb 00000000 		.4byte	0
 5797              	.LLST33:
 5798 04cf 06010000 		.4byte	.LVL170
 5799 04d3 10010000 		.4byte	.LVL171
 5800 04d7 0100     		.2byte	0x1
 5801 04d9 50       		.byte	0x50
 5802 04da 10010000 		.4byte	.LVL171
 5803 04de 22010000 		.4byte	.LVL173
 5804 04e2 0100     		.2byte	0x1
 5805 04e4 56       		.byte	0x56
 5806 04e5 00000000 		.4byte	0
 5807 04e9 00000000 		.4byte	0
ARM GAS  C:\Users\PRICHA~1\AppData\Local\Temp\cctE1isk.s 			page 131


 5808              	.LLST34:
 5809 04ed 5C000000 		.4byte	.LVL190
 5810 04f1 60000000 		.4byte	.LVL191
 5811 04f5 0100     		.2byte	0x1
 5812 04f7 54       		.byte	0x54
 5813 04f8 62000000 		.4byte	.LVL192
 5814 04fc 72000000 		.4byte	.LVL195
 5815 0500 0100     		.2byte	0x1
 5816 0502 54       		.byte	0x54
 5817 0503 00000000 		.4byte	0
 5818 0507 00000000 		.4byte	0
 5819              		.section	.debug_aranges,"",%progbits
 5820 0000 9C000000 		.4byte	0x9c
 5821 0004 0200     		.2byte	0x2
 5822 0006 00000000 		.4byte	.Ldebug_info0
 5823 000a 04       		.byte	0x4
 5824 000b 00       		.byte	0
 5825 000c 0000     		.2byte	0
 5826 000e 0000     		.2byte	0
 5827 0010 00000000 		.4byte	.LFB46
 5828 0014 18000000 		.4byte	.LFE46-.LFB46
 5829 0018 00000000 		.4byte	.LFB47
 5830 001c 12000000 		.4byte	.LFE47-.LFB47
 5831 0020 00000000 		.4byte	.LFB48
 5832 0024 5C000000 		.4byte	.LFE48-.LFB48
 5833 0028 00000000 		.4byte	.LFB32
 5834 002c 28000000 		.4byte	.LFE32-.LFB32
 5835 0030 00000000 		.4byte	.LFB33
 5836 0034 1C000000 		.4byte	.LFE33-.LFB33
 5837 0038 00000000 		.4byte	.LFB35
 5838 003c D8000000 		.4byte	.LFE35-.LFB35
 5839 0040 00000000 		.4byte	.LFB34
 5840 0044 1C000000 		.4byte	.LFE34-.LFB34
 5841 0048 00000000 		.4byte	.LFB37
 5842 004c 40000000 		.4byte	.LFE37-.LFB37
 5843 0050 00000000 		.4byte	.LFB38
 5844 0054 24000000 		.4byte	.LFE38-.LFB38
 5845 0058 00000000 		.4byte	.LFB36
 5846 005c C0020000 		.4byte	.LFE36-.LFB36
 5847 0060 00000000 		.4byte	.LFB39
 5848 0064 24000000 		.4byte	.LFE39-.LFB39
 5849 0068 00000000 		.4byte	.LFB40
 5850 006c 44000000 		.4byte	.LFE40-.LFB40
 5851 0070 00000000 		.4byte	.LFB41
 5852 0074 38010000 		.4byte	.LFE41-.LFB41
 5853 0078 00000000 		.4byte	.LFB42
 5854 007c 24000000 		.4byte	.LFE42-.LFB42
 5855 0080 00000000 		.4byte	.LFB43
 5856 0084 1C000000 		.4byte	.LFE43-.LFB43
 5857 0088 00000000 		.4byte	.LFB44
 5858 008c E0010000 		.4byte	.LFE44-.LFB44
 5859 0090 00000000 		.4byte	.LFB45
 5860 0094 40010000 		.4byte	.LFE45-.LFB45
 5861 0098 00000000 		.4byte	0
 5862 009c 00000000 		.4byte	0
 5863              		.section	.debug_ranges,"",%progbits
 5864              	.Ldebug_ranges0:
ARM GAS  C:\Users\PRICHA~1\AppData\Local\Temp\cctE1isk.s 			page 132


 5865 0000 00000000 		.4byte	.LFB46
 5866 0004 18000000 		.4byte	.LFE46
 5867 0008 00000000 		.4byte	.LFB47
 5868 000c 12000000 		.4byte	.LFE47
 5869 0010 00000000 		.4byte	.LFB48
 5870 0014 5C000000 		.4byte	.LFE48
 5871 0018 00000000 		.4byte	.LFB32
 5872 001c 28000000 		.4byte	.LFE32
 5873 0020 00000000 		.4byte	.LFB33
 5874 0024 1C000000 		.4byte	.LFE33
 5875 0028 00000000 		.4byte	.LFB35
 5876 002c D8000000 		.4byte	.LFE35
 5877 0030 00000000 		.4byte	.LFB34
 5878 0034 1C000000 		.4byte	.LFE34
 5879 0038 00000000 		.4byte	.LFB37
 5880 003c 40000000 		.4byte	.LFE37
 5881 0040 00000000 		.4byte	.LFB38
 5882 0044 24000000 		.4byte	.LFE38
 5883 0048 00000000 		.4byte	.LFB36
 5884 004c C0020000 		.4byte	.LFE36
 5885 0050 00000000 		.4byte	.LFB39
 5886 0054 24000000 		.4byte	.LFE39
 5887 0058 00000000 		.4byte	.LFB40
 5888 005c 44000000 		.4byte	.LFE40
 5889 0060 00000000 		.4byte	.LFB41
 5890 0064 38010000 		.4byte	.LFE41
 5891 0068 00000000 		.4byte	.LFB42
 5892 006c 24000000 		.4byte	.LFE42
 5893 0070 00000000 		.4byte	.LFB43
 5894 0074 1C000000 		.4byte	.LFE43
 5895 0078 00000000 		.4byte	.LFB44
 5896 007c E0010000 		.4byte	.LFE44
 5897 0080 00000000 		.4byte	.LFB45
 5898 0084 40010000 		.4byte	.LFE45
 5899 0088 00000000 		.4byte	0
 5900 008c 00000000 		.4byte	0
 5901              		.section	.debug_line,"",%progbits
 5902              	.Ldebug_line0:
 5903 0000 3A050000 		.section	.debug_str,"MS",%progbits,1
 5903      02009902 
 5903      00000201 
 5903      FB0E0D00 
 5903      01010101 
 5904              	.LASF96:
 5905 0000 43757272 		.ascii	"Current_Read_Task\000"
 5905      656E745F 
 5905      52656164 
 5905      5F546173 
 5905      6B00
 5906              	.LASF121:
 5907 0012 43757272 		.ascii	"CurrentPosition\000"
 5907      656E7450 
 5907      6F736974 
 5907      696F6E00 
 5908              	.LASF155:
 5909 0022 72784D65 		.ascii	"rxMessage\000"
 5909      73736167 
ARM GAS  C:\Users\PRICHA~1\AppData\Local\Temp\cctE1isk.s 			page 133


 5909      6500
 5910              	.LASF205:
 5911 002c 6D61696E 		.ascii	"main.c\000"
 5911      2E6300
 5912              	.LASF141:
 5913 0033 70776D4C 		.ascii	"pwmLimit\000"
 5913      696D6974 
 5913      00
 5914              	.LASF81:
 5915 003c 74786D73 		.ascii	"txmsClear\000"
 5915      436C6561 
 5915      7200
 5916              	.LASF153:
 5917 0046 4C6F636B 		.ascii	"Lock\000"
 5917      00
 5918              	.LASF43:
 5919 004b 6673456E 		.ascii	"fsEncoder\000"
 5919      636F6465 
 5919      7200
 5920              	.LASF37:
 5921 0055 6373556E 		.ascii	"csUnconfig\000"
 5921      636F6E66 
 5921      696700
 5922              	.LASF115:
 5923 0060 6E657741 		.ascii	"newAuto\000"
 5923      75746F00 
 5924              	.LASF173:
 5925 0068 4932435F 		.ascii	"I2C_I2CMasterWriteByte\000"
 5925      4932434D 
 5925      61737465 
 5925      72577269 
 5925      74654279 
 5926              	.LASF1:
 5927 007f 756E7369 		.ascii	"unsigned int\000"
 5927      676E6564 
 5927      20696E74 
 5927      00
 5928              	.LASF148:
 5929 008c 43757272 		.ascii	"Current\000"
 5929      656E7400 
 5930              	.LASF199:
 5931 0094 50574D5F 		.ascii	"PWM_1_Start\000"
 5931      315F5374 
 5931      61727400 
 5932              	.LASF67:
 5933 00a0 636C6561 		.ascii	"clearfaults\000"
 5933      72666175 
 5933      6C747300 
 5934              	.LASF19:
 5935 00ac 696E7431 		.ascii	"int16\000"
 5935      3600
 5936              	.LASF107:
 5937 00b2 6E65774B 		.ascii	"newKd\000"
 5937      6400
 5938              	.LASF106:
 5939 00b8 6E65774B 		.ascii	"newKi\000"
 5939      6900
ARM GAS  C:\Users\PRICHA~1\AppData\Local\Temp\cctE1isk.s 			page 134


 5940              	.LASF105:
 5941 00be 6E65774B 		.ascii	"newKp\000"
 5941      7000
 5942              	.LASF163:
 5943 00c4 484F4D45 		.ascii	"HOME_IN_ClearInterrupt\000"
 5943      5F494E5F 
 5943      436C6561 
 5943      72496E74 
 5943      65727275 
 5944              	.LASF101:
 5945 00db 6C696D69 		.ascii	"limit\000"
 5945      7400
 5946              	.LASF189:
 5947 00e1 4C45445F 		.ascii	"LED_Write\000"
 5947      57726974 
 5947      6500
 5948              	.LASF85:
 5949 00eb 486F6D65 		.ascii	"HomeIsrHandler\000"
 5949      49737248 
 5949      616E646C 
 5949      657200
 5950              	.LASF83:
 5951 00fa 74784D65 		.ascii	"txMessageStates_t\000"
 5951      73736167 
 5951      65537461 
 5951      7465735F 
 5951      7400
 5952              	.LASF110:
 5953 010c 6572726F 		.ascii	"error\000"
 5953      7200
 5954              	.LASF175:
 5955 0112 4932435F 		.ascii	"I2C_I2CMasterReadBuf\000"
 5955      4932434D 
 5955      61737465 
 5955      72526561 
 5955      64427566 
 5956              	.LASF92:
 5957 0127 436C6561 		.ascii	"ClearFault\000"
 5957      72466175 
 5957      6C7400
 5958              	.LASF29:
 5959 0132 50656E64 		.ascii	"PendSV_IRQn\000"
 5959      53565F49 
 5959      52516E00 
 5960              	.LASF197:
 5961 013e 4932435F 		.ascii	"I2C_Start\000"
 5961      53746172 
 5961      7400
 5962              	.LASF126:
 5963 0148 4C617374 		.ascii	"LastJog\000"
 5963      4A6F6700 
 5964              	.LASF38:
 5965 0150 63735265 		.ascii	"csReady\000"
 5965      61647900 
 5966              	.LASF169:
 5967 0158 5350495F 		.ascii	"SPI_1_SpiUartClearTxBuffer\000"
 5967      315F5370 
ARM GAS  C:\Users\PRICHA~1\AppData\Local\Temp\cctE1isk.s 			page 135


 5967      69556172 
 5967      74436C65 
 5967      61725478 
 5968              	.LASF14:
 5969 0173 75696E74 		.ascii	"uint32_t\000"
 5969      33325F74 
 5969      00
 5970              	.LASF56:
 5971 017c 72784D65 		.ascii	"rxMessage_opcodes_t\000"
 5971      73736167 
 5971      655F6F70 
 5971      636F6465 
 5971      735F7400 
 5972              	.LASF68:
 5973 0190 72784D65 		.ascii	"rxMessage_status_t\000"
 5973      73736167 
 5973      655F7374 
 5973      61747573 
 5973      5F7400
 5974              	.LASF88:
 5975 01a3 41737365 		.ascii	"AssertFault\000"
 5975      72744661 
 5975      756C7400 
 5976              	.LASF0:
 5977 01af 666C6F61 		.ascii	"float\000"
 5977      7400
 5978              	.LASF193:
 5979 01b5 6973725F 		.ascii	"isr_spi_ss_StartEx\000"
 5979      7370695F 
 5979      73735F53 
 5979      74617274 
 5979      457800
 5980              	.LASF57:
 5981 01c8 63686563 		.ascii	"checksum\000"
 5981      6B73756D 
 5981      00
 5982              	.LASF20:
 5983 01d1 696E7433 		.ascii	"int32\000"
 5983      3200
 5984              	.LASF185:
 5985 01d7 494E4445 		.ascii	"INDEX_OUT_SetDriveMode\000"
 5985      585F4F55 
 5985      545F5365 
 5985      74447269 
 5985      76654D6F 
 5986              	.LASF165:
 5987 01ee 7370695F 		.ascii	"spi_ss_Read\000"
 5987      73735F52 
 5987      65616400 
 5988              	.LASF99:
 5989 01fa 72657375 		.ascii	"result\000"
 5989      6C7400
 5990              	.LASF12:
 5991 0201 6C6F6E67 		.ascii	"long long unsigned int\000"
 5991      206C6F6E 
 5991      6720756E 
 5991      7369676E 
ARM GAS  C:\Users\PRICHA~1\AppData\Local\Temp\cctE1isk.s 			page 136


 5991      65642069 
 5992              	.LASF87:
 5993 0218 73657475 		.ascii	"setupFreeRTOS\000"
 5993      70467265 
 5993      6552544F 
 5993      5300
 5994              	.LASF130:
 5995 0226 6C617374 		.ascii	"lastTime\000"
 5995      54696D65 
 5995      00
 5996              	.LASF143:
 5997 022f 70776D4D 		.ascii	"pwmMin\000"
 5997      696E00
 5998              	.LASF161:
 5999 0236 496E6465 		.ascii	"Index_Counter_1_WriteCounter\000"
 5999      785F436F 
 5999      756E7465 
 5999      725F315F 
 5999      57726974 
 6000              	.LASF132:
 6001 0253 49546572 		.ascii	"ITerm\000"
 6001      6D00
 6002              	.LASF89:
 6003 0259 62797465 		.ascii	"byteMSB\000"
 6003      4D534200 
 6004              	.LASF65:
 6005 0261 656E6162 		.ascii	"enable\000"
 6005      6C6500
 6006              	.LASF171:
 6007 0268 75785461 		.ascii	"uxTaskGetStackHighWaterMark\000"
 6007      736B4765 
 6007      74537461 
 6007      636B4869 
 6007      67685761 
 6008              	.LASF200:
 6009 0284 50574D5F 		.ascii	"PWM_1_WritePeriod\000"
 6009      315F5772 
 6009      69746550 
 6009      6572696F 
 6009      6400
 6010              	.LASF144:
 6011 0296 436F6E66 		.ascii	"ConfigState\000"
 6011      69675374 
 6011      61746500 
 6012              	.LASF204:
 6013 02a2 474E5520 		.ascii	"GNU C11 5.4.1 20160609 (release) [ARM/embedded-5-br"
 6013      43313120 
 6013      352E342E 
 6013      31203230 
 6013      31363036 
 6014 02d5 616E6368 		.ascii	"anch revision 237715] -mcpu=cortex-m0 -mthumb -g -O"
 6014      20726576 
 6014      6973696F 
 6014      6E203233 
 6014      37373135 
 6015 0308 67202D66 		.ascii	"g -ffunction-sections -ffat-lto-objects\000"
 6015      66756E63 
ARM GAS  C:\Users\PRICHA~1\AppData\Local\Temp\cctE1isk.s 			page 137


 6015      74696F6E 
 6015      2D736563 
 6015      74696F6E 
 6016              	.LASF63:
 6017 0330 6C696D69 		.ascii	"limit_ITerm\000"
 6017      745F4954 
 6017      65726D00 
 6018              	.LASF139:
 6019 033c 6F75744D 		.ascii	"outMax_Total\000"
 6019      61785F54 
 6019      6F74616C 
 6019      00
 6020              	.LASF117:
 6021 0349 5049445F 		.ascii	"PID_SetDrive\000"
 6021      53657444 
 6021      72697665 
 6021      00
 6022              	.LASF176:
 6023 0356 76546173 		.ascii	"vTaskDelay\000"
 6023      6B44656C 
 6023      617900
 6024              	.LASF116:
 6025 0361 5F426F6F 		.ascii	"_Bool\000"
 6025      6C00
 6026              	.LASF42:
 6027 0367 6673556E 		.ascii	"fsUnconfigured\000"
 6027      636F6E66 
 6027      69677572 
 6027      656400
 6028              	.LASF125:
 6029 0376 696E4175 		.ascii	"inAuto\000"
 6029      746F00
 6030              	.LASF95:
 6031 037d 64726976 		.ascii	"drive\000"
 6031      6500
 6032              	.LASF179:
 6033 0383 78517565 		.ascii	"xQueueSemaphoreTake\000"
 6033      75655365 
 6033      6D617068 
 6033      6F726554 
 6033      616B6500 
 6034              	.LASF180:
 6035 0397 5350495F 		.ascii	"SPI_1_SpiUartPutArray\000"
 6035      315F5370 
 6035      69556172 
 6035      74507574 
 6035      41727261 
 6036              	.LASF164:
 6037 03ad 7370695F 		.ascii	"spi_ss_ClearInterrupt\000"
 6037      73735F43 
 6037      6C656172 
 6037      496E7465 
 6037      72727570 
 6038              	.LASF91:
 6039 03c3 43757272 		.ascii	"CurrentTemp\000"
 6039      656E7454 
 6039      656D7000 
ARM GAS  C:\Users\PRICHA~1\AppData\Local\Temp\cctE1isk.s 			page 138


 6040              	.LASF178:
 6041 03cf 436F756E 		.ascii	"Counter_1_ReadCounter\000"
 6041      7465725F 
 6041      315F5265 
 6041      6164436F 
 6041      756E7465 
 6042              	.LASF181:
 6043 03e5 78517565 		.ascii	"xQueueGenericSend\000"
 6043      75654765 
 6043      6E657269 
 6043      6353656E 
 6043      6400
 6044              	.LASF72:
 6045 03f7 76657273 		.ascii	"version0\000"
 6045      696F6E30 
 6045      00
 6046              	.LASF73:
 6047 0400 76657273 		.ascii	"version1\000"
 6047      696F6E31 
 6047      00
 6048              	.LASF74:
 6049 0409 76657273 		.ascii	"version2\000"
 6049      696F6E32 
 6049      00
 6050              	.LASF60:
 6051 0412 72784D65 		.ascii	"rxMessage_overlay_t\000"
 6051      73736167 
 6051      655F6F76 
 6051      65726C61 
 6051      795F7400 
 6052              	.LASF195:
 6053 0426 6973725F 		.ascii	"isr_rst_encoder_SetPriority\000"
 6053      7273745F 
 6053      656E636F 
 6053      6465725F 
 6053      53657450 
 6054              	.LASF133:
 6055 0442 506F7369 		.ascii	"Position\000"
 6055      74696F6E 
 6055      00
 6056              	.LASF22:
 6057 044b 63686172 		.ascii	"char\000"
 6057      00
 6058              	.LASF32:
 6059 0450 55426173 		.ascii	"UBaseType_t\000"
 6059      65547970 
 6059      655F7400 
 6060              	.LASF69:
 6061 045c 6F766572 		.ascii	"overlay\000"
 6061      6C617900 
 6062              	.LASF113:
 6063 0464 5049445F 		.ascii	"PID_SetMode\000"
 6063      5365744D 
 6063      6F646500 
 6064              	.LASF93:
 6065 0470 50574D5F 		.ascii	"PWM_Set\000"
 6065      53657400 
ARM GAS  C:\Users\PRICHA~1\AppData\Local\Temp\cctE1isk.s 			page 139


 6066              	.LASF168:
 6067 0478 5350495F 		.ascii	"SPI_1_SpiUartClearRxBuffer\000"
 6067      315F5370 
 6067      69556172 
 6067      74436C65 
 6067      61725278 
 6068              	.LASF190:
 6069 0493 43794465 		.ascii	"CyDelay\000"
 6069      6C617900 
 6070              	.LASF16:
 6071 049b 75696E74 		.ascii	"uint16\000"
 6071      313600
 6072              	.LASF18:
 6073 04a2 696E7438 		.ascii	"int8\000"
 6073      00
 6074              	.LASF59:
 6075 04a7 6F70636F 		.ascii	"opcode\000"
 6075      646500
 6076              	.LASF34:
 6077 04ae 51756575 		.ascii	"QueueHandle_t\000"
 6077      6548616E 
 6077      646C655F 
 6077      7400
 6078              	.LASF187:
 6079 04bc 78546173 		.ascii	"xTaskCreate\000"
 6079      6B437265 
 6079      61746500 
 6080              	.LASF13:
 6081 04c8 75696E74 		.ascii	"uint8_t\000"
 6081      385F7400 
 6082              	.LASF71:
 6083 04d0 73746174 		.ascii	"status\000"
 6083      757300
 6084              	.LASF44:
 6085 04d7 6673496E 		.ascii	"fsIndex\000"
 6085      64657800 
 6086              	.LASF177:
 6087 04df 50574D5F 		.ascii	"PWM_1_WriteCompare\000"
 6087      315F5772 
 6087      69746543 
 6087      6F6D7061 
 6087      726500
 6088              	.LASF41:
 6089 04f2 66734E4F 		.ascii	"fsNONE\000"
 6089      4E4500
 6090              	.LASF158:
 6091 04f9 6973725F 		.ascii	"isr_rst_encoder_ClearPending\000"
 6091      7273745F 
 6091      656E636F 
 6091      6465725F 
 6091      436C6561 
 6092              	.LASF174:
 6093 0516 4932435F 		.ascii	"I2C_I2CMasterSendStop\000"
 6093      4932434D 
 6093      61737465 
 6093      7253656E 
 6093      6453746F 
ARM GAS  C:\Users\PRICHA~1\AppData\Local\Temp\cctE1isk.s 			page 140


 6094              	.LASF188:
 6095 052c 78517565 		.ascii	"xQueueCreateMutex\000"
 6095      75654372 
 6095      65617465 
 6095      4D757465 
 6095      7800
 6096              	.LASF196:
 6097 053e 6973725F 		.ascii	"isr_spi_ss_SetPriority\000"
 6097      7370695F 
 6097      73735F53 
 6097      65745072 
 6097      696F7269 
 6098              	.LASF166:
 6099 0555 78546173 		.ascii	"xTaskGetTickCount\000"
 6099      6B476574 
 6099      5469636B 
 6099      436F756E 
 6099      7400
 6100              	.LASF112:
 6101 0567 74696D65 		.ascii	"timeChange\000"
 6101      4368616E 
 6101      676500
 6102              	.LASF2:
 6103 0572 6C6F6E67 		.ascii	"long long int\000"
 6103      206C6F6E 
 6103      6720696E 
 6103      7400
 6104              	.LASF46:
 6105 0580 66734368 		.ascii	"fsChecksum\000"
 6105      65636B73 
 6105      756D00
 6106              	.LASF31:
 6107 058b 42617365 		.ascii	"BaseType_t\000"
 6107      54797065 
 6107      5F7400
 6108              	.LASF54:
 6109 0596 6F704572 		.ascii	"opError\000"
 6109      726F7200 
 6110              	.LASF120:
 6111 059e 736C6565 		.ascii	"sleeptime\000"
 6111      7074696D 
 6111      6500
 6112              	.LASF183:
 6113 05a8 43795379 		.ascii	"CySysWdtResetCounters\000"
 6113      73576474 
 6113      52657365 
 6113      74436F75 
 6113      6E746572 
 6114              	.LASF208:
 6115 05be 6D656D73 		.ascii	"memset\000"
 6115      657400
 6116              	.LASF24:
 6117 05c5 63796973 		.ascii	"cyisraddress\000"
 6117      72616464 
 6117      72657373 
 6117      00
 6118              	.LASF77:
ARM GAS  C:\Users\PRICHA~1\AppData\Local\Temp\cctE1isk.s 			page 141


 6119 05d2 63686563 		.ascii	"checksum_errors\000"
 6119      6B73756D 
 6119      5F657272 
 6119      6F727300 
 6120              	.LASF58:
 6121 05e2 73697A65 		.ascii	"size\000"
 6121      00
 6122              	.LASF17:
 6123 05e7 75696E74 		.ascii	"uint32\000"
 6123      333200
 6124              	.LASF82:
 6125 05ee 74786D73 		.ascii	"txmsLoaded\000"
 6125      4C6F6164 
 6125      656400
 6126              	.LASF149:
 6127 05f9 43757272 		.ascii	"CurrentI2Cinbuf\000"
 6127      656E7449 
 6127      3243696E 
 6127      62756600 
 6128              	.LASF138:
 6129 0609 72656653 		.ascii	"refSampleTime\000"
 6129      616D706C 
 6129      6554696D 
 6129      6500
 6130              	.LASF134:
 6131 0617 4C617374 		.ascii	"LastPosition\000"
 6131      506F7369 
 6131      74696F6E 
 6131      00
 6132              	.LASF156:
 6133 0624 74784D65 		.ascii	"txMessage\000"
 6133      73736167 
 6133      6500
 6134              	.LASF160:
 6135 062e 436F756E 		.ascii	"Counter_1_WriteCounter\000"
 6135      7465725F 
 6135      315F5772 
 6135      69746543 
 6135      6F756E74 
 6136              	.LASF154:
 6137 0645 4C617374 		.ascii	"LastMessageTimeTick\000"
 6137      4D657373 
 6137      61676554 
 6137      696D6554 
 6137      69636B00 
 6138              	.LASF86:
 6139 0659 5350495F 		.ascii	"SPI_SS_IsrHandler\000"
 6139      53535F49 
 6139      73724861 
 6139      6E646C65 
 6139      7200
 6140              	.LASF151:
 6141 066b 75784869 		.ascii	"uxHighWaterMark_Current\000"
 6141      67685761 
 6141      7465724D 
 6141      61726B5F 
 6141      43757272 
ARM GAS  C:\Users\PRICHA~1\AppData\Local\Temp\cctE1isk.s 			page 142


 6142              	.LASF33:
 6143 0683 5469636B 		.ascii	"TickType_t\000"
 6143      54797065 
 6143      5F7400
 6144              	.LASF40:
 6145 068e 436F6E66 		.ascii	"ConfigStates_t\000"
 6145      69675374 
 6145      61746573 
 6145      5F7400
 6146              	.LASF103:
 6147 069d 5049445F 		.ascii	"PID_SetTunings\000"
 6147      53657454 
 6147      756E696E 
 6147      677300
 6148              	.LASF3:
 6149 06ac 6C6F6E67 		.ascii	"long double\000"
 6149      20646F75 
 6149      626C6500 
 6150              	.LASF207:
 6151 06b8 4952516E 		.ascii	"IRQn\000"
 6151      00
 6152              	.LASF23:
 6153 06bd 72656733 		.ascii	"reg32\000"
 6153      3200
 6154              	.LASF36:
 6155 06c3 6373554E 		.ascii	"csUNDEFINED\000"
 6155      44454649 
 6155      4E454400 
 6156              	.LASF109:
 6157 06cf 5049445F 		.ascii	"PID_Compute\000"
 6157      436F6D70 
 6157      75746500 
 6158              	.LASF104:
 6159 06db 6E657753 		.ascii	"newSampleTime\000"
 6159      616D706C 
 6159      6554696D 
 6159      6500
 6160              	.LASF61:
 6161 06e9 73657175 		.ascii	"sequence\000"
 6161      656E6365 
 6161      00
 6162              	.LASF131:
 6163 06f2 4F757470 		.ascii	"Output\000"
 6163      757400
 6164              	.LASF70:
 6165 06f9 636F6E66 		.ascii	"config\000"
 6165      696700
 6166              	.LASF45:
 6167 0700 66734375 		.ascii	"fsCurrentRead\000"
 6167      7272656E 
 6167      74526561 
 6167      6400
 6168              	.LASF6:
 6169 070e 73686F72 		.ascii	"short int\000"
 6169      7420696E 
 6169      7400
 6170              	.LASF111:
ARM GAS  C:\Users\PRICHA~1\AppData\Local\Temp\cctE1isk.s 			page 143


 6171 0718 64506F73 		.ascii	"dPosition\000"
 6171      6974696F 
 6171      6E00
 6172              	.LASF64:
 6173 0722 72784D65 		.ascii	"rxMessage_config_t\000"
 6173      73736167 
 6173      655F636F 
 6173      6E666967 
 6173      5F7400
 6174              	.LASF128:
 6175 0735 5049445F 		.ascii	"PID_Was_Enabled\000"
 6175      5761735F 
 6175      456E6162 
 6175      6C656400 
 6176              	.LASF127:
 6177 0745 5049445F 		.ascii	"PID_Enabled\000"
 6177      456E6162 
 6177      6C656400 
 6178              	.LASF114:
 6179 0751 4D6F6465 		.ascii	"Mode\000"
 6179      00
 6180              	.LASF8:
 6181 0756 6C6F6E67 		.ascii	"long int\000"
 6181      20696E74 
 6181      00
 6182              	.LASF39:
 6183 075f 63734D41 		.ascii	"csMAX\000"
 6183      5800
 6184              	.LASF108:
 6185 0765 73616D70 		.ascii	"sampleTimeInSec\000"
 6185      6C655469 
 6185      6D65496E 
 6185      53656300 
 6186              	.LASF170:
 6187 0775 4379496E 		.ascii	"CyIntSetSysVector\000"
 6187      74536574 
 6187      53797356 
 6187      6563746F 
 6187      7200
 6188              	.LASF26:
 6189 0787 4E6F6E4D 		.ascii	"NonMaskableInt_IRQn\000"
 6189      61736B61 
 6189      626C6549 
 6189      6E745F49 
 6189      52516E00 
 6190              	.LASF35:
 6191 079b 53656D61 		.ascii	"SemaphoreHandle_t\000"
 6191      70686F72 
 6191      6548616E 
 6191      646C655F 
 6191      7400
 6192              	.LASF157:
 6193 07ad 74784D65 		.ascii	"txMessageState\000"
 6193      73736167 
 6193      65537461 
 6193      746500
 6194              	.LASF184:
ARM GAS  C:\Users\PRICHA~1\AppData\Local\Temp\cctE1isk.s 			page 144


 6195 07bc 484F4D45 		.ascii	"HOME_OUT_SetDriveMode\000"
 6195      5F4F5554 
 6195      5F536574 
 6195      44726976 
 6195      654D6F64 
 6196              	.LASF98:
 6197 07d2 52617750 		.ascii	"RawPosition\000"
 6197      6F736974 
 6197      696F6E00 
 6198              	.LASF80:
 6199 07de 74784D65 		.ascii	"txMessage_t\000"
 6199      73736167 
 6199      655F7400 
 6200              	.LASF66:
 6201 07ea 73657470 		.ascii	"setpoint\000"
 6201      6F696E74 
 6201      00
 6202              	.LASF97:
 6203 07f3 47657450 		.ascii	"GetPosition\000"
 6203      6F736974 
 6203      696F6E00 
 6204              	.LASF140:
 6205 07ff 6F75744D 		.ascii	"outMax_ITerm\000"
 6205      61785F49 
 6205      5465726D 
 6205      00
 6206              	.LASF150:
 6207 080c 75784869 		.ascii	"uxHighWaterMark_PID\000"
 6207      67685761 
 6207      7465724D 
 6207      61726B5F 
 6207      50494400 
 6208              	.LASF142:
 6209 0820 70776D4D 		.ascii	"pwmMax\000"
 6209      617800
 6210              	.LASF129:
 6211 0827 5049445F 		.ascii	"PID_Setpoint\000"
 6211      53657470 
 6211      6F696E74 
 6211      00
 6212              	.LASF9:
 6213 0834 5F5F7569 		.ascii	"__uint8_t\000"
 6213      6E74385F 
 6213      7400
 6214              	.LASF53:
 6215 083e 6F705374 		.ascii	"opStatus\000"
 6215      61747573 
 6215      00
 6216              	.LASF167:
 6217 0847 5350495F 		.ascii	"SPI_1_SpiUartReadRxData\000"
 6217      315F5370 
 6217      69556172 
 6217      74526561 
 6217      64527844 
 6218              	.LASF172:
 6219 085f 4932435F 		.ascii	"I2C_I2CMasterSendStart\000"
 6219      4932434D 
ARM GAS  C:\Users\PRICHA~1\AppData\Local\Temp\cctE1isk.s 			page 145


 6219      61737465 
 6219      7253656E 
 6219      64537461 
 6220              	.LASF55:
 6221 0876 6F704D41 		.ascii	"opMAX\000"
 6221      5800
 6222              	.LASF100:
 6223 087c 436F6D6D 		.ascii	"Comm_Task\000"
 6223      5F546173 
 6223      6B00
 6224              	.LASF30:
 6225 0886 53797354 		.ascii	"SysTick_IRQn\000"
 6225      69636B5F 
 6225      4952516E 
 6225      00
 6226              	.LASF147:
 6227 0893 43686563 		.ascii	"ChecksumErrors\000"
 6227      6B73756D 
 6227      4572726F 
 6227      727300
 6228              	.LASF25:
 6229 08a2 73697A65 		.ascii	"sizetype\000"
 6229      74797065 
 6229      00
 6230              	.LASF11:
 6231 08ab 6C6F6E67 		.ascii	"long unsigned int\000"
 6231      20756E73 
 6231      69676E65 
 6231      6420696E 
 6231      7400
 6232              	.LASF194:
 6233 08bd 6973725F 		.ascii	"isr_home_SetPriority\000"
 6233      686F6D65 
 6233      5F536574 
 6233      5072696F 
 6233      72697479 
 6234              	.LASF186:
 6235 08d2 496E6465 		.ascii	"Index_Counter_1_ReadCounter\000"
 6235      785F436F 
 6235      756E7465 
 6235      725F315F 
 6235      52656164 
 6236              	.LASF123:
 6237 08ee 43757272 		.ascii	"CurrentIndexCount\000"
 6237      656E7449 
 6237      6E646578 
 6237      436F756E 
 6237      7400
 6238              	.LASF203:
 6239 0900 76546173 		.ascii	"vTaskStartScheduler\000"
 6239      6B537461 
 6239      72745363 
 6239      68656475 
 6239      6C657200 
 6240              	.LASF118:
 6241 0914 70657263 		.ascii	"percent\000"
 6241      656E7400 
ARM GAS  C:\Users\PRICHA~1\AppData\Local\Temp\cctE1isk.s 			page 146


 6242              	.LASF198:
 6243 091c 5350495F 		.ascii	"SPI_1_Start\000"
 6243      315F5374 
 6243      61727400 
 6244              	.LASF5:
 6245 0928 756E7369 		.ascii	"unsigned char\000"
 6245      676E6564 
 6245      20636861 
 6245      7200
 6246              	.LASF201:
 6247 0936 436F756E 		.ascii	"Counter_1_Start\000"
 6247      7465725F 
 6247      315F5374 
 6247      61727400 
 6248              	.LASF10:
 6249 0946 5F5F7569 		.ascii	"__uint32_t\000"
 6249      6E743332 
 6249      5F7400
 6250              	.LASF51:
 6251 0951 6F70554E 		.ascii	"opUNDEFINED\000"
 6251      44454649 
 6251      4E454400 
 6252              	.LASF145:
 6253 095d 4661756C 		.ascii	"FaultState\000"
 6253      74537461 
 6253      746500
 6254              	.LASF28:
 6255 0968 53564361 		.ascii	"SVCall_IRQn\000"
 6255      6C6C5F49 
 6255      52516E00 
 6256              	.LASF47:
 6257 0974 66735832 		.ascii	"fsX2\000"
 6257      00
 6258              	.LASF48:
 6259 0979 66735833 		.ascii	"fsX3\000"
 6259      00
 6260              	.LASF49:
 6261 097e 66735834 		.ascii	"fsX4\000"
 6261      00
 6262              	.LASF146:
 6263 0983 436F6E66 		.ascii	"ConfigSequence\000"
 6263      69675365 
 6263      7175656E 
 6263      636500
 6264              	.LASF94:
 6265 0992 64757479 		.ascii	"dutycycle\000"
 6265      6379636C 
 6265      6500
 6266              	.LASF137:
 6267 099c 7265664B 		.ascii	"refKd\000"
 6267      6400
 6268              	.LASF136:
 6269 09a2 7265664B 		.ascii	"refKi\000"
 6269      6900
 6270              	.LASF119:
 6271 09a8 5049445F 		.ascii	"PID_Task\000"
 6271      5461736B 
ARM GAS  C:\Users\PRICHA~1\AppData\Local\Temp\cctE1isk.s 			page 147


 6271      00
 6272              	.LASF159:
 6273 09b1 52657365 		.ascii	"Reset_Encoder_ClearInterrupt\000"
 6273      745F456E 
 6273      636F6465 
 6273      725F436C 
 6273      65617249 
 6274              	.LASF135:
 6275 09ce 7265664B 		.ascii	"refKp\000"
 6275      7000
 6276              	.LASF75:
 6277 09d4 73746174 		.ascii	"state\000"
 6277      6500
 6278              	.LASF62:
 6279 09da 6C696D69 		.ascii	"limit_Total\000"
 6279      745F546F 
 6279      74616C00 
 6280              	.LASF90:
 6281 09e6 62797465 		.ascii	"byteLSB\000"
 6281      4C534200 
 6282              	.LASF182:
 6283 09ee 50524F42 		.ascii	"PROBE_Write\000"
 6283      455F5772 
 6283      69746500 
 6284              	.LASF191:
 6285 09fa 6973725F 		.ascii	"isr_home_StartEx\000"
 6285      686F6D65 
 6285      5F537461 
 6285      72744578 
 6285      00
 6286              	.LASF4:
 6287 0a0b 7369676E 		.ascii	"signed char\000"
 6287      65642063 
 6287      68617200 
 6288              	.LASF7:
 6289 0a17 73686F72 		.ascii	"short unsigned int\000"
 6289      7420756E 
 6289      7369676E 
 6289      65642069 
 6289      6E7400
 6290              	.LASF102:
 6291 0a2a 5049445F 		.ascii	"PID_Initialize\000"
 6291      496E6974 
 6291      69616C69 
 6291      7A6500
 6292              	.LASF124:
 6293 0a39 6D61696E 		.ascii	"main\000"
 6293      00
 6294              	.LASF27:
 6295 0a3e 48617264 		.ascii	"HardFault_IRQn\000"
 6295      4661756C 
 6295      745F4952 
 6295      516E00
 6296              	.LASF78:
 6297 0a4d 63757272 		.ascii	"current\000"
 6297      656E7400 
 6298              	.LASF15:
ARM GAS  C:\Users\PRICHA~1\AppData\Local\Temp\cctE1isk.s 			page 148


 6299 0a55 75696E74 		.ascii	"uint8\000"
 6299      3800
 6300              	.LASF21:
 6301 0a5b 646F7562 		.ascii	"double\000"
 6301      6C6500
 6302              	.LASF202:
 6303 0a62 496E6465 		.ascii	"Index_Counter_1_Start\000"
 6303      785F436F 
 6303      756E7465 
 6303      725F315F 
 6303      53746172 
 6304              	.LASF152:
 6305 0a78 75784869 		.ascii	"uxHighWaterMark_Comm\000"
 6305      67685761 
 6305      7465724D 
 6305      61726B5F 
 6305      436F6D6D 
 6306              	.LASF52:
 6307 0a8d 6F70436F 		.ascii	"opConfig\000"
 6307      6E666967 
 6307      00
 6308              	.LASF192:
 6309 0a96 6973725F 		.ascii	"isr_rst_encoder_StartEx\000"
 6309      7273745F 
 6309      656E636F 
 6309      6465725F 
 6309      53746172 
 6310              	.LASF162:
 6311 0aae 6973725F 		.ascii	"isr_home_ClearPending\000"
 6311      686F6D65 
 6311      5F436C65 
 6311      61725065 
 6311      6E64696E 
 6312              	.LASF76:
 6313 0ac4 6661756C 		.ascii	"fault\000"
 6313      7400
 6314              	.LASF84:
 6315 0aca 52535449 		.ascii	"RSTIsrHandler\000"
 6315      73724861 
 6315      6E646C65 
 6315      7200
 6316              	.LASF79:
 6317 0ad8 706F7369 		.ascii	"position\000"
 6317      74696F6E 
 6317      00
 6318              	.LASF50:
 6319 0ae1 4661756C 		.ascii	"FaultStates_t\000"
 6319      74537461 
 6319      7465735F 
 6319      7400
 6320              	.LASF206:
 6321 0aef 433A5C70 		.ascii	"C:\\proj\\acsnb-motor-cypress\\QuadEncoderRTOS.cyds"
 6321      726F6A5C 
 6321      6163736E 
 6321      622D6D6F 
 6321      746F722D 
 6322 0b1f 6E00     		.ascii	"n\000"
ARM GAS  C:\Users\PRICHA~1\AppData\Local\Temp\cctE1isk.s 			page 149


 6323              	.LASF122:
 6324 0b21 44656C74 		.ascii	"DeltaPosition\000"
 6324      61506F73 
 6324      6974696F 
 6324      6E00
 6325              		.ident	"GCC: (GNU Tools for ARM Embedded Processors) 5.4.1 20160609 (release) [ARM/embedded-5-bran
