ARM GAS  C:\Users\PRICHA~1\AppData\Local\Temp\ccg28BYd.s 			page 1


   1              		.syntax unified
   2              		.cpu cortex-m0
   3              		.fpu softvfp
   4              		.eabi_attribute 20, 1
   5              		.eabi_attribute 21, 1
   6              		.eabi_attribute 23, 3
   7              		.eabi_attribute 24, 1
   8              		.eabi_attribute 25, 1
   9              		.eabi_attribute 26, 1
  10              		.eabi_attribute 30, 1
  11              		.eabi_attribute 34, 0
  12              		.eabi_attribute 18, 4
  13              		.thumb
  14              		.syntax unified
  15              		.file	"SPI_1_SPI.c"
  16              		.text
  17              	.Ltext0:
  18              		.cfi_sections	.debug_frame
  19              		.section	.text.SPI_1_SpiInit,"ax",%progbits
  20              		.align	2
  21              		.global	SPI_1_SpiInit
  22              		.code	16
  23              		.thumb_func
  24              		.type	SPI_1_SpiInit, %function
  25              	SPI_1_SpiInit:
  26              	.LFB0:
  27              		.file 1 "Generated_Source\\PSoC4\\SPI_1_SPI.c"
   1:Generated_Source\PSoC4/SPI_1_SPI.c **** /***************************************************************************//**
   2:Generated_Source\PSoC4/SPI_1_SPI.c **** * \file SPI_1_SPI.c
   3:Generated_Source\PSoC4/SPI_1_SPI.c **** * \version 4.0
   4:Generated_Source\PSoC4/SPI_1_SPI.c **** *
   5:Generated_Source\PSoC4/SPI_1_SPI.c **** * \brief
   6:Generated_Source\PSoC4/SPI_1_SPI.c **** *  This file provides the source code to the API for the SCB Component in
   7:Generated_Source\PSoC4/SPI_1_SPI.c **** *  SPI mode.
   8:Generated_Source\PSoC4/SPI_1_SPI.c **** *
   9:Generated_Source\PSoC4/SPI_1_SPI.c **** * Note:
  10:Generated_Source\PSoC4/SPI_1_SPI.c **** *
  11:Generated_Source\PSoC4/SPI_1_SPI.c **** *******************************************************************************
  12:Generated_Source\PSoC4/SPI_1_SPI.c **** * \copyright
  13:Generated_Source\PSoC4/SPI_1_SPI.c **** * Copyright 2013-2017, Cypress Semiconductor Corporation.  All rights reserved.
  14:Generated_Source\PSoC4/SPI_1_SPI.c **** * You may use this file only in accordance with the license, terms, conditions,
  15:Generated_Source\PSoC4/SPI_1_SPI.c **** * disclaimers, and limitations in the end user license agreement accompanying
  16:Generated_Source\PSoC4/SPI_1_SPI.c **** * the software package with which this file was provided.
  17:Generated_Source\PSoC4/SPI_1_SPI.c **** *******************************************************************************/
  18:Generated_Source\PSoC4/SPI_1_SPI.c **** 
  19:Generated_Source\PSoC4/SPI_1_SPI.c **** #include "SPI_1_PVT.h"
  20:Generated_Source\PSoC4/SPI_1_SPI.c **** #include "SPI_1_SPI_UART_PVT.h"
  21:Generated_Source\PSoC4/SPI_1_SPI.c **** 
  22:Generated_Source\PSoC4/SPI_1_SPI.c **** #if(SPI_1_SCB_MODE_UNCONFIG_CONST_CFG)
  23:Generated_Source\PSoC4/SPI_1_SPI.c **** 
  24:Generated_Source\PSoC4/SPI_1_SPI.c ****     /***************************************
  25:Generated_Source\PSoC4/SPI_1_SPI.c ****     *  Configuration Structure Initialization
  26:Generated_Source\PSoC4/SPI_1_SPI.c ****     ***************************************/
  27:Generated_Source\PSoC4/SPI_1_SPI.c **** 
  28:Generated_Source\PSoC4/SPI_1_SPI.c ****     const SPI_1_SPI_INIT_STRUCT SPI_1_configSpi =
  29:Generated_Source\PSoC4/SPI_1_SPI.c ****     {
  30:Generated_Source\PSoC4/SPI_1_SPI.c ****         SPI_1_SPI_MODE,
ARM GAS  C:\Users\PRICHA~1\AppData\Local\Temp\ccg28BYd.s 			page 2


  31:Generated_Source\PSoC4/SPI_1_SPI.c ****         SPI_1_SPI_SUB_MODE,
  32:Generated_Source\PSoC4/SPI_1_SPI.c ****         SPI_1_SPI_CLOCK_MODE,
  33:Generated_Source\PSoC4/SPI_1_SPI.c ****         SPI_1_SPI_OVS_FACTOR,
  34:Generated_Source\PSoC4/SPI_1_SPI.c ****         SPI_1_SPI_MEDIAN_FILTER_ENABLE,
  35:Generated_Source\PSoC4/SPI_1_SPI.c ****         SPI_1_SPI_LATE_MISO_SAMPLE_ENABLE,
  36:Generated_Source\PSoC4/SPI_1_SPI.c ****         SPI_1_SPI_WAKE_ENABLE,
  37:Generated_Source\PSoC4/SPI_1_SPI.c ****         SPI_1_SPI_RX_DATA_BITS_NUM,
  38:Generated_Source\PSoC4/SPI_1_SPI.c ****         SPI_1_SPI_TX_DATA_BITS_NUM,
  39:Generated_Source\PSoC4/SPI_1_SPI.c ****         SPI_1_SPI_BITS_ORDER,
  40:Generated_Source\PSoC4/SPI_1_SPI.c ****         SPI_1_SPI_TRANSFER_SEPARATION,
  41:Generated_Source\PSoC4/SPI_1_SPI.c ****         0u,
  42:Generated_Source\PSoC4/SPI_1_SPI.c ****         NULL,
  43:Generated_Source\PSoC4/SPI_1_SPI.c ****         0u,
  44:Generated_Source\PSoC4/SPI_1_SPI.c ****         NULL,
  45:Generated_Source\PSoC4/SPI_1_SPI.c ****         (uint32) SPI_1_SCB_IRQ_INTERNAL,
  46:Generated_Source\PSoC4/SPI_1_SPI.c ****         SPI_1_SPI_INTR_RX_MASK,
  47:Generated_Source\PSoC4/SPI_1_SPI.c ****         SPI_1_SPI_RX_TRIGGER_LEVEL,
  48:Generated_Source\PSoC4/SPI_1_SPI.c ****         SPI_1_SPI_INTR_TX_MASK,
  49:Generated_Source\PSoC4/SPI_1_SPI.c ****         SPI_1_SPI_TX_TRIGGER_LEVEL,
  50:Generated_Source\PSoC4/SPI_1_SPI.c ****         (uint8) SPI_1_SPI_BYTE_MODE_ENABLE,
  51:Generated_Source\PSoC4/SPI_1_SPI.c ****         (uint8) SPI_1_SPI_FREE_RUN_SCLK_ENABLE,
  52:Generated_Source\PSoC4/SPI_1_SPI.c ****         (uint8) SPI_1_SPI_SS_POLARITY
  53:Generated_Source\PSoC4/SPI_1_SPI.c ****     };
  54:Generated_Source\PSoC4/SPI_1_SPI.c **** 
  55:Generated_Source\PSoC4/SPI_1_SPI.c **** 
  56:Generated_Source\PSoC4/SPI_1_SPI.c ****     /*******************************************************************************
  57:Generated_Source\PSoC4/SPI_1_SPI.c ****     * Function Name: SPI_1_SpiInit
  58:Generated_Source\PSoC4/SPI_1_SPI.c ****     ****************************************************************************//**
  59:Generated_Source\PSoC4/SPI_1_SPI.c ****     *
  60:Generated_Source\PSoC4/SPI_1_SPI.c ****     *  Configures the SPI_1 for SPI operation.
  61:Generated_Source\PSoC4/SPI_1_SPI.c ****     *
  62:Generated_Source\PSoC4/SPI_1_SPI.c ****     *  This function is intended specifically to be used when the SPI_1 
  63:Generated_Source\PSoC4/SPI_1_SPI.c ****     *  configuration is set to “Unconfigured SPI_1” in the customizer. 
  64:Generated_Source\PSoC4/SPI_1_SPI.c ****     *  After initializing the SPI_1 in SPI mode using this function, 
  65:Generated_Source\PSoC4/SPI_1_SPI.c ****     *  the component can be enabled using the SPI_1_Start() or 
  66:Generated_Source\PSoC4/SPI_1_SPI.c ****     * SPI_1_Enable() function.
  67:Generated_Source\PSoC4/SPI_1_SPI.c ****     *  This function uses a pointer to a structure that provides the configuration 
  68:Generated_Source\PSoC4/SPI_1_SPI.c ****     *  settings. This structure contains the same information that would otherwise 
  69:Generated_Source\PSoC4/SPI_1_SPI.c ****     *  be provided by the customizer settings.
  70:Generated_Source\PSoC4/SPI_1_SPI.c ****     *
  71:Generated_Source\PSoC4/SPI_1_SPI.c ****     *  \param config: pointer to a structure that contains the following list of 
  72:Generated_Source\PSoC4/SPI_1_SPI.c ****     *   fields. These fields match the selections available in the customizer. 
  73:Generated_Source\PSoC4/SPI_1_SPI.c ****     *   Refer to the customizer for further description of the settings.
  74:Generated_Source\PSoC4/SPI_1_SPI.c ****     *
  75:Generated_Source\PSoC4/SPI_1_SPI.c ****     *******************************************************************************/
  76:Generated_Source\PSoC4/SPI_1_SPI.c ****     void SPI_1_SpiInit(const SPI_1_SPI_INIT_STRUCT *config)
  77:Generated_Source\PSoC4/SPI_1_SPI.c ****     {
  78:Generated_Source\PSoC4/SPI_1_SPI.c ****         if(NULL == config)
  79:Generated_Source\PSoC4/SPI_1_SPI.c ****         {
  80:Generated_Source\PSoC4/SPI_1_SPI.c ****             CYASSERT(0u != 0u); /* Halt execution due to bad function parameter */
  81:Generated_Source\PSoC4/SPI_1_SPI.c ****         }
  82:Generated_Source\PSoC4/SPI_1_SPI.c ****         else
  83:Generated_Source\PSoC4/SPI_1_SPI.c ****         {
  84:Generated_Source\PSoC4/SPI_1_SPI.c ****             /* Configure pins */
  85:Generated_Source\PSoC4/SPI_1_SPI.c ****             SPI_1_SetPins(SPI_1_SCB_MODE_SPI, config->mode, SPI_1_DUMMY_PARAM);
  86:Generated_Source\PSoC4/SPI_1_SPI.c **** 
  87:Generated_Source\PSoC4/SPI_1_SPI.c ****             /* Store internal configuration */
ARM GAS  C:\Users\PRICHA~1\AppData\Local\Temp\ccg28BYd.s 			page 3


  88:Generated_Source\PSoC4/SPI_1_SPI.c ****             SPI_1_scbMode       = (uint8) SPI_1_SCB_MODE_SPI;
  89:Generated_Source\PSoC4/SPI_1_SPI.c ****             SPI_1_scbEnableWake = (uint8) config->enableWake;
  90:Generated_Source\PSoC4/SPI_1_SPI.c ****             SPI_1_scbEnableIntr = (uint8) config->enableInterrupt;
  91:Generated_Source\PSoC4/SPI_1_SPI.c **** 
  92:Generated_Source\PSoC4/SPI_1_SPI.c ****             /* Set RX direction internal variables */
  93:Generated_Source\PSoC4/SPI_1_SPI.c ****             SPI_1_rxBuffer      =         config->rxBuffer;
  94:Generated_Source\PSoC4/SPI_1_SPI.c ****             SPI_1_rxDataBits    = (uint8) config->rxDataBits;
  95:Generated_Source\PSoC4/SPI_1_SPI.c ****             SPI_1_rxBufferSize  =         config->rxBufferSize;
  96:Generated_Source\PSoC4/SPI_1_SPI.c **** 
  97:Generated_Source\PSoC4/SPI_1_SPI.c ****             /* Set TX direction internal variables */
  98:Generated_Source\PSoC4/SPI_1_SPI.c ****             SPI_1_txBuffer      =         config->txBuffer;
  99:Generated_Source\PSoC4/SPI_1_SPI.c ****             SPI_1_txDataBits    = (uint8) config->txDataBits;
 100:Generated_Source\PSoC4/SPI_1_SPI.c ****             SPI_1_txBufferSize  =         config->txBufferSize;
 101:Generated_Source\PSoC4/SPI_1_SPI.c **** 
 102:Generated_Source\PSoC4/SPI_1_SPI.c ****             /* Configure SPI interface */
 103:Generated_Source\PSoC4/SPI_1_SPI.c ****             SPI_1_CTRL_REG     = SPI_1_GET_CTRL_OVS(config->oversample)           |
 104:Generated_Source\PSoC4/SPI_1_SPI.c ****                                             SPI_1_GET_CTRL_BYTE_MODE(config->enableByteMode) |
 105:Generated_Source\PSoC4/SPI_1_SPI.c ****                                             SPI_1_GET_CTRL_EC_AM_MODE(config->enableWake)    |
 106:Generated_Source\PSoC4/SPI_1_SPI.c ****                                             SPI_1_CTRL_SPI;
 107:Generated_Source\PSoC4/SPI_1_SPI.c **** 
 108:Generated_Source\PSoC4/SPI_1_SPI.c ****             SPI_1_SPI_CTRL_REG = SPI_1_GET_SPI_CTRL_CONTINUOUS    (config->transferSeperation)  |
 109:Generated_Source\PSoC4/SPI_1_SPI.c ****                                             SPI_1_GET_SPI_CTRL_SELECT_PRECEDE(config->submode &
 110:Generated_Source\PSoC4/SPI_1_SPI.c ****                                                                           SPI_1_SPI_MODE_TI_PRECEDE
 111:Generated_Source\PSoC4/SPI_1_SPI.c ****                                             SPI_1_GET_SPI_CTRL_SCLK_MODE     (config->sclkMode)    
 112:Generated_Source\PSoC4/SPI_1_SPI.c ****                                             SPI_1_GET_SPI_CTRL_LATE_MISO_SAMPLE(config->enableLateS
 113:Generated_Source\PSoC4/SPI_1_SPI.c ****                                             SPI_1_GET_SPI_CTRL_SCLK_CONTINUOUS(config->enableFreeRu
 114:Generated_Source\PSoC4/SPI_1_SPI.c ****                                             SPI_1_GET_SPI_CTRL_SSEL_POLARITY (config->polaritySs)  
 115:Generated_Source\PSoC4/SPI_1_SPI.c ****                                             SPI_1_GET_SPI_CTRL_SUB_MODE      (config->submode)     
 116:Generated_Source\PSoC4/SPI_1_SPI.c ****                                             SPI_1_GET_SPI_CTRL_MASTER_MODE   (config->mode);
 117:Generated_Source\PSoC4/SPI_1_SPI.c **** 
 118:Generated_Source\PSoC4/SPI_1_SPI.c ****             /* Configure RX direction */
 119:Generated_Source\PSoC4/SPI_1_SPI.c ****             SPI_1_RX_CTRL_REG     =  SPI_1_GET_RX_CTRL_DATA_WIDTH(config->rxDataBits)         |
 120:Generated_Source\PSoC4/SPI_1_SPI.c ****                                                 SPI_1_GET_RX_CTRL_BIT_ORDER (config->bitOrder)     
 121:Generated_Source\PSoC4/SPI_1_SPI.c ****                                                 SPI_1_GET_RX_CTRL_MEDIAN    (config->enableMedianFi
 122:Generated_Source\PSoC4/SPI_1_SPI.c ****                                                 SPI_1_SPI_RX_CTRL;
 123:Generated_Source\PSoC4/SPI_1_SPI.c **** 
 124:Generated_Source\PSoC4/SPI_1_SPI.c ****             SPI_1_RX_FIFO_CTRL_REG = SPI_1_GET_RX_FIFO_CTRL_TRIGGER_LEVEL(config->rxTriggerLevel);
 125:Generated_Source\PSoC4/SPI_1_SPI.c **** 
 126:Generated_Source\PSoC4/SPI_1_SPI.c ****             /* Configure TX direction */
 127:Generated_Source\PSoC4/SPI_1_SPI.c ****             SPI_1_TX_CTRL_REG      = SPI_1_GET_TX_CTRL_DATA_WIDTH(config->txDataBits) |
 128:Generated_Source\PSoC4/SPI_1_SPI.c ****                                                 SPI_1_GET_TX_CTRL_BIT_ORDER (config->bitOrder)   |
 129:Generated_Source\PSoC4/SPI_1_SPI.c ****                                                 SPI_1_SPI_TX_CTRL;
 130:Generated_Source\PSoC4/SPI_1_SPI.c **** 
 131:Generated_Source\PSoC4/SPI_1_SPI.c ****             SPI_1_TX_FIFO_CTRL_REG = SPI_1_GET_TX_FIFO_CTRL_TRIGGER_LEVEL(config->txTriggerLevel);
 132:Generated_Source\PSoC4/SPI_1_SPI.c **** 
 133:Generated_Source\PSoC4/SPI_1_SPI.c ****             /* Configure interrupt with SPI handler but do not enable it */
 134:Generated_Source\PSoC4/SPI_1_SPI.c ****             CyIntDisable    (SPI_1_ISR_NUMBER);
 135:Generated_Source\PSoC4/SPI_1_SPI.c ****             CyIntSetPriority(SPI_1_ISR_NUMBER, SPI_1_ISR_PRIORITY);
 136:Generated_Source\PSoC4/SPI_1_SPI.c ****             (void) CyIntSetVector(SPI_1_ISR_NUMBER, &SPI_1_SPI_UART_ISR);
 137:Generated_Source\PSoC4/SPI_1_SPI.c **** 
 138:Generated_Source\PSoC4/SPI_1_SPI.c ****             /* Configure interrupt sources */
 139:Generated_Source\PSoC4/SPI_1_SPI.c ****             SPI_1_INTR_I2C_EC_MASK_REG = SPI_1_NO_INTR_SOURCES;
 140:Generated_Source\PSoC4/SPI_1_SPI.c ****             SPI_1_INTR_SPI_EC_MASK_REG = SPI_1_NO_INTR_SOURCES;
 141:Generated_Source\PSoC4/SPI_1_SPI.c ****             SPI_1_INTR_SLAVE_MASK_REG  = SPI_1_GET_SPI_INTR_SLAVE_MASK(config->rxInterruptMask);
 142:Generated_Source\PSoC4/SPI_1_SPI.c ****             SPI_1_INTR_MASTER_MASK_REG = SPI_1_GET_SPI_INTR_MASTER_MASK(config->txInterruptMask);
 143:Generated_Source\PSoC4/SPI_1_SPI.c ****             SPI_1_INTR_RX_MASK_REG     = SPI_1_GET_SPI_INTR_RX_MASK(config->rxInterruptMask);
 144:Generated_Source\PSoC4/SPI_1_SPI.c ****             SPI_1_INTR_TX_MASK_REG     = SPI_1_GET_SPI_INTR_TX_MASK(config->txInterruptMask);
ARM GAS  C:\Users\PRICHA~1\AppData\Local\Temp\ccg28BYd.s 			page 4


 145:Generated_Source\PSoC4/SPI_1_SPI.c ****             
 146:Generated_Source\PSoC4/SPI_1_SPI.c ****             /* Configure TX interrupt sources to restore. */
 147:Generated_Source\PSoC4/SPI_1_SPI.c ****             SPI_1_IntrTxMask = LO16(SPI_1_INTR_TX_MASK_REG);
 148:Generated_Source\PSoC4/SPI_1_SPI.c **** 
 149:Generated_Source\PSoC4/SPI_1_SPI.c ****             /* Set active SS0 */
 150:Generated_Source\PSoC4/SPI_1_SPI.c ****             SPI_1_SpiSetActiveSlaveSelect(SPI_1_SPI_SLAVE_SELECT0);
 151:Generated_Source\PSoC4/SPI_1_SPI.c **** 
 152:Generated_Source\PSoC4/SPI_1_SPI.c ****             /* Clear RX buffer indexes */
 153:Generated_Source\PSoC4/SPI_1_SPI.c ****             SPI_1_rxBufferHead     = 0u;
 154:Generated_Source\PSoC4/SPI_1_SPI.c ****             SPI_1_rxBufferTail     = 0u;
 155:Generated_Source\PSoC4/SPI_1_SPI.c ****             SPI_1_rxBufferOverflow = 0u;
 156:Generated_Source\PSoC4/SPI_1_SPI.c **** 
 157:Generated_Source\PSoC4/SPI_1_SPI.c ****             /* Clear TX buffer indexes */
 158:Generated_Source\PSoC4/SPI_1_SPI.c ****             SPI_1_txBufferHead = 0u;
 159:Generated_Source\PSoC4/SPI_1_SPI.c ****             SPI_1_txBufferTail = 0u;
 160:Generated_Source\PSoC4/SPI_1_SPI.c ****         }
 161:Generated_Source\PSoC4/SPI_1_SPI.c ****     }
 162:Generated_Source\PSoC4/SPI_1_SPI.c **** 
 163:Generated_Source\PSoC4/SPI_1_SPI.c **** #else
 164:Generated_Source\PSoC4/SPI_1_SPI.c **** 
 165:Generated_Source\PSoC4/SPI_1_SPI.c ****     /*******************************************************************************
 166:Generated_Source\PSoC4/SPI_1_SPI.c ****     * Function Name: SPI_1_SpiInit
 167:Generated_Source\PSoC4/SPI_1_SPI.c ****     ****************************************************************************//**
 168:Generated_Source\PSoC4/SPI_1_SPI.c ****     *
 169:Generated_Source\PSoC4/SPI_1_SPI.c ****     *  Configures the SCB for the SPI operation.
 170:Generated_Source\PSoC4/SPI_1_SPI.c ****     *
 171:Generated_Source\PSoC4/SPI_1_SPI.c ****     *******************************************************************************/
 172:Generated_Source\PSoC4/SPI_1_SPI.c ****     void SPI_1_SpiInit(void)
 173:Generated_Source\PSoC4/SPI_1_SPI.c ****     {
  28              		.loc 1 173 0
  29              		.cfi_startproc
  30              		@ args = 0, pretend = 0, frame = 0
  31              		@ frame_needed = 0, uses_anonymous_args = 0
  32 0000 10B5     		push	{r4, lr}
  33              		.cfi_def_cfa_offset 8
  34              		.cfi_offset 4, -8
  35              		.cfi_offset 14, -4
 174:Generated_Source\PSoC4/SPI_1_SPI.c ****         /* Configure SPI interface */
 175:Generated_Source\PSoC4/SPI_1_SPI.c ****         SPI_1_CTRL_REG     = SPI_1_SPI_DEFAULT_CTRL;
  36              		.loc 1 175 0
  37 0002 1B4A     		ldr	r2, .L2
  38 0004 1B4B     		ldr	r3, .L2+4
  39 0006 1A60     		str	r2, [r3]
 176:Generated_Source\PSoC4/SPI_1_SPI.c ****         SPI_1_SPI_CTRL_REG = SPI_1_SPI_DEFAULT_SPI_CTRL;
  40              		.loc 1 176 0
  41 0008 0922     		movs	r2, #9
  42 000a 1B4B     		ldr	r3, .L2+8
  43 000c 1A60     		str	r2, [r3]
 177:Generated_Source\PSoC4/SPI_1_SPI.c **** 
 178:Generated_Source\PSoC4/SPI_1_SPI.c ****         /* Configure TX and RX direction */
 179:Generated_Source\PSoC4/SPI_1_SPI.c ****         SPI_1_RX_CTRL_REG      = SPI_1_SPI_DEFAULT_RX_CTRL;
  44              		.loc 1 179 0
  45 000e 1B4B     		ldr	r3, .L2+12
  46 0010 1B4A     		ldr	r2, .L2+16
  47 0012 1360     		str	r3, [r2]
 180:Generated_Source\PSoC4/SPI_1_SPI.c ****         SPI_1_RX_FIFO_CTRL_REG = SPI_1_SPI_DEFAULT_RX_FIFO_CTRL;
  48              		.loc 1 180 0
ARM GAS  C:\Users\PRICHA~1\AppData\Local\Temp\ccg28BYd.s 			page 5


  49 0014 0721     		movs	r1, #7
  50 0016 1B4A     		ldr	r2, .L2+20
  51 0018 1160     		str	r1, [r2]
 181:Generated_Source\PSoC4/SPI_1_SPI.c **** 
 182:Generated_Source\PSoC4/SPI_1_SPI.c ****         /* Configure TX and RX direction */
 183:Generated_Source\PSoC4/SPI_1_SPI.c ****         SPI_1_TX_CTRL_REG      = SPI_1_SPI_DEFAULT_TX_CTRL;
  52              		.loc 1 183 0
  53 001a 1B4A     		ldr	r2, .L2+24
  54 001c 1360     		str	r3, [r2]
 184:Generated_Source\PSoC4/SPI_1_SPI.c ****         SPI_1_TX_FIFO_CTRL_REG = SPI_1_SPI_DEFAULT_TX_FIFO_CTRL;
  55              		.loc 1 184 0
  56 001e 0424     		movs	r4, #4
  57 0020 1A4B     		ldr	r3, .L2+28
  58 0022 1C60     		str	r4, [r3]
 185:Generated_Source\PSoC4/SPI_1_SPI.c **** 
 186:Generated_Source\PSoC4/SPI_1_SPI.c ****         /* Configure interrupt with SPI handler but do not enable it */
 187:Generated_Source\PSoC4/SPI_1_SPI.c ****     #if(SPI_1_SCB_IRQ_INTERNAL)
 188:Generated_Source\PSoC4/SPI_1_SPI.c ****             CyIntDisable    (SPI_1_ISR_NUMBER);
  59              		.loc 1 188 0
  60 0024 0B20     		movs	r0, #11
  61 0026 FFF7FEFF 		bl	CyIntDisable
  62              	.LVL0:
 189:Generated_Source\PSoC4/SPI_1_SPI.c ****             CyIntSetPriority(SPI_1_ISR_NUMBER, SPI_1_ISR_PRIORITY);
  63              		.loc 1 189 0
  64 002a 0321     		movs	r1, #3
  65 002c 0B20     		movs	r0, #11
  66 002e FFF7FEFF 		bl	CyIntSetPriority
  67              	.LVL1:
 190:Generated_Source\PSoC4/SPI_1_SPI.c ****             (void) CyIntSetVector(SPI_1_ISR_NUMBER, &SPI_1_SPI_UART_ISR);
  68              		.loc 1 190 0
  69 0032 1749     		ldr	r1, .L2+32
  70 0034 0B20     		movs	r0, #11
  71 0036 FFF7FEFF 		bl	CyIntSetVector
  72              	.LVL2:
 191:Generated_Source\PSoC4/SPI_1_SPI.c ****     #endif /* (SPI_1_SCB_IRQ_INTERNAL) */
 192:Generated_Source\PSoC4/SPI_1_SPI.c **** 
 193:Generated_Source\PSoC4/SPI_1_SPI.c ****         /* Configure interrupt sources */
 194:Generated_Source\PSoC4/SPI_1_SPI.c ****         SPI_1_INTR_I2C_EC_MASK_REG = SPI_1_SPI_DEFAULT_INTR_I2C_EC_MASK;
  73              		.loc 1 194 0
  74 003a 0023     		movs	r3, #0
  75 003c 154A     		ldr	r2, .L2+36
  76 003e 1360     		str	r3, [r2]
 195:Generated_Source\PSoC4/SPI_1_SPI.c ****         SPI_1_INTR_SPI_EC_MASK_REG = SPI_1_SPI_DEFAULT_INTR_SPI_EC_MASK;
  77              		.loc 1 195 0
  78 0040 154A     		ldr	r2, .L2+40
  79 0042 1360     		str	r3, [r2]
 196:Generated_Source\PSoC4/SPI_1_SPI.c ****         SPI_1_INTR_SLAVE_MASK_REG  = SPI_1_SPI_DEFAULT_INTR_SLAVE_MASK;
  80              		.loc 1 196 0
  81 0044 154A     		ldr	r2, .L2+44
  82 0046 1360     		str	r3, [r2]
 197:Generated_Source\PSoC4/SPI_1_SPI.c ****         SPI_1_INTR_MASTER_MASK_REG = SPI_1_SPI_DEFAULT_INTR_MASTER_MASK;
  83              		.loc 1 197 0
  84 0048 154A     		ldr	r2, .L2+48
  85 004a 1360     		str	r3, [r2]
 198:Generated_Source\PSoC4/SPI_1_SPI.c ****         SPI_1_INTR_RX_MASK_REG     = SPI_1_SPI_DEFAULT_INTR_RX_MASK;
  86              		.loc 1 198 0
  87 004c 154A     		ldr	r2, .L2+52
ARM GAS  C:\Users\PRICHA~1\AppData\Local\Temp\ccg28BYd.s 			page 6


  88 004e 1460     		str	r4, [r2]
 199:Generated_Source\PSoC4/SPI_1_SPI.c ****         SPI_1_INTR_TX_MASK_REG     = SPI_1_SPI_DEFAULT_INTR_TX_MASK;
  89              		.loc 1 199 0
  90 0050 154A     		ldr	r2, .L2+56
  91 0052 1360     		str	r3, [r2]
 200:Generated_Source\PSoC4/SPI_1_SPI.c **** 
 201:Generated_Source\PSoC4/SPI_1_SPI.c ****         /* Configure TX interrupt sources to restore. */
 202:Generated_Source\PSoC4/SPI_1_SPI.c ****         SPI_1_IntrTxMask = LO16(SPI_1_INTR_TX_MASK_REG);
  92              		.loc 1 202 0
  93 0054 1168     		ldr	r1, [r2]
  94 0056 154A     		ldr	r2, .L2+60
  95 0058 1180     		strh	r1, [r2]
 203:Generated_Source\PSoC4/SPI_1_SPI.c ****             
 204:Generated_Source\PSoC4/SPI_1_SPI.c ****         /* Set active SS0 for master */
 205:Generated_Source\PSoC4/SPI_1_SPI.c ****     #if (SPI_1_SPI_MASTER_CONST)
 206:Generated_Source\PSoC4/SPI_1_SPI.c ****         SPI_1_SpiSetActiveSlaveSelect(SPI_1_SPI_SLAVE_SELECT0);
 207:Generated_Source\PSoC4/SPI_1_SPI.c ****     #endif /* (SPI_1_SPI_MASTER_CONST) */
 208:Generated_Source\PSoC4/SPI_1_SPI.c **** 
 209:Generated_Source\PSoC4/SPI_1_SPI.c ****     #if(SPI_1_INTERNAL_RX_SW_BUFFER_CONST)
 210:Generated_Source\PSoC4/SPI_1_SPI.c ****         SPI_1_rxBufferHead     = 0u;
  96              		.loc 1 210 0
  97 005a 154A     		ldr	r2, .L2+64
  98 005c 1360     		str	r3, [r2]
 211:Generated_Source\PSoC4/SPI_1_SPI.c ****         SPI_1_rxBufferTail     = 0u;
  99              		.loc 1 211 0
 100 005e 154A     		ldr	r2, .L2+68
 101 0060 1360     		str	r3, [r2]
 212:Generated_Source\PSoC4/SPI_1_SPI.c ****         SPI_1_rxBufferOverflow = 0u;
 102              		.loc 1 212 0
 103 0062 154A     		ldr	r2, .L2+72
 104 0064 1370     		strb	r3, [r2]
 213:Generated_Source\PSoC4/SPI_1_SPI.c ****     #endif /* (SPI_1_INTERNAL_RX_SW_BUFFER_CONST) */
 214:Generated_Source\PSoC4/SPI_1_SPI.c **** 
 215:Generated_Source\PSoC4/SPI_1_SPI.c ****     #if(SPI_1_INTERNAL_TX_SW_BUFFER_CONST)
 216:Generated_Source\PSoC4/SPI_1_SPI.c ****         SPI_1_txBufferHead = 0u;
 105              		.loc 1 216 0
 106 0066 154A     		ldr	r2, .L2+76
 107 0068 1360     		str	r3, [r2]
 217:Generated_Source\PSoC4/SPI_1_SPI.c ****         SPI_1_txBufferTail = 0u;
 108              		.loc 1 217 0
 109 006a 154A     		ldr	r2, .L2+80
 110 006c 1360     		str	r3, [r2]
 218:Generated_Source\PSoC4/SPI_1_SPI.c ****     #endif /* (SPI_1_INTERNAL_TX_SW_BUFFER_CONST) */
 219:Generated_Source\PSoC4/SPI_1_SPI.c ****     }
 111              		.loc 1 219 0
 112              		@ sp needed
 113 006e 10BD     		pop	{r4, pc}
 114              	.L3:
 115              		.align	2
 116              	.L2:
 117 0070 0F000001 		.word	16777231
 118 0074 00000740 		.word	1074200576
 119 0078 20000740 		.word	1074200608
 120 007c 07010080 		.word	-2147483385
 121 0080 00030740 		.word	1074201344
 122 0084 04030740 		.word	1074201348
 123 0088 00020740 		.word	1074201088
ARM GAS  C:\Users\PRICHA~1\AppData\Local\Temp\ccg28BYd.s 			page 7


 124 008c 04020740 		.word	1074201092
 125 0090 00000000 		.word	SPI_1_SPI_UART_ISR
 126 0094 880E0740 		.word	1074204296
 127 0098 C80E0740 		.word	1074204360
 128 009c 480F0740 		.word	1074204488
 129 00a0 080F0740 		.word	1074204424
 130 00a4 C80F0740 		.word	1074204616
 131 00a8 880F0740 		.word	1074204552
 132 00ac 00000000 		.word	SPI_1_IntrTxMask
 133 00b0 00000000 		.word	SPI_1_rxBufferHead
 134 00b4 00000000 		.word	SPI_1_rxBufferTail
 135 00b8 00000000 		.word	SPI_1_rxBufferOverflow
 136 00bc 00000000 		.word	SPI_1_txBufferHead
 137 00c0 00000000 		.word	SPI_1_txBufferTail
 138              		.cfi_endproc
 139              	.LFE0:
 140              		.size	SPI_1_SpiInit, .-SPI_1_SpiInit
 141              		.section	.text.SPI_1_SpiPostEnable,"ax",%progbits
 142              		.align	2
 143              		.global	SPI_1_SpiPostEnable
 144              		.code	16
 145              		.thumb_func
 146              		.type	SPI_1_SpiPostEnable, %function
 147              	SPI_1_SpiPostEnable:
 148              	.LFB1:
 220:Generated_Source\PSoC4/SPI_1_SPI.c **** #endif /* (SPI_1_SCB_MODE_UNCONFIG_CONST_CFG) */
 221:Generated_Source\PSoC4/SPI_1_SPI.c **** 
 222:Generated_Source\PSoC4/SPI_1_SPI.c **** 
 223:Generated_Source\PSoC4/SPI_1_SPI.c **** /*******************************************************************************
 224:Generated_Source\PSoC4/SPI_1_SPI.c **** * Function Name: SPI_1_SpiPostEnable
 225:Generated_Source\PSoC4/SPI_1_SPI.c **** ****************************************************************************//**
 226:Generated_Source\PSoC4/SPI_1_SPI.c **** *
 227:Generated_Source\PSoC4/SPI_1_SPI.c **** *  Restores HSIOM settings for the SPI master output pins (SCLK and/or SS0-SS3) 
 228:Generated_Source\PSoC4/SPI_1_SPI.c **** *  to be controlled by the SCB SPI.
 229:Generated_Source\PSoC4/SPI_1_SPI.c **** *
 230:Generated_Source\PSoC4/SPI_1_SPI.c **** *******************************************************************************/
 231:Generated_Source\PSoC4/SPI_1_SPI.c **** void SPI_1_SpiPostEnable(void)
 232:Generated_Source\PSoC4/SPI_1_SPI.c **** {
 149              		.loc 1 232 0
 150              		.cfi_startproc
 151              		@ args = 0, pretend = 0, frame = 0
 152              		@ frame_needed = 0, uses_anonymous_args = 0
 153              		@ link register save eliminated.
 233:Generated_Source\PSoC4/SPI_1_SPI.c **** #if(SPI_1_SCB_MODE_UNCONFIG_CONST_CFG)
 234:Generated_Source\PSoC4/SPI_1_SPI.c **** 
 235:Generated_Source\PSoC4/SPI_1_SPI.c ****     if (SPI_1_CHECK_SPI_MASTER)
 236:Generated_Source\PSoC4/SPI_1_SPI.c ****     {
 237:Generated_Source\PSoC4/SPI_1_SPI.c ****     #if (SPI_1_SCLK_PIN)
 238:Generated_Source\PSoC4/SPI_1_SPI.c ****         /* Set SCB SPI to drive output pin */
 239:Generated_Source\PSoC4/SPI_1_SPI.c ****         SPI_1_SET_HSIOM_SEL(SPI_1_SCLK_HSIOM_REG, SPI_1_SCLK_HSIOM_MASK,
 240:Generated_Source\PSoC4/SPI_1_SPI.c ****                                        SPI_1_SCLK_HSIOM_POS, SPI_1_SCLK_HSIOM_SEL_SPI);
 241:Generated_Source\PSoC4/SPI_1_SPI.c ****     #endif /* (SPI_1_SCLK_PIN) */
 242:Generated_Source\PSoC4/SPI_1_SPI.c **** 
 243:Generated_Source\PSoC4/SPI_1_SPI.c ****     #if (SPI_1_SS0_PIN)
 244:Generated_Source\PSoC4/SPI_1_SPI.c ****         /* Set SCB SPI to drive output pin */
 245:Generated_Source\PSoC4/SPI_1_SPI.c ****         SPI_1_SET_HSIOM_SEL(SPI_1_SS0_HSIOM_REG, SPI_1_SS0_HSIOM_MASK,
 246:Generated_Source\PSoC4/SPI_1_SPI.c ****                                        SPI_1_SS0_HSIOM_POS, SPI_1_SS0_HSIOM_SEL_SPI);
ARM GAS  C:\Users\PRICHA~1\AppData\Local\Temp\ccg28BYd.s 			page 8


 247:Generated_Source\PSoC4/SPI_1_SPI.c ****     #endif /* (SPI_1_SS0_PIN) */
 248:Generated_Source\PSoC4/SPI_1_SPI.c **** 
 249:Generated_Source\PSoC4/SPI_1_SPI.c ****     #if (SPI_1_SS1_PIN)
 250:Generated_Source\PSoC4/SPI_1_SPI.c ****         /* Set SCB SPI to drive output pin */
 251:Generated_Source\PSoC4/SPI_1_SPI.c ****         SPI_1_SET_HSIOM_SEL(SPI_1_SS1_HSIOM_REG, SPI_1_SS1_HSIOM_MASK,
 252:Generated_Source\PSoC4/SPI_1_SPI.c ****                                        SPI_1_SS1_HSIOM_POS, SPI_1_SS1_HSIOM_SEL_SPI);
 253:Generated_Source\PSoC4/SPI_1_SPI.c ****     #endif /* (SPI_1_SS1_PIN) */
 254:Generated_Source\PSoC4/SPI_1_SPI.c **** 
 255:Generated_Source\PSoC4/SPI_1_SPI.c ****     #if (SPI_1_SS2_PIN)
 256:Generated_Source\PSoC4/SPI_1_SPI.c ****         /* Set SCB SPI to drive output pin */
 257:Generated_Source\PSoC4/SPI_1_SPI.c ****         SPI_1_SET_HSIOM_SEL(SPI_1_SS2_HSIOM_REG, SPI_1_SS2_HSIOM_MASK,
 258:Generated_Source\PSoC4/SPI_1_SPI.c ****                                        SPI_1_SS2_HSIOM_POS, SPI_1_SS2_HSIOM_SEL_SPI);
 259:Generated_Source\PSoC4/SPI_1_SPI.c ****     #endif /* (SPI_1_SS2_PIN) */
 260:Generated_Source\PSoC4/SPI_1_SPI.c **** 
 261:Generated_Source\PSoC4/SPI_1_SPI.c ****     #if (SPI_1_SS3_PIN)
 262:Generated_Source\PSoC4/SPI_1_SPI.c ****         /* Set SCB SPI to drive output pin */
 263:Generated_Source\PSoC4/SPI_1_SPI.c ****         SPI_1_SET_HSIOM_SEL(SPI_1_SS3_HSIOM_REG, SPI_1_SS3_HSIOM_MASK,
 264:Generated_Source\PSoC4/SPI_1_SPI.c ****                                        SPI_1_SS3_HSIOM_POS, SPI_1_SS3_HSIOM_SEL_SPI);
 265:Generated_Source\PSoC4/SPI_1_SPI.c ****     #endif /* (SPI_1_SS3_PIN) */
 266:Generated_Source\PSoC4/SPI_1_SPI.c ****     }
 267:Generated_Source\PSoC4/SPI_1_SPI.c **** 
 268:Generated_Source\PSoC4/SPI_1_SPI.c **** #else
 269:Generated_Source\PSoC4/SPI_1_SPI.c **** 
 270:Generated_Source\PSoC4/SPI_1_SPI.c ****     #if (SPI_1_SPI_MASTER_SCLK_PIN)
 271:Generated_Source\PSoC4/SPI_1_SPI.c ****         /* Set SCB SPI to drive output pin */
 272:Generated_Source\PSoC4/SPI_1_SPI.c ****         SPI_1_SET_HSIOM_SEL(SPI_1_SCLK_M_HSIOM_REG, SPI_1_SCLK_M_HSIOM_MASK,
 273:Generated_Source\PSoC4/SPI_1_SPI.c ****                                        SPI_1_SCLK_M_HSIOM_POS, SPI_1_SCLK_M_HSIOM_SEL_SPI);
 274:Generated_Source\PSoC4/SPI_1_SPI.c ****     #endif /* (SPI_1_MISO_SDA_TX_PIN_PIN) */
 275:Generated_Source\PSoC4/SPI_1_SPI.c **** 
 276:Generated_Source\PSoC4/SPI_1_SPI.c ****     #if (SPI_1_SPI_MASTER_SS0_PIN)
 277:Generated_Source\PSoC4/SPI_1_SPI.c ****         /* Set SCB SPI to drive output pin */
 278:Generated_Source\PSoC4/SPI_1_SPI.c ****         SPI_1_SET_HSIOM_SEL(SPI_1_SS0_M_HSIOM_REG, SPI_1_SS0_M_HSIOM_MASK,
 279:Generated_Source\PSoC4/SPI_1_SPI.c ****                                        SPI_1_SS0_M_HSIOM_POS, SPI_1_SS0_M_HSIOM_SEL_SPI);
 280:Generated_Source\PSoC4/SPI_1_SPI.c ****     #endif /* (SPI_1_SPI_MASTER_SS0_PIN) */
 281:Generated_Source\PSoC4/SPI_1_SPI.c **** 
 282:Generated_Source\PSoC4/SPI_1_SPI.c ****     #if (SPI_1_SPI_MASTER_SS1_PIN)
 283:Generated_Source\PSoC4/SPI_1_SPI.c ****         /* Set SCB SPI to drive output pin */
 284:Generated_Source\PSoC4/SPI_1_SPI.c ****         SPI_1_SET_HSIOM_SEL(SPI_1_SS1_M_HSIOM_REG, SPI_1_SS1_M_HSIOM_MASK,
 285:Generated_Source\PSoC4/SPI_1_SPI.c ****                                        SPI_1_SS1_M_HSIOM_POS, SPI_1_SS1_M_HSIOM_SEL_SPI);
 286:Generated_Source\PSoC4/SPI_1_SPI.c ****     #endif /* (SPI_1_SPI_MASTER_SS1_PIN) */
 287:Generated_Source\PSoC4/SPI_1_SPI.c **** 
 288:Generated_Source\PSoC4/SPI_1_SPI.c ****     #if (SPI_1_SPI_MASTER_SS2_PIN)
 289:Generated_Source\PSoC4/SPI_1_SPI.c ****         /* Set SCB SPI to drive output pin */
 290:Generated_Source\PSoC4/SPI_1_SPI.c ****         SPI_1_SET_HSIOM_SEL(SPI_1_SS2_M_HSIOM_REG, SPI_1_SS2_M_HSIOM_MASK,
 291:Generated_Source\PSoC4/SPI_1_SPI.c ****                                        SPI_1_SS2_M_HSIOM_POS, SPI_1_SS2_M_HSIOM_SEL_SPI);
 292:Generated_Source\PSoC4/SPI_1_SPI.c ****     #endif /* (SPI_1_SPI_MASTER_SS2_PIN) */
 293:Generated_Source\PSoC4/SPI_1_SPI.c **** 
 294:Generated_Source\PSoC4/SPI_1_SPI.c ****     #if (SPI_1_SPI_MASTER_SS3_PIN)
 295:Generated_Source\PSoC4/SPI_1_SPI.c ****         /* Set SCB SPI to drive output pin */
 296:Generated_Source\PSoC4/SPI_1_SPI.c ****         SPI_1_SET_HSIOM_SEL(SPI_1_SS3_M_HSIOM_REG, SPI_1_SS3_M_HSIOM_MASK,
 297:Generated_Source\PSoC4/SPI_1_SPI.c ****                                        SPI_1_SS3_M_HSIOM_POS, SPI_1_SS3_M_HSIOM_SEL_SPI);
 298:Generated_Source\PSoC4/SPI_1_SPI.c ****     #endif /* (SPI_1_SPI_MASTER_SS3_PIN) */
 299:Generated_Source\PSoC4/SPI_1_SPI.c **** 
 300:Generated_Source\PSoC4/SPI_1_SPI.c **** #endif /* (SPI_1_SCB_MODE_UNCONFIG_CONST_CFG) */
 301:Generated_Source\PSoC4/SPI_1_SPI.c **** 
 302:Generated_Source\PSoC4/SPI_1_SPI.c ****     /* Restore TX interrupt sources. */
 303:Generated_Source\PSoC4/SPI_1_SPI.c ****     SPI_1_SetTxInterruptMode(SPI_1_IntrTxMask);
ARM GAS  C:\Users\PRICHA~1\AppData\Local\Temp\ccg28BYd.s 			page 9


 154              		.loc 1 303 0
 155 0000 024B     		ldr	r3, .L5
 156 0002 1A88     		ldrh	r2, [r3]
 157 0004 024B     		ldr	r3, .L5+4
 158 0006 1A60     		str	r2, [r3]
 304:Generated_Source\PSoC4/SPI_1_SPI.c **** }
 159              		.loc 1 304 0
 160              		@ sp needed
 161 0008 7047     		bx	lr
 162              	.L6:
 163 000a C046     		.align	2
 164              	.L5:
 165 000c 00000000 		.word	SPI_1_IntrTxMask
 166 0010 880F0740 		.word	1074204552
 167              		.cfi_endproc
 168              	.LFE1:
 169              		.size	SPI_1_SpiPostEnable, .-SPI_1_SpiPostEnable
 170              		.section	.text.SPI_1_SpiStop,"ax",%progbits
 171              		.align	2
 172              		.global	SPI_1_SpiStop
 173              		.code	16
 174              		.thumb_func
 175              		.type	SPI_1_SpiStop, %function
 176              	SPI_1_SpiStop:
 177              	.LFB2:
 305:Generated_Source\PSoC4/SPI_1_SPI.c **** 
 306:Generated_Source\PSoC4/SPI_1_SPI.c **** 
 307:Generated_Source\PSoC4/SPI_1_SPI.c **** /*******************************************************************************
 308:Generated_Source\PSoC4/SPI_1_SPI.c **** * Function Name: SPI_1_SpiStop
 309:Generated_Source\PSoC4/SPI_1_SPI.c **** ****************************************************************************//**
 310:Generated_Source\PSoC4/SPI_1_SPI.c **** *
 311:Generated_Source\PSoC4/SPI_1_SPI.c **** *  Changes the HSIOM settings for the SPI master output pins 
 312:Generated_Source\PSoC4/SPI_1_SPI.c **** *  (SCLK and/or SS0-SS3) to keep them inactive after the block is disabled. 
 313:Generated_Source\PSoC4/SPI_1_SPI.c **** *  The output pins are controlled by the GPIO data register.
 314:Generated_Source\PSoC4/SPI_1_SPI.c **** *
 315:Generated_Source\PSoC4/SPI_1_SPI.c **** *******************************************************************************/
 316:Generated_Source\PSoC4/SPI_1_SPI.c **** void SPI_1_SpiStop(void)
 317:Generated_Source\PSoC4/SPI_1_SPI.c **** {
 178              		.loc 1 317 0
 179              		.cfi_startproc
 180              		@ args = 0, pretend = 0, frame = 0
 181              		@ frame_needed = 0, uses_anonymous_args = 0
 182              		@ link register save eliminated.
 318:Generated_Source\PSoC4/SPI_1_SPI.c **** #if(SPI_1_SCB_MODE_UNCONFIG_CONST_CFG)
 319:Generated_Source\PSoC4/SPI_1_SPI.c **** 
 320:Generated_Source\PSoC4/SPI_1_SPI.c ****     if (SPI_1_CHECK_SPI_MASTER)
 321:Generated_Source\PSoC4/SPI_1_SPI.c ****     {
 322:Generated_Source\PSoC4/SPI_1_SPI.c ****     #if (SPI_1_SCLK_PIN)
 323:Generated_Source\PSoC4/SPI_1_SPI.c ****         /* Set output pin state after block is disabled */
 324:Generated_Source\PSoC4/SPI_1_SPI.c ****         SPI_1_spi_sclk_Write(SPI_1_GET_SPI_SCLK_INACTIVE);
 325:Generated_Source\PSoC4/SPI_1_SPI.c **** 
 326:Generated_Source\PSoC4/SPI_1_SPI.c ****         /* Set GPIO to drive output pin */
 327:Generated_Source\PSoC4/SPI_1_SPI.c ****         SPI_1_SET_HSIOM_SEL(SPI_1_SCLK_HSIOM_REG, SPI_1_SCLK_HSIOM_MASK,
 328:Generated_Source\PSoC4/SPI_1_SPI.c ****                                        SPI_1_SCLK_HSIOM_POS, SPI_1_SCLK_HSIOM_SEL_GPIO);
 329:Generated_Source\PSoC4/SPI_1_SPI.c ****     #endif /* (SPI_1_spi_sclk_PIN) */
 330:Generated_Source\PSoC4/SPI_1_SPI.c **** 
 331:Generated_Source\PSoC4/SPI_1_SPI.c ****     #if (SPI_1_SS0_PIN)
ARM GAS  C:\Users\PRICHA~1\AppData\Local\Temp\ccg28BYd.s 			page 10


 332:Generated_Source\PSoC4/SPI_1_SPI.c ****         /* Set output pin state after block is disabled */
 333:Generated_Source\PSoC4/SPI_1_SPI.c ****         SPI_1_spi_ss0_Write(SPI_1_GET_SPI_SS0_INACTIVE);
 334:Generated_Source\PSoC4/SPI_1_SPI.c **** 
 335:Generated_Source\PSoC4/SPI_1_SPI.c ****         /* Set GPIO to drive output pin */
 336:Generated_Source\PSoC4/SPI_1_SPI.c ****         SPI_1_SET_HSIOM_SEL(SPI_1_SS0_HSIOM_REG, SPI_1_SS0_HSIOM_MASK,
 337:Generated_Source\PSoC4/SPI_1_SPI.c ****                                        SPI_1_SS0_HSIOM_POS, SPI_1_SS0_HSIOM_SEL_GPIO);
 338:Generated_Source\PSoC4/SPI_1_SPI.c ****     #endif /* (SPI_1_spi_ss0_PIN) */
 339:Generated_Source\PSoC4/SPI_1_SPI.c **** 
 340:Generated_Source\PSoC4/SPI_1_SPI.c ****     #if (SPI_1_SS1_PIN)
 341:Generated_Source\PSoC4/SPI_1_SPI.c ****         /* Set output pin state after block is disabled */
 342:Generated_Source\PSoC4/SPI_1_SPI.c ****         SPI_1_spi_ss1_Write(SPI_1_GET_SPI_SS1_INACTIVE);
 343:Generated_Source\PSoC4/SPI_1_SPI.c **** 
 344:Generated_Source\PSoC4/SPI_1_SPI.c ****         /* Set GPIO to drive output pin */
 345:Generated_Source\PSoC4/SPI_1_SPI.c ****         SPI_1_SET_HSIOM_SEL(SPI_1_SS1_HSIOM_REG, SPI_1_SS1_HSIOM_MASK,
 346:Generated_Source\PSoC4/SPI_1_SPI.c ****                                        SPI_1_SS1_HSIOM_POS, SPI_1_SS1_HSIOM_SEL_GPIO);
 347:Generated_Source\PSoC4/SPI_1_SPI.c ****     #endif /* (SPI_1_SS1_PIN) */
 348:Generated_Source\PSoC4/SPI_1_SPI.c **** 
 349:Generated_Source\PSoC4/SPI_1_SPI.c ****     #if (SPI_1_SS2_PIN)
 350:Generated_Source\PSoC4/SPI_1_SPI.c ****         /* Set output pin state after block is disabled */
 351:Generated_Source\PSoC4/SPI_1_SPI.c ****         SPI_1_spi_ss2_Write(SPI_1_GET_SPI_SS2_INACTIVE);
 352:Generated_Source\PSoC4/SPI_1_SPI.c **** 
 353:Generated_Source\PSoC4/SPI_1_SPI.c ****         /* Set GPIO to drive output pin */
 354:Generated_Source\PSoC4/SPI_1_SPI.c ****         SPI_1_SET_HSIOM_SEL(SPI_1_SS2_HSIOM_REG, SPI_1_SS2_HSIOM_MASK,
 355:Generated_Source\PSoC4/SPI_1_SPI.c ****                                        SPI_1_SS2_HSIOM_POS, SPI_1_SS2_HSIOM_SEL_GPIO);
 356:Generated_Source\PSoC4/SPI_1_SPI.c ****     #endif /* (SPI_1_SS2_PIN) */
 357:Generated_Source\PSoC4/SPI_1_SPI.c **** 
 358:Generated_Source\PSoC4/SPI_1_SPI.c ****     #if (SPI_1_SS3_PIN)
 359:Generated_Source\PSoC4/SPI_1_SPI.c ****         /* Set output pin state after block is disabled */
 360:Generated_Source\PSoC4/SPI_1_SPI.c ****         SPI_1_spi_ss3_Write(SPI_1_GET_SPI_SS3_INACTIVE);
 361:Generated_Source\PSoC4/SPI_1_SPI.c **** 
 362:Generated_Source\PSoC4/SPI_1_SPI.c ****         /* Set GPIO to drive output pin */
 363:Generated_Source\PSoC4/SPI_1_SPI.c ****         SPI_1_SET_HSIOM_SEL(SPI_1_SS3_HSIOM_REG, SPI_1_SS3_HSIOM_MASK,
 364:Generated_Source\PSoC4/SPI_1_SPI.c ****                                        SPI_1_SS3_HSIOM_POS, SPI_1_SS3_HSIOM_SEL_GPIO);
 365:Generated_Source\PSoC4/SPI_1_SPI.c ****     #endif /* (SPI_1_SS3_PIN) */
 366:Generated_Source\PSoC4/SPI_1_SPI.c ****     
 367:Generated_Source\PSoC4/SPI_1_SPI.c ****         /* Store TX interrupt sources (exclude level triggered) for master. */
 368:Generated_Source\PSoC4/SPI_1_SPI.c ****         SPI_1_IntrTxMask = LO16(SPI_1_GetTxInterruptMode() & SPI_1_INTR_SPIM_TX_RESTORE);
 369:Generated_Source\PSoC4/SPI_1_SPI.c ****     }
 370:Generated_Source\PSoC4/SPI_1_SPI.c ****     else
 371:Generated_Source\PSoC4/SPI_1_SPI.c ****     {
 372:Generated_Source\PSoC4/SPI_1_SPI.c ****         /* Store TX interrupt sources (exclude level triggered) for slave. */
 373:Generated_Source\PSoC4/SPI_1_SPI.c ****         SPI_1_IntrTxMask = LO16(SPI_1_GetTxInterruptMode() & SPI_1_INTR_SPIS_TX_RESTORE);
 374:Generated_Source\PSoC4/SPI_1_SPI.c ****     }
 375:Generated_Source\PSoC4/SPI_1_SPI.c **** 
 376:Generated_Source\PSoC4/SPI_1_SPI.c **** #else
 377:Generated_Source\PSoC4/SPI_1_SPI.c **** 
 378:Generated_Source\PSoC4/SPI_1_SPI.c **** #if (SPI_1_SPI_MASTER_SCLK_PIN)
 379:Generated_Source\PSoC4/SPI_1_SPI.c ****     /* Set output pin state after block is disabled */
 380:Generated_Source\PSoC4/SPI_1_SPI.c ****     SPI_1_sclk_m_Write(SPI_1_GET_SPI_SCLK_INACTIVE);
 381:Generated_Source\PSoC4/SPI_1_SPI.c **** 
 382:Generated_Source\PSoC4/SPI_1_SPI.c ****     /* Set GPIO to drive output pin */
 383:Generated_Source\PSoC4/SPI_1_SPI.c ****     SPI_1_SET_HSIOM_SEL(SPI_1_SCLK_M_HSIOM_REG, SPI_1_SCLK_M_HSIOM_MASK,
 384:Generated_Source\PSoC4/SPI_1_SPI.c ****                                    SPI_1_SCLK_M_HSIOM_POS, SPI_1_SCLK_M_HSIOM_SEL_GPIO);
 385:Generated_Source\PSoC4/SPI_1_SPI.c **** #endif /* (SPI_1_MISO_SDA_TX_PIN_PIN) */
 386:Generated_Source\PSoC4/SPI_1_SPI.c **** 
 387:Generated_Source\PSoC4/SPI_1_SPI.c **** #if (SPI_1_SPI_MASTER_SS0_PIN)
 388:Generated_Source\PSoC4/SPI_1_SPI.c ****     /* Set output pin state after block is disabled */
ARM GAS  C:\Users\PRICHA~1\AppData\Local\Temp\ccg28BYd.s 			page 11


 389:Generated_Source\PSoC4/SPI_1_SPI.c ****     SPI_1_ss0_m_Write(SPI_1_GET_SPI_SS0_INACTIVE);
 390:Generated_Source\PSoC4/SPI_1_SPI.c **** 
 391:Generated_Source\PSoC4/SPI_1_SPI.c ****     /* Set GPIO to drive output pin */
 392:Generated_Source\PSoC4/SPI_1_SPI.c ****     SPI_1_SET_HSIOM_SEL(SPI_1_SS0_M_HSIOM_REG, SPI_1_SS0_M_HSIOM_MASK,
 393:Generated_Source\PSoC4/SPI_1_SPI.c ****                                    SPI_1_SS0_M_HSIOM_POS, SPI_1_SS0_M_HSIOM_SEL_GPIO);
 394:Generated_Source\PSoC4/SPI_1_SPI.c **** #endif /* (SPI_1_SPI_MASTER_SS0_PIN) */
 395:Generated_Source\PSoC4/SPI_1_SPI.c **** 
 396:Generated_Source\PSoC4/SPI_1_SPI.c **** #if (SPI_1_SPI_MASTER_SS1_PIN)
 397:Generated_Source\PSoC4/SPI_1_SPI.c ****     /* Set output pin state after block is disabled */
 398:Generated_Source\PSoC4/SPI_1_SPI.c ****     SPI_1_ss1_m_Write(SPI_1_GET_SPI_SS1_INACTIVE);
 399:Generated_Source\PSoC4/SPI_1_SPI.c **** 
 400:Generated_Source\PSoC4/SPI_1_SPI.c ****     /* Set GPIO to drive output pin */
 401:Generated_Source\PSoC4/SPI_1_SPI.c ****     SPI_1_SET_HSIOM_SEL(SPI_1_SS1_M_HSIOM_REG, SPI_1_SS1_M_HSIOM_MASK,
 402:Generated_Source\PSoC4/SPI_1_SPI.c ****                                    SPI_1_SS1_M_HSIOM_POS, SPI_1_SS1_M_HSIOM_SEL_GPIO);
 403:Generated_Source\PSoC4/SPI_1_SPI.c **** #endif /* (SPI_1_SPI_MASTER_SS1_PIN) */
 404:Generated_Source\PSoC4/SPI_1_SPI.c **** 
 405:Generated_Source\PSoC4/SPI_1_SPI.c **** #if (SPI_1_SPI_MASTER_SS2_PIN)
 406:Generated_Source\PSoC4/SPI_1_SPI.c ****     /* Set output pin state after block is disabled */
 407:Generated_Source\PSoC4/SPI_1_SPI.c ****     SPI_1_ss2_m_Write(SPI_1_GET_SPI_SS2_INACTIVE);
 408:Generated_Source\PSoC4/SPI_1_SPI.c **** 
 409:Generated_Source\PSoC4/SPI_1_SPI.c ****     /* Set GPIO to drive output pin */
 410:Generated_Source\PSoC4/SPI_1_SPI.c ****     SPI_1_SET_HSIOM_SEL(SPI_1_SS2_M_HSIOM_REG, SPI_1_SS2_M_HSIOM_MASK,
 411:Generated_Source\PSoC4/SPI_1_SPI.c ****                                    SPI_1_SS2_M_HSIOM_POS, SPI_1_SS2_M_HSIOM_SEL_GPIO);
 412:Generated_Source\PSoC4/SPI_1_SPI.c **** #endif /* (SPI_1_SPI_MASTER_SS2_PIN) */
 413:Generated_Source\PSoC4/SPI_1_SPI.c **** 
 414:Generated_Source\PSoC4/SPI_1_SPI.c **** #if (SPI_1_SPI_MASTER_SS3_PIN)
 415:Generated_Source\PSoC4/SPI_1_SPI.c ****     /* Set output pin state after block is disabled */
 416:Generated_Source\PSoC4/SPI_1_SPI.c ****     SPI_1_ss3_m_Write(SPI_1_GET_SPI_SS3_INACTIVE);
 417:Generated_Source\PSoC4/SPI_1_SPI.c **** 
 418:Generated_Source\PSoC4/SPI_1_SPI.c ****     /* Set GPIO to drive output pin */
 419:Generated_Source\PSoC4/SPI_1_SPI.c ****     SPI_1_SET_HSIOM_SEL(SPI_1_SS3_M_HSIOM_REG, SPI_1_SS3_M_HSIOM_MASK,
 420:Generated_Source\PSoC4/SPI_1_SPI.c ****                                    SPI_1_SS3_M_HSIOM_POS, SPI_1_SS3_M_HSIOM_SEL_GPIO);
 421:Generated_Source\PSoC4/SPI_1_SPI.c **** #endif /* (SPI_1_SPI_MASTER_SS3_PIN) */
 422:Generated_Source\PSoC4/SPI_1_SPI.c **** 
 423:Generated_Source\PSoC4/SPI_1_SPI.c ****     #if (SPI_1_SPI_MASTER_CONST)
 424:Generated_Source\PSoC4/SPI_1_SPI.c ****         /* Store TX interrupt sources (exclude level triggered). */
 425:Generated_Source\PSoC4/SPI_1_SPI.c ****         SPI_1_IntrTxMask = LO16(SPI_1_GetTxInterruptMode() & SPI_1_INTR_SPIM_TX_RESTORE);
 426:Generated_Source\PSoC4/SPI_1_SPI.c ****     #else
 427:Generated_Source\PSoC4/SPI_1_SPI.c ****         /* Store TX interrupt sources (exclude level triggered). */
 428:Generated_Source\PSoC4/SPI_1_SPI.c ****         SPI_1_IntrTxMask = LO16(SPI_1_GetTxInterruptMode() & SPI_1_INTR_SPIS_TX_RESTORE);
 183              		.loc 1 428 0
 184 0000 034B     		ldr	r3, .L8
 185 0002 1B68     		ldr	r3, [r3]
 186 0004 6022     		movs	r2, #96
 187 0006 1340     		ands	r3, r2
 188 0008 024A     		ldr	r2, .L8+4
 189 000a 1380     		strh	r3, [r2]
 429:Generated_Source\PSoC4/SPI_1_SPI.c ****     #endif /* (SPI_1_SPI_MASTER_CONST) */
 430:Generated_Source\PSoC4/SPI_1_SPI.c **** 
 431:Generated_Source\PSoC4/SPI_1_SPI.c **** #endif /* (SPI_1_SCB_MODE_UNCONFIG_CONST_CFG) */
 432:Generated_Source\PSoC4/SPI_1_SPI.c **** }
 190              		.loc 1 432 0
 191              		@ sp needed
 192 000c 7047     		bx	lr
 193              	.L9:
 194 000e C046     		.align	2
 195              	.L8:
ARM GAS  C:\Users\PRICHA~1\AppData\Local\Temp\ccg28BYd.s 			page 12


 196 0010 880F0740 		.word	1074204552
 197 0014 00000000 		.word	SPI_1_IntrTxMask
 198              		.cfi_endproc
 199              	.LFE2:
 200              		.size	SPI_1_SpiStop, .-SPI_1_SpiStop
 201              		.text
 202              	.Letext0:
 203              		.file 2 "Generated_Source\\PSoC4/cytypes.h"
 204              		.file 3 "Generated_Source\\PSoC4\\SPI_1_PVT.h"
 205              		.file 4 "Generated_Source\\PSoC4\\SPI_1_SPI_UART_PVT.h"
 206              		.file 5 "Generated_Source\\PSoC4/CyLib.h"